SF:/home/akelbsch/.rustup/toolchains/nightly-x86_64-unknown-linux-gnu/lib/rustlib/src/rust/library/std/src/sys/thread_local/native/mod.rs
FN:63,_RNCNKNvNtNtCs9NR9ESuCzEp_5tokio4task5local7CURRENT00B9_
FN:92,_RNCNKNvNtNtCs9NR9ESuCzEp_5tokio7runtime4park14CURRENT_PARKER00B9_
FN:63,_RNCNKNvNtNtCs9NR9ESuCzEp_5tokio7runtime7context7CONTEXT00B9_
FN:85,_RNvNvNtNtCs9NR9ESuCzEp_5tokio7runtime4park14CURRENT_PARKER27___rust_std_internal_init_fn
FN:71,_RNCNKNvNtNtCs9NR9ESuCzEp_5tokio4task5local7CURRENT0s_0B9_
FN:100,_RNCNKNvNtNtCs9NR9ESuCzEp_5tokio7runtime4park14CURRENT_PARKER0s_0B9_
FN:71,_RNCNKNvNtNtCs9NR9ESuCzEp_5tokio7runtime7context7CONTEXT0s_0B9_
FN:100,_RNCNKNvNtCs4EYDOOrjJUs_8fastrand10global_rng3RNG0s_0Cs8BasmOmFkuG_8tempfile
FN:85,_RNvNvNtCs4EYDOOrjJUs_8fastrand10global_rng3RNG27___rust_std_internal_init_fn
FN:100,_RNCNKNvNtCs4EYDOOrjJUs_8fastrand10global_rng3RNG0s_0B7_
FN:92,_RNCNKNvNtCs4EYDOOrjJUs_8fastrand10global_rng3RNG00B7_
FNDA:0,_RNCNKNvNtNtCs9NR9ESuCzEp_5tokio4task5local7CURRENT00B9_
FNDA:0,_RNCNKNvNtNtCs9NR9ESuCzEp_5tokio7runtime4park14CURRENT_PARKER00B9_
FNDA:0,_RNCNKNvNtNtCs9NR9ESuCzEp_5tokio7runtime7context7CONTEXT00B9_
FNDA:0,_RNvNvNtNtCs9NR9ESuCzEp_5tokio7runtime4park14CURRENT_PARKER27___rust_std_internal_init_fn
FNDA:0,_RNCNKNvNtNtCs9NR9ESuCzEp_5tokio4task5local7CURRENT0s_0B9_
FNDA:0,_RNCNKNvNtNtCs9NR9ESuCzEp_5tokio7runtime4park14CURRENT_PARKER0s_0B9_
FNDA:0,_RNCNKNvNtNtCs9NR9ESuCzEp_5tokio7runtime7context7CONTEXT0s_0B9_
FNDA:0,_RNCNKNvNtCs4EYDOOrjJUs_8fastrand10global_rng3RNG0s_0Cs8BasmOmFkuG_8tempfile
FNDA:0,_RNvNvNtCs4EYDOOrjJUs_8fastrand10global_rng3RNG27___rust_std_internal_init_fn
FNDA:0,_RNCNKNvNtCs4EYDOOrjJUs_8fastrand10global_rng3RNG0s_0B7_
FNDA:0,_RNCNKNvNtCs4EYDOOrjJUs_8fastrand10global_rng3RNG00B7_
FNF:5
FNH:0
DA:63,0
DA:68,0
DA:69,0
DA:71,0
DA:75,0
DA:76,0
DA:85,0
DA:87,0
DA:92,0
DA:97,0
DA:98,0
DA:100,0
DA:105,0
DA:106,0
BRF:0
BRH:0
LF:14
LH:0
end_of_record
SF:/home/akelbsch/projects/scion/endhost/public/scion-proto/scion-protobuf/src/proto/proto.control_plane.v1.rs
FN:628,_RINvMNtNtNtCsk5MUdMCAQgk_14scion_protobuf13control_plane2v127dr_key_inter_service_clientINtB3_23DrKeyInterServiceClientNtNtNtCs5VJ8GLlaEd8_5tonic9transport7channel7ChannelE7connectpEB9_
FN:777,_RINvMNtNtNtCsk5MUdMCAQgk_14scion_protobuf13control_plane2v127dr_key_inter_service_serverINtB3_23DrKeyInterServiceServerpE16with_interceptorpEB9_
FN:935,_RINvMNtNtNtCsk5MUdMCAQgk_14scion_protobuf13control_plane2v127dr_key_intra_service_clientINtB3_23DrKeyIntraServiceClientNtNtNtCs5VJ8GLlaEd8_5tonic9transport7channel7ChannelE7connectpEB9_
FN:1236,_RINvMNtNtNtCsk5MUdMCAQgk_14scion_protobuf13control_plane2v127dr_key_intra_service_serverINtB3_23DrKeyIntraServiceServerpE16with_interceptorpEB9_
FN:1620,_RINvMNtNtNtCsk5MUdMCAQgk_14scion_protobuf13control_plane2v128chain_renewal_service_clientINtB3_25ChainRenewalServiceClientNtNtNtCs5VJ8GLlaEd8_5tonic9transport7channel7ChannelE7connectpEB9_
FN:1769,_RINvMNtNtNtCsk5MUdMCAQgk_14scion_protobuf13control_plane2v128chain_renewal_service_serverINtB3_25ChainRenewalServiceServerpE16with_interceptorpEB9_
FN:2312,_RINvMNtNtNtCsk5MUdMCAQgk_14scion_protobuf13control_plane2v129segment_lookup_service_clientINtB3_26SegmentLookupServiceClientNtNtNtCs5VJ8GLlaEd8_5tonic9transport7channel7ChannelE7connectpEB9_
FN:2461,_RINvMNtNtNtCsk5MUdMCAQgk_14scion_protobuf13control_plane2v129segment_lookup_service_serverINtB3_26SegmentLookupServiceServerpE16with_interceptorpEB9_
FN:88,_RINvMNtNtNtCsk5MUdMCAQgk_14scion_protobuf13control_plane2v129trust_material_service_clientINtB3_26TrustMaterialServiceClientNtNtNtCs5VJ8GLlaEd8_5tonic9transport7channel7ChannelE7connectpEB9_
FN:260,_RINvMNtNtNtCsk5MUdMCAQgk_14scion_protobuf13control_plane2v129trust_material_service_serverINtB3_26TrustMaterialServiceServerpE16with_interceptorpEB9_
FN:2934,_RINvMNtNtNtCsk5MUdMCAQgk_14scion_protobuf13control_plane2v131segment_creation_service_clientINtB3_28SegmentCreationServiceClientNtNtNtCs5VJ8GLlaEd8_5tonic9transport7channel7ChannelE7connectpEB9_
FN:3079,_RINvMNtNtNtCsk5MUdMCAQgk_14scion_protobuf13control_plane2v131segment_creation_service_serverINtB3_28SegmentCreationServiceServerpE16with_interceptorpEB9_
FN:2619,_RINvMNtNtNtCsk5MUdMCAQgk_14scion_protobuf13control_plane2v135segment_registration_service_clientINtB3_32SegmentRegistrationServiceClientNtNtNtCs5VJ8GLlaEd8_5tonic9transport7channel7ChannelE7connectpEB9_
FN:2770,_RINvMNtNtNtCsk5MUdMCAQgk_14scion_protobuf13control_plane2v135segment_registration_service_serverINtB3_32SegmentRegistrationServiceServerpE16with_interceptorpEB9_
FN:703,_RINvMs_NtNtNtCsk5MUdMCAQgk_14scion_protobuf13control_plane2v127dr_key_inter_service_clientINtB5_23DrKeyInterServiceClientpE13dr_key_level1pEBb_
FN:652,_RINvMs_NtNtNtCsk5MUdMCAQgk_14scion_protobuf13control_plane2v127dr_key_inter_service_clientINtB5_23DrKeyInterServiceClientpE16with_interceptorpEBb_
FN:1040,_RINvMs_NtNtNtCsk5MUdMCAQgk_14scion_protobuf13control_plane2v127dr_key_intra_service_clientINtB5_23DrKeyIntraServiceClientpE14dr_key_as_hostpEBb_
FN:1070,_RINvMs_NtNtNtCsk5MUdMCAQgk_14scion_protobuf13control_plane2v127dr_key_intra_service_clientINtB5_23DrKeyIntraServiceClientpE14dr_key_host_aspEBb_
FN:1100,_RINvMs_NtNtNtCsk5MUdMCAQgk_14scion_protobuf13control_plane2v127dr_key_intra_service_clientINtB5_23DrKeyIntraServiceClientpE16dr_key_host_hostpEBb_
FN:959,_RINvMs_NtNtNtCsk5MUdMCAQgk_14scion_protobuf13control_plane2v127dr_key_intra_service_clientINtB5_23DrKeyIntraServiceClientpE16with_interceptorpEBb_
FN:1010,_RINvMs_NtNtNtCsk5MUdMCAQgk_14scion_protobuf13control_plane2v127dr_key_intra_service_clientINtB5_23DrKeyIntraServiceClientpE19dr_key_intra_level1pEBb_
FN:1130,_RINvMs_NtNtNtCsk5MUdMCAQgk_14scion_protobuf13control_plane2v127dr_key_intra_service_clientINtB5_23DrKeyIntraServiceClientpE19dr_key_secret_valuepEBb_
FN:1695,_RINvMs_NtNtNtCsk5MUdMCAQgk_14scion_protobuf13control_plane2v128chain_renewal_service_clientINtB5_25ChainRenewalServiceClientpE13chain_renewalpEBb_
FN:1644,_RINvMs_NtNtNtCsk5MUdMCAQgk_14scion_protobuf13control_plane2v128chain_renewal_service_clientINtB5_25ChainRenewalServiceClientpE16with_interceptorpEBb_
FN:2336,_RINvMs_NtNtNtCsk5MUdMCAQgk_14scion_protobuf13control_plane2v129segment_lookup_service_clientINtB5_26SegmentLookupServiceClientpE16with_interceptorpEBb_
FN:2387,_RINvMs_NtNtNtCsk5MUdMCAQgk_14scion_protobuf13control_plane2v129segment_lookup_service_clientINtB5_26SegmentLookupServiceClientpE8segmentspEBb_
FN:112,_RINvMs_NtNtNtCsk5MUdMCAQgk_14scion_protobuf13control_plane2v129trust_material_service_clientINtB5_26TrustMaterialServiceClientpE16with_interceptorpEBb_
FN:190,_RINvMs_NtNtNtCsk5MUdMCAQgk_14scion_protobuf13control_plane2v129trust_material_service_clientINtB5_26TrustMaterialServiceClientpE3trcpEBb_
FN:163,_RINvMs_NtNtNtCsk5MUdMCAQgk_14scion_protobuf13control_plane2v129trust_material_service_clientINtB5_26TrustMaterialServiceClientpE6chainspEBb_
FN:2958,_RINvMs_NtNtNtCsk5MUdMCAQgk_14scion_protobuf13control_plane2v131segment_creation_service_clientINtB5_28SegmentCreationServiceClientpE16with_interceptorpEBb_
FN:3011,_RINvMs_NtNtNtCsk5MUdMCAQgk_14scion_protobuf13control_plane2v131segment_creation_service_clientINtB5_28SegmentCreationServiceClientpE6beaconpEBb_
FN:2643,_RINvMs_NtNtNtCsk5MUdMCAQgk_14scion_protobuf13control_plane2v135segment_registration_service_clientINtB5_32SegmentRegistrationServiceClientpE16with_interceptorpEBb_
FN:2696,_RINvMs_NtNtNtCsk5MUdMCAQgk_14scion_protobuf13control_plane2v135segment_registration_service_clientINtB5_32SegmentRegistrationServiceClientpE21segments_registrationpEBb_
FN:632,_RNCINvMNtNtNtCsk5MUdMCAQgk_14scion_protobuf13control_plane2v127dr_key_inter_service_clientINtB5_23DrKeyInterServiceClientNtNtNtCs5VJ8GLlaEd8_5tonic9transport7channel7ChannelE7connectpE0Bb_
FN:939,_RNCINvMNtNtNtCsk5MUdMCAQgk_14scion_protobuf13control_plane2v127dr_key_intra_service_clientINtB5_23DrKeyIntraServiceClientNtNtNtCs5VJ8GLlaEd8_5tonic9transport7channel7ChannelE7connectpE0Bb_
FN:1624,_RNCINvMNtNtNtCsk5MUdMCAQgk_14scion_protobuf13control_plane2v128chain_renewal_service_clientINtB5_25ChainRenewalServiceClientNtNtNtCs5VJ8GLlaEd8_5tonic9transport7channel7ChannelE7connectpE0Bb_
FN:2316,_RNCINvMNtNtNtCsk5MUdMCAQgk_14scion_protobuf13control_plane2v129segment_lookup_service_clientINtB5_26SegmentLookupServiceClientNtNtNtCs5VJ8GLlaEd8_5tonic9transport7channel7ChannelE7connectpE0Bb_
FN:92,_RNCINvMNtNtNtCsk5MUdMCAQgk_14scion_protobuf13control_plane2v129trust_material_service_clientINtB5_26TrustMaterialServiceClientNtNtNtCs5VJ8GLlaEd8_5tonic9transport7channel7ChannelE7connectpE0Bb_
FN:2938,_RNCINvMNtNtNtCsk5MUdMCAQgk_14scion_protobuf13control_plane2v131segment_creation_service_clientINtB5_28SegmentCreationServiceClientNtNtNtCs5VJ8GLlaEd8_5tonic9transport7channel7ChannelE7connectpE0Bb_
FN:2623,_RNCINvMNtNtNtCsk5MUdMCAQgk_14scion_protobuf13control_plane2v135segment_registration_service_clientINtB5_32SegmentRegistrationServiceClientNtNtNtCs5VJ8GLlaEd8_5tonic9transport7channel7ChannelE7connectpE0Bb_
FN:709,_RNCINvMs_NtNtNtCsk5MUdMCAQgk_14scion_protobuf13control_plane2v127dr_key_inter_service_clientINtB7_23DrKeyInterServiceClientpE13dr_key_level1pE0Bd_
FN:1046,_RNCINvMs_NtNtNtCsk5MUdMCAQgk_14scion_protobuf13control_plane2v127dr_key_intra_service_clientINtB7_23DrKeyIntraServiceClientpE14dr_key_as_hostpE0Bd_
FN:1076,_RNCINvMs_NtNtNtCsk5MUdMCAQgk_14scion_protobuf13control_plane2v127dr_key_intra_service_clientINtB7_23DrKeyIntraServiceClientpE14dr_key_host_aspE0Bd_
FN:1106,_RNCINvMs_NtNtNtCsk5MUdMCAQgk_14scion_protobuf13control_plane2v127dr_key_intra_service_clientINtB7_23DrKeyIntraServiceClientpE16dr_key_host_hostpE0Bd_
FN:1016,_RNCINvMs_NtNtNtCsk5MUdMCAQgk_14scion_protobuf13control_plane2v127dr_key_intra_service_clientINtB7_23DrKeyIntraServiceClientpE19dr_key_intra_level1pE0Bd_
FN:1136,_RNCINvMs_NtNtNtCsk5MUdMCAQgk_14scion_protobuf13control_plane2v127dr_key_intra_service_clientINtB7_23DrKeyIntraServiceClientpE19dr_key_secret_valuepE0Bd_
FN:1701,_RNCINvMs_NtNtNtCsk5MUdMCAQgk_14scion_protobuf13control_plane2v128chain_renewal_service_clientINtB7_25ChainRenewalServiceClientpE13chain_renewalpE0Bd_
FN:2393,_RNCINvMs_NtNtNtCsk5MUdMCAQgk_14scion_protobuf13control_plane2v129segment_lookup_service_clientINtB7_26SegmentLookupServiceClientpE8segmentspE0Bd_
FN:193,_RNCINvMs_NtNtNtCsk5MUdMCAQgk_14scion_protobuf13control_plane2v129trust_material_service_clientINtB7_26TrustMaterialServiceClientpE3trcpE0Bd_
FN:166,_RNCINvMs_NtNtNtCsk5MUdMCAQgk_14scion_protobuf13control_plane2v129trust_material_service_clientINtB7_26TrustMaterialServiceClientpE6chainspE0Bd_
FN:3014,_RNCINvMs_NtNtNtCsk5MUdMCAQgk_14scion_protobuf13control_plane2v131segment_creation_service_clientINtB7_28SegmentCreationServiceClientpE6beaconpE0Bd_
FN:2702,_RNCINvMs_NtNtNtCsk5MUdMCAQgk_14scion_protobuf13control_plane2v135segment_registration_service_clientINtB7_32SegmentRegistrationServiceClientpE21segments_registrationpE0Bd_
FN:713,_RNCNCINvMs_NtNtNtCsk5MUdMCAQgk_14scion_protobuf13control_plane2v127dr_key_inter_service_clientINtB9_23DrKeyInterServiceClientpE13dr_key_level1pE00Bf_
FN:1050,_RNCNCINvMs_NtNtNtCsk5MUdMCAQgk_14scion_protobuf13control_plane2v127dr_key_intra_service_clientINtB9_23DrKeyIntraServiceClientpE14dr_key_as_hostpE00Bf_
FN:1080,_RNCNCINvMs_NtNtNtCsk5MUdMCAQgk_14scion_protobuf13control_plane2v127dr_key_intra_service_clientINtB9_23DrKeyIntraServiceClientpE14dr_key_host_aspE00Bf_
FN:1110,_RNCNCINvMs_NtNtNtCsk5MUdMCAQgk_14scion_protobuf13control_plane2v127dr_key_intra_service_clientINtB9_23DrKeyIntraServiceClientpE16dr_key_host_hostpE00Bf_
FN:1020,_RNCNCINvMs_NtNtNtCsk5MUdMCAQgk_14scion_protobuf13control_plane2v127dr_key_intra_service_clientINtB9_23DrKeyIntraServiceClientpE19dr_key_intra_level1pE00Bf_
FN:1140,_RNCNCINvMs_NtNtNtCsk5MUdMCAQgk_14scion_protobuf13control_plane2v127dr_key_intra_service_clientINtB9_23DrKeyIntraServiceClientpE19dr_key_secret_valuepE00Bf_
FN:1705,_RNCNCINvMs_NtNtNtCsk5MUdMCAQgk_14scion_protobuf13control_plane2v128chain_renewal_service_clientINtB9_25ChainRenewalServiceClientpE13chain_renewalpE00Bf_
FN:2397,_RNCNCINvMs_NtNtNtCsk5MUdMCAQgk_14scion_protobuf13control_plane2v129segment_lookup_service_clientINtB9_26SegmentLookupServiceClientpE8segmentspE00Bf_
FN:197,_RNCNCINvMs_NtNtNtCsk5MUdMCAQgk_14scion_protobuf13control_plane2v129trust_material_service_clientINtB9_26TrustMaterialServiceClientpE3trcpE00Bf_
FN:170,_RNCNCINvMs_NtNtNtCsk5MUdMCAQgk_14scion_protobuf13control_plane2v129trust_material_service_clientINtB9_26TrustMaterialServiceClientpE6chainspE00Bf_
FN:3018,_RNCNCINvMs_NtNtNtCsk5MUdMCAQgk_14scion_protobuf13control_plane2v131segment_creation_service_clientINtB9_28SegmentCreationServiceClientpE6beaconpE00Bf_
FN:2706,_RNCNCINvMs_NtNtNtCsk5MUdMCAQgk_14scion_protobuf13control_plane2v135segment_registration_service_clientINtB9_32SegmentRegistrationServiceClientpE21segments_registrationpE00Bf_
FN:861,_RNCNvXININtNtNtCsk5MUdMCAQgk_14scion_protobuf13control_plane2v127dr_key_inter_service_servers_0ppEINtB7_23DrKeyInterServiceServerpEINtCsamObgW7glvt_13tower_service7ServiceINtNtCsjYnxdl0q3X8_4http7request7RequestpEE4call0Bd_
FN:879,_RNCNvXININtNtNtCsk5MUdMCAQgk_14scion_protobuf13control_plane2v127dr_key_inter_service_servers_0ppEINtB7_23DrKeyInterServiceServerpEINtCsamObgW7glvt_13tower_service7ServiceINtNtCsjYnxdl0q3X8_4http7request7RequestpEE4calls_0Bd_
FN:1323,_RNCNvXININtNtNtCsk5MUdMCAQgk_14scion_protobuf13control_plane2v127dr_key_intra_service_servers_0ppEINtB7_23DrKeyIntraServiceServerpEINtCsamObgW7glvt_13tower_service7ServiceINtNtCsjYnxdl0q3X8_4http7request7RequestpEE4call0Bd_
FN:1415,_RNCNvXININtNtNtCsk5MUdMCAQgk_14scion_protobuf13control_plane2v127dr_key_intra_service_servers_0ppEINtB7_23DrKeyIntraServiceServerpEINtCsamObgW7glvt_13tower_service7ServiceINtNtCsjYnxdl0q3X8_4http7request7RequestpEE4calls0_0Bd_
FN:1461,_RNCNvXININtNtNtCsk5MUdMCAQgk_14scion_protobuf13control_plane2v127dr_key_intra_service_servers_0ppEINtB7_23DrKeyIntraServiceServerpEINtCsamObgW7glvt_13tower_service7ServiceINtNtCsjYnxdl0q3X8_4http7request7RequestpEE4calls1_0Bd_
FN:1510,_RNCNvXININtNtNtCsk5MUdMCAQgk_14scion_protobuf13control_plane2v127dr_key_intra_service_servers_0ppEINtB7_23DrKeyIntraServiceServerpEINtCsamObgW7glvt_13tower_service7ServiceINtNtCsjYnxdl0q3X8_4http7request7RequestpEE4calls2_0Bd_
FN:1528,_RNCNvXININtNtNtCsk5MUdMCAQgk_14scion_protobuf13control_plane2v127dr_key_intra_service_servers_0ppEINtB7_23DrKeyIntraServiceServerpEINtCsamObgW7glvt_13tower_service7ServiceINtNtCsjYnxdl0q3X8_4http7request7RequestpEE4calls3_0Bd_
FN:1369,_RNCNvXININtNtNtCsk5MUdMCAQgk_14scion_protobuf13control_plane2v127dr_key_intra_service_servers_0ppEINtB7_23DrKeyIntraServiceServerpEINtCsamObgW7glvt_13tower_service7ServiceINtNtCsjYnxdl0q3X8_4http7request7RequestpEE4calls_0Bd_
FN:1853,_RNCNvXININtNtNtCsk5MUdMCAQgk_14scion_protobuf13control_plane2v128chain_renewal_service_servers_0ppEINtB7_25ChainRenewalServiceServerpEINtCsamObgW7glvt_13tower_service7ServiceINtNtCsjYnxdl0q3X8_4http7request7RequestpEE4call0Bd_
FN:1871,_RNCNvXININtNtNtCsk5MUdMCAQgk_14scion_protobuf13control_plane2v128chain_renewal_service_servers_0ppEINtB7_25ChainRenewalServiceServerpEINtCsamObgW7glvt_13tower_service7ServiceINtNtCsjYnxdl0q3X8_4http7request7RequestpEE4calls_0Bd_
FN:2545,_RNCNvXININtNtNtCsk5MUdMCAQgk_14scion_protobuf13control_plane2v129segment_lookup_service_servers_0ppEINtB7_26SegmentLookupServiceServerpEINtCsamObgW7glvt_13tower_service7ServiceINtNtCsjYnxdl0q3X8_4http7request7RequestpEE4call0Bd_
FN:2563,_RNCNvXININtNtNtCsk5MUdMCAQgk_14scion_protobuf13control_plane2v129segment_lookup_service_servers_0ppEINtB7_26SegmentLookupServiceServerpEINtCsamObgW7glvt_13tower_service7ServiceINtNtCsjYnxdl0q3X8_4http7request7RequestpEE4calls_0Bd_
FN:344,_RNCNvXININtNtNtCsk5MUdMCAQgk_14scion_protobuf13control_plane2v129trust_material_service_servers_0ppEINtB7_26TrustMaterialServiceServerpEINtCsamObgW7glvt_13tower_service7ServiceINtNtCsjYnxdl0q3X8_4http7request7RequestpEE4call0Bd_
FN:406,_RNCNvXININtNtNtCsk5MUdMCAQgk_14scion_protobuf13control_plane2v129trust_material_service_servers_0ppEINtB7_26TrustMaterialServiceServerpEINtCsamObgW7glvt_13tower_service7ServiceINtNtCsjYnxdl0q3X8_4http7request7RequestpEE4calls0_0Bd_
FN:388,_RNCNvXININtNtNtCsk5MUdMCAQgk_14scion_protobuf13control_plane2v129trust_material_service_servers_0ppEINtB7_26TrustMaterialServiceServerpEINtCsamObgW7glvt_13tower_service7ServiceINtNtCsjYnxdl0q3X8_4http7request7RequestpEE4calls_0Bd_
FN:3163,_RNCNvXININtNtNtCsk5MUdMCAQgk_14scion_protobuf13control_plane2v131segment_creation_service_servers_0ppEINtB7_28SegmentCreationServiceServerpEINtCsamObgW7glvt_13tower_service7ServiceINtNtCsjYnxdl0q3X8_4http7request7RequestpEE4call0Bd_
FN:3181,_RNCNvXININtNtNtCsk5MUdMCAQgk_14scion_protobuf13control_plane2v131segment_creation_service_servers_0ppEINtB7_28SegmentCreationServiceServerpEINtCsamObgW7glvt_13tower_service7ServiceINtNtCsjYnxdl0q3X8_4http7request7RequestpEE4calls_0Bd_
FN:2860,_RNCNvXININtNtNtCsk5MUdMCAQgk_14scion_protobuf13control_plane2v135segment_registration_service_servers_0ppEINtB7_32SegmentRegistrationServiceServerpEINtCsamObgW7glvt_13tower_service7ServiceINtNtCsjYnxdl0q3X8_4http7request7RequestpEE4call0Bd_
FN:2878,_RNCNvXININtNtNtCsk5MUdMCAQgk_14scion_protobuf13control_plane2v135segment_registration_service_servers_0ppEINtB7_32SegmentRegistrationServiceServerpEINtCsamObgW7glvt_13tower_service7ServiceINtNtCsjYnxdl0q3X8_4http7request7RequestpEE4calls_0Bd_
FN:849,_RNCNvXININvXs_NtNtNtCsk5MUdMCAQgk_14scion_protobuf13control_plane2v127dr_key_inter_service_serverINtBc_23DrKeyInterServiceServerpEINtCsamObgW7glvt_13tower_service7ServiceINtNtCsjYnxdl0q3X8_4http7request7RequestpEE4call0pEINtB7_14DRKeyLevel1SvcpEINtNtNtCs5VJ8GLlaEd8_5tonic6server7service12UnaryServiceNtBe_18DrKeyLevel1RequestE4call0Bi_
FN:1308,_RNCNvXININvXs_NtNtNtCsk5MUdMCAQgk_14scion_protobuf13control_plane2v127dr_key_intra_service_serverINtBc_23DrKeyIntraServiceServerpEINtCsamObgW7glvt_13tower_service7ServiceINtNtCsjYnxdl0q3X8_4http7request7RequestpEE4call0pEINtB7_19DRKeyIntraLevel1SvcpEINtNtNtCs5VJ8GLlaEd8_5tonic6server7service12UnaryServiceNtBe_23DrKeyIntraLevel1RequestE4call0Bi_
FN:1403,_RNCNvXININvXs_NtNtNtCsk5MUdMCAQgk_14scion_protobuf13control_plane2v127dr_key_intra_service_serverINtBc_23DrKeyIntraServiceServerpEINtCsamObgW7glvt_13tower_service7ServiceINtNtCsjYnxdl0q3X8_4http7request7RequestpEE4calls0_0pEINtB7_14DRKeyHostASSvcpEINtNtNtCs5VJ8GLlaEd8_5tonic6server7service12UnaryServiceNtBe_18DrKeyHostAsRequestE4call0Bi_
FN:1449,_RNCNvXININvXs_NtNtNtCsk5MUdMCAQgk_14scion_protobuf13control_plane2v127dr_key_intra_service_serverINtBc_23DrKeyIntraServiceServerpEINtCsamObgW7glvt_13tower_service7ServiceINtNtCsjYnxdl0q3X8_4http7request7RequestpEE4calls1_0pEINtB7_16DRKeyHostHostSvcpEINtNtNtCs5VJ8GLlaEd8_5tonic6server7service12UnaryServiceNtBe_20DrKeyHostHostRequestE4call0Bi_
FN:1495,_RNCNvXININvXs_NtNtNtCsk5MUdMCAQgk_14scion_protobuf13control_plane2v127dr_key_intra_service_serverINtBc_23DrKeyIntraServiceServerpEINtCsamObgW7glvt_13tower_service7ServiceINtNtCsjYnxdl0q3X8_4http7request7RequestpEE4calls2_0pEINtB7_19DRKeySecretValueSvcpEINtNtNtCs5VJ8GLlaEd8_5tonic6server7service12UnaryServiceNtBe_23DrKeySecretValueRequestE4call0Bi_
FN:1357,_RNCNvXININvXs_NtNtNtCsk5MUdMCAQgk_14scion_protobuf13control_plane2v127dr_key_intra_service_serverINtBc_23DrKeyIntraServiceServerpEINtCsamObgW7glvt_13tower_service7ServiceINtNtCsjYnxdl0q3X8_4http7request7RequestpEE4calls_0pEINtB7_14DRKeyASHostSvcpEINtNtNtCs5VJ8GLlaEd8_5tonic6server7service12UnaryServiceNtBe_18DrKeyAsHostRequestE4call0Bi_
FN:1841,_RNCNvXININvXs_NtNtNtCsk5MUdMCAQgk_14scion_protobuf13control_plane2v128chain_renewal_service_serverINtBc_25ChainRenewalServiceServerpEINtCsamObgW7glvt_13tower_service7ServiceINtNtCsjYnxdl0q3X8_4http7request7RequestpEE4call0pEINtB7_15ChainRenewalSvcpEINtNtNtCs5VJ8GLlaEd8_5tonic6server7service12UnaryServiceNtBe_19ChainRenewalRequestE4call0Bi_
FN:2534,_RNCNvXININvXs_NtNtNtCsk5MUdMCAQgk_14scion_protobuf13control_plane2v129segment_lookup_service_serverINtBc_26SegmentLookupServiceServerpEINtCsamObgW7glvt_13tower_service7ServiceINtNtCsjYnxdl0q3X8_4http7request7RequestpEE4call0pEINtB7_11SegmentsSvcpEINtNtNtCs5VJ8GLlaEd8_5tonic6server7service12UnaryServiceNtBe_15SegmentsRequestE4call0Bi_
FN:333,_RNCNvXININvXs_NtNtNtCsk5MUdMCAQgk_14scion_protobuf13control_plane2v129trust_material_service_serverINtBc_26TrustMaterialServiceServerpEINtCsamObgW7glvt_13tower_service7ServiceINtNtCsjYnxdl0q3X8_4http7request7RequestpEE4call0pEINtB7_9ChainsSvcpEINtNtNtCs5VJ8GLlaEd8_5tonic6server7service12UnaryServiceNtBe_13ChainsRequestE4call0Bi_
FN:377,_RNCNvXININvXs_NtNtNtCsk5MUdMCAQgk_14scion_protobuf13control_plane2v129trust_material_service_serverINtBc_26TrustMaterialServiceServerpEINtCsamObgW7glvt_13tower_service7ServiceINtNtCsjYnxdl0q3X8_4http7request7RequestpEE4calls_0pEINtB7_6TRCSvcpEINtNtNtCs5VJ8GLlaEd8_5tonic6server7service12UnaryServiceNtBe_10TrcRequestE4call0Bi_
FN:3152,_RNCNvXININvXs_NtNtNtCsk5MUdMCAQgk_14scion_protobuf13control_plane2v131segment_creation_service_serverINtBc_28SegmentCreationServiceServerpEINtCsamObgW7glvt_13tower_service7ServiceINtNtCsjYnxdl0q3X8_4http7request7RequestpEE4call0pEINtB7_9BeaconSvcpEINtNtNtCs5VJ8GLlaEd8_5tonic6server7service12UnaryServiceNtBe_13BeaconRequestE4call0Bi_
FN:2845,_RNCNvXININvXs_NtNtNtCsk5MUdMCAQgk_14scion_protobuf13control_plane2v135segment_registration_service_serverINtBc_32SegmentRegistrationServiceServerpEINtCsamObgW7glvt_13tower_service7ServiceINtNtCsjYnxdl0q3X8_4http7request7RequestpEE4call0pEINtB7_23SegmentsRegistrationSvcpEINtNtNtCs5VJ8GLlaEd8_5tonic6server7service12UnaryServiceNtBe_27SegmentsRegistrationRequestE4call0Bi_
FN:2079,_RNvMNtNtCsk5MUdMCAQgk_14scion_protobuf13control_plane2v1NtB2_8LinkType11as_str_name
FN:2088,_RNvMNtNtCsk5MUdMCAQgk_14scion_protobuf13control_plane2v1NtB2_8LinkType13from_str_name
FN:794,_RNvMNtNtNtCsk5MUdMCAQgk_14scion_protobuf13control_plane2v127dr_key_inter_service_serverINtB2_23DrKeyInterServiceServerpE15send_compressedB8_
FN:788,_RNvMNtNtNtCsk5MUdMCAQgk_14scion_protobuf13control_plane2v127dr_key_inter_service_serverINtB2_23DrKeyInterServiceServerpE17accept_compressedB8_
FN:802,_RNvMNtNtNtCsk5MUdMCAQgk_14scion_protobuf13control_plane2v127dr_key_inter_service_serverINtB2_23DrKeyInterServiceServerpE25max_decoding_message_sizeB8_
FN:810,_RNvMNtNtNtCsk5MUdMCAQgk_14scion_protobuf13control_plane2v127dr_key_inter_service_serverINtB2_23DrKeyInterServiceServerpE25max_encoding_message_sizeB8_
FN:765,_RNvMNtNtNtCsk5MUdMCAQgk_14scion_protobuf13control_plane2v127dr_key_inter_service_serverINtB2_23DrKeyInterServiceServerpE3newB8_
FN:768,_RNvMNtNtNtCsk5MUdMCAQgk_14scion_protobuf13control_plane2v127dr_key_inter_service_serverINtB2_23DrKeyInterServiceServerpE8from_arcB8_
FN:1253,_RNvMNtNtNtCsk5MUdMCAQgk_14scion_protobuf13control_plane2v127dr_key_intra_service_serverINtB2_23DrKeyIntraServiceServerpE15send_compressedB8_
FN:1247,_RNvMNtNtNtCsk5MUdMCAQgk_14scion_protobuf13control_plane2v127dr_key_intra_service_serverINtB2_23DrKeyIntraServiceServerpE17accept_compressedB8_
FN:1261,_RNvMNtNtNtCsk5MUdMCAQgk_14scion_protobuf13control_plane2v127dr_key_intra_service_serverINtB2_23DrKeyIntraServiceServerpE25max_decoding_message_sizeB8_
FN:1269,_RNvMNtNtNtCsk5MUdMCAQgk_14scion_protobuf13control_plane2v127dr_key_intra_service_serverINtB2_23DrKeyIntraServiceServerpE25max_encoding_message_sizeB8_
FN:1224,_RNvMNtNtNtCsk5MUdMCAQgk_14scion_protobuf13control_plane2v127dr_key_intra_service_serverINtB2_23DrKeyIntraServiceServerpE3newB8_
FN:1227,_RNvMNtNtNtCsk5MUdMCAQgk_14scion_protobuf13control_plane2v127dr_key_intra_service_serverINtB2_23DrKeyIntraServiceServerpE8from_arcB8_
FN:1786,_RNvMNtNtNtCsk5MUdMCAQgk_14scion_protobuf13control_plane2v128chain_renewal_service_serverINtB2_25ChainRenewalServiceServerpE15send_compressedB8_
FN:1780,_RNvMNtNtNtCsk5MUdMCAQgk_14scion_protobuf13control_plane2v128chain_renewal_service_serverINtB2_25ChainRenewalServiceServerpE17accept_compressedB8_
FN:1794,_RNvMNtNtNtCsk5MUdMCAQgk_14scion_protobuf13control_plane2v128chain_renewal_service_serverINtB2_25ChainRenewalServiceServerpE25max_decoding_message_sizeB8_
FN:1802,_RNvMNtNtNtCsk5MUdMCAQgk_14scion_protobuf13control_plane2v128chain_renewal_service_serverINtB2_25ChainRenewalServiceServerpE25max_encoding_message_sizeB8_
FN:1757,_RNvMNtNtNtCsk5MUdMCAQgk_14scion_protobuf13control_plane2v128chain_renewal_service_serverINtB2_25ChainRenewalServiceServerpE3newB8_
FN:1760,_RNvMNtNtNtCsk5MUdMCAQgk_14scion_protobuf13control_plane2v128chain_renewal_service_serverINtB2_25ChainRenewalServiceServerpE8from_arcB8_
FN:2478,_RNvMNtNtNtCsk5MUdMCAQgk_14scion_protobuf13control_plane2v129segment_lookup_service_serverINtB2_26SegmentLookupServiceServerpE15send_compressedB8_
FN:2472,_RNvMNtNtNtCsk5MUdMCAQgk_14scion_protobuf13control_plane2v129segment_lookup_service_serverINtB2_26SegmentLookupServiceServerpE17accept_compressedB8_
FN:2486,_RNvMNtNtNtCsk5MUdMCAQgk_14scion_protobuf13control_plane2v129segment_lookup_service_serverINtB2_26SegmentLookupServiceServerpE25max_decoding_message_sizeB8_
FN:2494,_RNvMNtNtNtCsk5MUdMCAQgk_14scion_protobuf13control_plane2v129segment_lookup_service_serverINtB2_26SegmentLookupServiceServerpE25max_encoding_message_sizeB8_
FN:2449,_RNvMNtNtNtCsk5MUdMCAQgk_14scion_protobuf13control_plane2v129segment_lookup_service_serverINtB2_26SegmentLookupServiceServerpE3newB8_
FN:2452,_RNvMNtNtNtCsk5MUdMCAQgk_14scion_protobuf13control_plane2v129segment_lookup_service_serverINtB2_26SegmentLookupServiceServerpE8from_arcB8_
FN:277,_RNvMNtNtNtCsk5MUdMCAQgk_14scion_protobuf13control_plane2v129trust_material_service_serverINtB2_26TrustMaterialServiceServerpE15send_compressedB8_
FN:271,_RNvMNtNtNtCsk5MUdMCAQgk_14scion_protobuf13control_plane2v129trust_material_service_serverINtB2_26TrustMaterialServiceServerpE17accept_compressedB8_
FN:285,_RNvMNtNtNtCsk5MUdMCAQgk_14scion_protobuf13control_plane2v129trust_material_service_serverINtB2_26TrustMaterialServiceServerpE25max_decoding_message_sizeB8_
FN:293,_RNvMNtNtNtCsk5MUdMCAQgk_14scion_protobuf13control_plane2v129trust_material_service_serverINtB2_26TrustMaterialServiceServerpE25max_encoding_message_sizeB8_
FN:248,_RNvMNtNtNtCsk5MUdMCAQgk_14scion_protobuf13control_plane2v129trust_material_service_serverINtB2_26TrustMaterialServiceServerpE3newB8_
FN:251,_RNvMNtNtNtCsk5MUdMCAQgk_14scion_protobuf13control_plane2v129trust_material_service_serverINtB2_26TrustMaterialServiceServerpE8from_arcB8_
FN:3096,_RNvMNtNtNtCsk5MUdMCAQgk_14scion_protobuf13control_plane2v131segment_creation_service_serverINtB2_28SegmentCreationServiceServerpE15send_compressedB8_
FN:3090,_RNvMNtNtNtCsk5MUdMCAQgk_14scion_protobuf13control_plane2v131segment_creation_service_serverINtB2_28SegmentCreationServiceServerpE17accept_compressedB8_
FN:3104,_RNvMNtNtNtCsk5MUdMCAQgk_14scion_protobuf13control_plane2v131segment_creation_service_serverINtB2_28SegmentCreationServiceServerpE25max_decoding_message_sizeB8_
FN:3112,_RNvMNtNtNtCsk5MUdMCAQgk_14scion_protobuf13control_plane2v131segment_creation_service_serverINtB2_28SegmentCreationServiceServerpE25max_encoding_message_sizeB8_
FN:3067,_RNvMNtNtNtCsk5MUdMCAQgk_14scion_protobuf13control_plane2v131segment_creation_service_serverINtB2_28SegmentCreationServiceServerpE3newB8_
FN:3070,_RNvMNtNtNtCsk5MUdMCAQgk_14scion_protobuf13control_plane2v131segment_creation_service_serverINtB2_28SegmentCreationServiceServerpE8from_arcB8_
FN:2787,_RNvMNtNtNtCsk5MUdMCAQgk_14scion_protobuf13control_plane2v135segment_registration_service_serverINtB2_32SegmentRegistrationServiceServerpE15send_compressedB8_
FN:2781,_RNvMNtNtNtCsk5MUdMCAQgk_14scion_protobuf13control_plane2v135segment_registration_service_serverINtB2_32SegmentRegistrationServiceServerpE17accept_compressedB8_
FN:2795,_RNvMNtNtNtCsk5MUdMCAQgk_14scion_protobuf13control_plane2v135segment_registration_service_serverINtB2_32SegmentRegistrationServiceServerpE25max_decoding_message_sizeB8_
FN:2803,_RNvMNtNtNtCsk5MUdMCAQgk_14scion_protobuf13control_plane2v135segment_registration_service_serverINtB2_32SegmentRegistrationServiceServerpE25max_encoding_message_sizeB8_
FN:2758,_RNvMNtNtNtCsk5MUdMCAQgk_14scion_protobuf13control_plane2v135segment_registration_service_serverINtB2_32SegmentRegistrationServiceServerpE3newB8_
FN:2761,_RNvMNtNtNtCsk5MUdMCAQgk_14scion_protobuf13control_plane2v135segment_registration_service_serverINtB2_32SegmentRegistrationServiceServerpE8from_arcB8_
FN:2276,_RNvMs_NtNtCsk5MUdMCAQgk_14scion_protobuf13control_plane2v1NtB4_11SegmentType11as_str_name
FN:2285,_RNvMs_NtNtCsk5MUdMCAQgk_14scion_protobuf13control_plane2v1NtB4_11SegmentType13from_str_name
FN:648,_RNvMs_NtNtNtCsk5MUdMCAQgk_14scion_protobuf13control_plane2v127dr_key_inter_service_clientINtB4_23DrKeyInterServiceClientpE11with_originBa_
FN:676,_RNvMs_NtNtNtCsk5MUdMCAQgk_14scion_protobuf13control_plane2v127dr_key_inter_service_clientINtB4_23DrKeyInterServiceClientpE15send_compressedBa_
FN:682,_RNvMs_NtNtNtCsk5MUdMCAQgk_14scion_protobuf13control_plane2v127dr_key_inter_service_clientINtB4_23DrKeyInterServiceClientpE17accept_compressedBa_
FN:690,_RNvMs_NtNtNtCsk5MUdMCAQgk_14scion_protobuf13control_plane2v127dr_key_inter_service_clientINtB4_23DrKeyInterServiceClientpE25max_decoding_message_sizeBa_
FN:698,_RNvMs_NtNtNtCsk5MUdMCAQgk_14scion_protobuf13control_plane2v127dr_key_inter_service_clientINtB4_23DrKeyInterServiceClientpE25max_encoding_message_sizeBa_
FN:644,_RNvMs_NtNtNtCsk5MUdMCAQgk_14scion_protobuf13control_plane2v127dr_key_inter_service_clientINtB4_23DrKeyInterServiceClientpE3newBa_
FN:955,_RNvMs_NtNtNtCsk5MUdMCAQgk_14scion_protobuf13control_plane2v127dr_key_intra_service_clientINtB4_23DrKeyIntraServiceClientpE11with_originBa_
FN:983,_RNvMs_NtNtNtCsk5MUdMCAQgk_14scion_protobuf13control_plane2v127dr_key_intra_service_clientINtB4_23DrKeyIntraServiceClientpE15send_compressedBa_
FN:989,_RNvMs_NtNtNtCsk5MUdMCAQgk_14scion_protobuf13control_plane2v127dr_key_intra_service_clientINtB4_23DrKeyIntraServiceClientpE17accept_compressedBa_
FN:997,_RNvMs_NtNtNtCsk5MUdMCAQgk_14scion_protobuf13control_plane2v127dr_key_intra_service_clientINtB4_23DrKeyIntraServiceClientpE25max_decoding_message_sizeBa_
FN:1005,_RNvMs_NtNtNtCsk5MUdMCAQgk_14scion_protobuf13control_plane2v127dr_key_intra_service_clientINtB4_23DrKeyIntraServiceClientpE25max_encoding_message_sizeBa_
FN:951,_RNvMs_NtNtNtCsk5MUdMCAQgk_14scion_protobuf13control_plane2v127dr_key_intra_service_clientINtB4_23DrKeyIntraServiceClientpE3newBa_
FN:1640,_RNvMs_NtNtNtCsk5MUdMCAQgk_14scion_protobuf13control_plane2v128chain_renewal_service_clientINtB4_25ChainRenewalServiceClientpE11with_originBa_
FN:1668,_RNvMs_NtNtNtCsk5MUdMCAQgk_14scion_protobuf13control_plane2v128chain_renewal_service_clientINtB4_25ChainRenewalServiceClientpE15send_compressedBa_
FN:1674,_RNvMs_NtNtNtCsk5MUdMCAQgk_14scion_protobuf13control_plane2v128chain_renewal_service_clientINtB4_25ChainRenewalServiceClientpE17accept_compressedBa_
FN:1682,_RNvMs_NtNtNtCsk5MUdMCAQgk_14scion_protobuf13control_plane2v128chain_renewal_service_clientINtB4_25ChainRenewalServiceClientpE25max_decoding_message_sizeBa_
FN:1690,_RNvMs_NtNtNtCsk5MUdMCAQgk_14scion_protobuf13control_plane2v128chain_renewal_service_clientINtB4_25ChainRenewalServiceClientpE25max_encoding_message_sizeBa_
FN:1636,_RNvMs_NtNtNtCsk5MUdMCAQgk_14scion_protobuf13control_plane2v128chain_renewal_service_clientINtB4_25ChainRenewalServiceClientpE3newBa_
FN:2332,_RNvMs_NtNtNtCsk5MUdMCAQgk_14scion_protobuf13control_plane2v129segment_lookup_service_clientINtB4_26SegmentLookupServiceClientpE11with_originBa_
FN:2360,_RNvMs_NtNtNtCsk5MUdMCAQgk_14scion_protobuf13control_plane2v129segment_lookup_service_clientINtB4_26SegmentLookupServiceClientpE15send_compressedBa_
FN:2366,_RNvMs_NtNtNtCsk5MUdMCAQgk_14scion_protobuf13control_plane2v129segment_lookup_service_clientINtB4_26SegmentLookupServiceClientpE17accept_compressedBa_
FN:2374,_RNvMs_NtNtNtCsk5MUdMCAQgk_14scion_protobuf13control_plane2v129segment_lookup_service_clientINtB4_26SegmentLookupServiceClientpE25max_decoding_message_sizeBa_
FN:2382,_RNvMs_NtNtNtCsk5MUdMCAQgk_14scion_protobuf13control_plane2v129segment_lookup_service_clientINtB4_26SegmentLookupServiceClientpE25max_encoding_message_sizeBa_
FN:2328,_RNvMs_NtNtNtCsk5MUdMCAQgk_14scion_protobuf13control_plane2v129segment_lookup_service_clientINtB4_26SegmentLookupServiceClientpE3newBa_
FN:108,_RNvMs_NtNtNtCsk5MUdMCAQgk_14scion_protobuf13control_plane2v129trust_material_service_clientINtB4_26TrustMaterialServiceClientpE11with_originBa_
FN:136,_RNvMs_NtNtNtCsk5MUdMCAQgk_14scion_protobuf13control_plane2v129trust_material_service_clientINtB4_26TrustMaterialServiceClientpE15send_compressedBa_
FN:142,_RNvMs_NtNtNtCsk5MUdMCAQgk_14scion_protobuf13control_plane2v129trust_material_service_clientINtB4_26TrustMaterialServiceClientpE17accept_compressedBa_
FN:150,_RNvMs_NtNtNtCsk5MUdMCAQgk_14scion_protobuf13control_plane2v129trust_material_service_clientINtB4_26TrustMaterialServiceClientpE25max_decoding_message_sizeBa_
FN:158,_RNvMs_NtNtNtCsk5MUdMCAQgk_14scion_protobuf13control_plane2v129trust_material_service_clientINtB4_26TrustMaterialServiceClientpE25max_encoding_message_sizeBa_
FN:104,_RNvMs_NtNtNtCsk5MUdMCAQgk_14scion_protobuf13control_plane2v129trust_material_service_clientINtB4_26TrustMaterialServiceClientpE3newBa_
FN:2954,_RNvMs_NtNtNtCsk5MUdMCAQgk_14scion_protobuf13control_plane2v131segment_creation_service_clientINtB4_28SegmentCreationServiceClientpE11with_originBa_
FN:2984,_RNvMs_NtNtNtCsk5MUdMCAQgk_14scion_protobuf13control_plane2v131segment_creation_service_clientINtB4_28SegmentCreationServiceClientpE15send_compressedBa_
FN:2990,_RNvMs_NtNtNtCsk5MUdMCAQgk_14scion_protobuf13control_plane2v131segment_creation_service_clientINtB4_28SegmentCreationServiceClientpE17accept_compressedBa_
FN:2998,_RNvMs_NtNtNtCsk5MUdMCAQgk_14scion_protobuf13control_plane2v131segment_creation_service_clientINtB4_28SegmentCreationServiceClientpE25max_decoding_message_sizeBa_
FN:3006,_RNvMs_NtNtNtCsk5MUdMCAQgk_14scion_protobuf13control_plane2v131segment_creation_service_clientINtB4_28SegmentCreationServiceClientpE25max_encoding_message_sizeBa_
FN:2950,_RNvMs_NtNtNtCsk5MUdMCAQgk_14scion_protobuf13control_plane2v131segment_creation_service_clientINtB4_28SegmentCreationServiceClientpE3newBa_
FN:2639,_RNvMs_NtNtNtCsk5MUdMCAQgk_14scion_protobuf13control_plane2v135segment_registration_service_clientINtB4_32SegmentRegistrationServiceClientpE11with_originBa_
FN:2669,_RNvMs_NtNtNtCsk5MUdMCAQgk_14scion_protobuf13control_plane2v135segment_registration_service_clientINtB4_32SegmentRegistrationServiceClientpE15send_compressedBa_
FN:2675,_RNvMs_NtNtNtCsk5MUdMCAQgk_14scion_protobuf13control_plane2v135segment_registration_service_clientINtB4_32SegmentRegistrationServiceClientpE17accept_compressedBa_
FN:2683,_RNvMs_NtNtNtCsk5MUdMCAQgk_14scion_protobuf13control_plane2v135segment_registration_service_clientINtB4_32SegmentRegistrationServiceClientpE25max_decoding_message_sizeBa_
FN:2691,_RNvMs_NtNtNtCsk5MUdMCAQgk_14scion_protobuf13control_plane2v135segment_registration_service_clientINtB4_32SegmentRegistrationServiceClientpE25max_encoding_message_sizeBa_
FN:2635,_RNvMs_NtNtNtCsk5MUdMCAQgk_14scion_protobuf13control_plane2v135segment_registration_service_clientINtB4_32SegmentRegistrationServiceClientpE3newBa_
FN:901,_RNvXININtNtNtCsk5MUdMCAQgk_14scion_protobuf13control_plane2v127dr_key_inter_service_servers0_0pEINtB5_23DrKeyInterServiceServerpENtNtCs4eoa8Adtn6U_4core5clone5Clone5cloneBb_
FN:824,_RNvXININtNtNtCsk5MUdMCAQgk_14scion_protobuf13control_plane2v127dr_key_inter_service_servers_0ppEINtB5_23DrKeyInterServiceServerpEINtCsamObgW7glvt_13tower_service7ServiceINtNtCsjYnxdl0q3X8_4http7request7RequestpEE10poll_readyBb_
FN:830,_RNvXININtNtNtCsk5MUdMCAQgk_14scion_protobuf13control_plane2v127dr_key_inter_service_servers_0ppEINtB5_23DrKeyInterServiceServerpEINtCsamObgW7glvt_13tower_service7ServiceINtNtCsjYnxdl0q3X8_4http7request7RequestpEE4callBb_
FN:1550,_RNvXININtNtNtCsk5MUdMCAQgk_14scion_protobuf13control_plane2v127dr_key_intra_service_servers0_0pEINtB5_23DrKeyIntraServiceServerpENtNtCs4eoa8Adtn6U_4core5clone5Clone5cloneBb_
FN:1283,_RNvXININtNtNtCsk5MUdMCAQgk_14scion_protobuf13control_plane2v127dr_key_intra_service_servers_0ppEINtB5_23DrKeyIntraServiceServerpEINtCsamObgW7glvt_13tower_service7ServiceINtNtCsjYnxdl0q3X8_4http7request7RequestpEE10poll_readyBb_
FN:1289,_RNvXININtNtNtCsk5MUdMCAQgk_14scion_protobuf13control_plane2v127dr_key_intra_service_servers_0ppEINtB5_23DrKeyIntraServiceServerpEINtCsamObgW7glvt_13tower_service7ServiceINtNtCsjYnxdl0q3X8_4http7request7RequestpEE4callBb_
FN:1893,_RNvXININtNtNtCsk5MUdMCAQgk_14scion_protobuf13control_plane2v128chain_renewal_service_servers0_0pEINtB5_25ChainRenewalServiceServerpENtNtCs4eoa8Adtn6U_4core5clone5Clone5cloneBb_
FN:1816,_RNvXININtNtNtCsk5MUdMCAQgk_14scion_protobuf13control_plane2v128chain_renewal_service_servers_0ppEINtB5_25ChainRenewalServiceServerpEINtCsamObgW7glvt_13tower_service7ServiceINtNtCsjYnxdl0q3X8_4http7request7RequestpEE10poll_readyBb_
FN:1822,_RNvXININtNtNtCsk5MUdMCAQgk_14scion_protobuf13control_plane2v128chain_renewal_service_servers_0ppEINtB5_25ChainRenewalServiceServerpEINtCsamObgW7glvt_13tower_service7ServiceINtNtCsjYnxdl0q3X8_4http7request7RequestpEE4callBb_
FN:2585,_RNvXININtNtNtCsk5MUdMCAQgk_14scion_protobuf13control_plane2v129segment_lookup_service_servers0_0pEINtB5_26SegmentLookupServiceServerpENtNtCs4eoa8Adtn6U_4core5clone5Clone5cloneBb_
FN:2509,_RNvXININtNtNtCsk5MUdMCAQgk_14scion_protobuf13control_plane2v129segment_lookup_service_servers_0ppEINtB5_26SegmentLookupServiceServerpEINtCsamObgW7glvt_13tower_service7ServiceINtNtCsjYnxdl0q3X8_4http7request7RequestpEE10poll_readyBb_
FN:2515,_RNvXININtNtNtCsk5MUdMCAQgk_14scion_protobuf13control_plane2v129segment_lookup_service_servers_0ppEINtB5_26SegmentLookupServiceServerpEINtCsamObgW7glvt_13tower_service7ServiceINtNtCsjYnxdl0q3X8_4http7request7RequestpEE4callBb_
FN:428,_RNvXININtNtNtCsk5MUdMCAQgk_14scion_protobuf13control_plane2v129trust_material_service_servers0_0pEINtB5_26TrustMaterialServiceServerpENtNtCs4eoa8Adtn6U_4core5clone5Clone5cloneBb_
FN:308,_RNvXININtNtNtCsk5MUdMCAQgk_14scion_protobuf13control_plane2v129trust_material_service_servers_0ppEINtB5_26TrustMaterialServiceServerpEINtCsamObgW7glvt_13tower_service7ServiceINtNtCsjYnxdl0q3X8_4http7request7RequestpEE10poll_readyBb_
FN:314,_RNvXININtNtNtCsk5MUdMCAQgk_14scion_protobuf13control_plane2v129trust_material_service_servers_0ppEINtB5_26TrustMaterialServiceServerpEINtCsamObgW7glvt_13tower_service7ServiceINtNtCsjYnxdl0q3X8_4http7request7RequestpEE4callBb_
FN:3203,_RNvXININtNtNtCsk5MUdMCAQgk_14scion_protobuf13control_plane2v131segment_creation_service_servers0_0pEINtB5_28SegmentCreationServiceServerpENtNtCs4eoa8Adtn6U_4core5clone5Clone5cloneBb_
FN:3127,_RNvXININtNtNtCsk5MUdMCAQgk_14scion_protobuf13control_plane2v131segment_creation_service_servers_0ppEINtB5_28SegmentCreationServiceServerpEINtCsamObgW7glvt_13tower_service7ServiceINtNtCsjYnxdl0q3X8_4http7request7RequestpEE10poll_readyBb_
FN:3133,_RNvXININtNtNtCsk5MUdMCAQgk_14scion_protobuf13control_plane2v131segment_creation_service_servers_0ppEINtB5_28SegmentCreationServiceServerpEINtCsamObgW7glvt_13tower_service7ServiceINtNtCsjYnxdl0q3X8_4http7request7RequestpEE4callBb_
FN:2900,_RNvXININtNtNtCsk5MUdMCAQgk_14scion_protobuf13control_plane2v135segment_registration_service_servers0_0pEINtB5_32SegmentRegistrationServiceServerpENtNtCs4eoa8Adtn6U_4core5clone5Clone5cloneBb_
FN:2818,_RNvXININtNtNtCsk5MUdMCAQgk_14scion_protobuf13control_plane2v135segment_registration_service_servers_0ppEINtB5_32SegmentRegistrationServiceServerpEINtCsamObgW7glvt_13tower_service7ServiceINtNtCsjYnxdl0q3X8_4http7request7RequestpEE10poll_readyBb_
FN:2824,_RNvXININtNtNtCsk5MUdMCAQgk_14scion_protobuf13control_plane2v135segment_registration_service_servers_0ppEINtB5_32SegmentRegistrationServiceServerpEINtCsamObgW7glvt_13tower_service7ServiceINtNtCsjYnxdl0q3X8_4http7request7RequestpEE4callBb_
FN:844,_RNvXININvXs_NtNtNtCsk5MUdMCAQgk_14scion_protobuf13control_plane2v127dr_key_inter_service_serverINtBa_23DrKeyInterServiceServerpEINtCsamObgW7glvt_13tower_service7ServiceINtNtCsjYnxdl0q3X8_4http7request7RequestpEE4call0pEINtB5_14DRKeyLevel1SvcpEINtNtNtCs5VJ8GLlaEd8_5tonic6server7service12UnaryServiceNtBc_18DrKeyLevel1RequestE4callBg_
FN:1303,_RNvXININvXs_NtNtNtCsk5MUdMCAQgk_14scion_protobuf13control_plane2v127dr_key_intra_service_serverINtBa_23DrKeyIntraServiceServerpEINtCsamObgW7glvt_13tower_service7ServiceINtNtCsjYnxdl0q3X8_4http7request7RequestpEE4call0pEINtB5_19DRKeyIntraLevel1SvcpEINtNtNtCs5VJ8GLlaEd8_5tonic6server7service12UnaryServiceNtBc_23DrKeyIntraLevel1RequestE4callBg_
FN:1398,_RNvXININvXs_NtNtNtCsk5MUdMCAQgk_14scion_protobuf13control_plane2v127dr_key_intra_service_serverINtBa_23DrKeyIntraServiceServerpEINtCsamObgW7glvt_13tower_service7ServiceINtNtCsjYnxdl0q3X8_4http7request7RequestpEE4calls0_0pEINtB5_14DRKeyHostASSvcpEINtNtNtCs5VJ8GLlaEd8_5tonic6server7service12UnaryServiceNtBc_18DrKeyHostAsRequestE4callBg_
FN:1444,_RNvXININvXs_NtNtNtCsk5MUdMCAQgk_14scion_protobuf13control_plane2v127dr_key_intra_service_serverINtBa_23DrKeyIntraServiceServerpEINtCsamObgW7glvt_13tower_service7ServiceINtNtCsjYnxdl0q3X8_4http7request7RequestpEE4calls1_0pEINtB5_16DRKeyHostHostSvcpEINtNtNtCs5VJ8GLlaEd8_5tonic6server7service12UnaryServiceNtBc_20DrKeyHostHostRequestE4callBg_
FN:1490,_RNvXININvXs_NtNtNtCsk5MUdMCAQgk_14scion_protobuf13control_plane2v127dr_key_intra_service_serverINtBa_23DrKeyIntraServiceServerpEINtCsamObgW7glvt_13tower_service7ServiceINtNtCsjYnxdl0q3X8_4http7request7RequestpEE4calls2_0pEINtB5_19DRKeySecretValueSvcpEINtNtNtCs5VJ8GLlaEd8_5tonic6server7service12UnaryServiceNtBc_23DrKeySecretValueRequestE4callBg_
FN:1352,_RNvXININvXs_NtNtNtCsk5MUdMCAQgk_14scion_protobuf13control_plane2v127dr_key_intra_service_serverINtBa_23DrKeyIntraServiceServerpEINtCsamObgW7glvt_13tower_service7ServiceINtNtCsjYnxdl0q3X8_4http7request7RequestpEE4calls_0pEINtB5_14DRKeyASHostSvcpEINtNtNtCs5VJ8GLlaEd8_5tonic6server7service12UnaryServiceNtBc_18DrKeyAsHostRequestE4callBg_
FN:1836,_RNvXININvXs_NtNtNtCsk5MUdMCAQgk_14scion_protobuf13control_plane2v128chain_renewal_service_serverINtBa_25ChainRenewalServiceServerpEINtCsamObgW7glvt_13tower_service7ServiceINtNtCsjYnxdl0q3X8_4http7request7RequestpEE4call0pEINtB5_15ChainRenewalSvcpEINtNtNtCs5VJ8GLlaEd8_5tonic6server7service12UnaryServiceNtBc_19ChainRenewalRequestE4callBg_
FN:2529,_RNvXININvXs_NtNtNtCsk5MUdMCAQgk_14scion_protobuf13control_plane2v129segment_lookup_service_serverINtBa_26SegmentLookupServiceServerpEINtCsamObgW7glvt_13tower_service7ServiceINtNtCsjYnxdl0q3X8_4http7request7RequestpEE4call0pEINtB5_11SegmentsSvcpEINtNtNtCs5VJ8GLlaEd8_5tonic6server7service12UnaryServiceNtBc_15SegmentsRequestE4callBg_
FN:328,_RNvXININvXs_NtNtNtCsk5MUdMCAQgk_14scion_protobuf13control_plane2v129trust_material_service_serverINtBa_26TrustMaterialServiceServerpEINtCsamObgW7glvt_13tower_service7ServiceINtNtCsjYnxdl0q3X8_4http7request7RequestpEE4call0pEINtB5_9ChainsSvcpEINtNtNtCs5VJ8GLlaEd8_5tonic6server7service12UnaryServiceNtBc_13ChainsRequestE4callBg_
FN:372,_RNvXININvXs_NtNtNtCsk5MUdMCAQgk_14scion_protobuf13control_plane2v129trust_material_service_serverINtBa_26TrustMaterialServiceServerpEINtCsamObgW7glvt_13tower_service7ServiceINtNtCsjYnxdl0q3X8_4http7request7RequestpEE4calls_0pEINtB5_6TRCSvcpEINtNtNtCs5VJ8GLlaEd8_5tonic6server7service12UnaryServiceNtBc_10TrcRequestE4callBg_
FN:3147,_RNvXININvXs_NtNtNtCsk5MUdMCAQgk_14scion_protobuf13control_plane2v131segment_creation_service_serverINtBa_28SegmentCreationServiceServerpEINtCsamObgW7glvt_13tower_service7ServiceINtNtCsjYnxdl0q3X8_4http7request7RequestpEE4call0pEINtB5_9BeaconSvcpEINtNtNtCs5VJ8GLlaEd8_5tonic6server7service12UnaryServiceNtBc_13BeaconRequestE4callBg_
FN:2840,_RNvXININvXs_NtNtNtCsk5MUdMCAQgk_14scion_protobuf13control_plane2v135segment_registration_service_serverINtBa_32SegmentRegistrationServiceServerpEINtCsamObgW7glvt_13tower_service7ServiceINtNtCsjYnxdl0q3X8_4http7request7RequestpEE4call0pEINtB5_23SegmentsRegistrationSvcpEINtNtNtCs5VJ8GLlaEd8_5tonic6server7service12UnaryServiceNtBc_27SegmentsRegistrationRequestE4callBg_
FNDA:0,_RINvMNtNtNtCsk5MUdMCAQgk_14scion_protobuf13control_plane2v127dr_key_inter_service_clientINtB3_23DrKeyInterServiceClientNtNtNtCs5VJ8GLlaEd8_5tonic9transport7channel7ChannelE7connectpEB9_
FNDA:0,_RINvMNtNtNtCsk5MUdMCAQgk_14scion_protobuf13control_plane2v127dr_key_inter_service_serverINtB3_23DrKeyInterServiceServerpE16with_interceptorpEB9_
FNDA:0,_RINvMNtNtNtCsk5MUdMCAQgk_14scion_protobuf13control_plane2v127dr_key_intra_service_clientINtB3_23DrKeyIntraServiceClientNtNtNtCs5VJ8GLlaEd8_5tonic9transport7channel7ChannelE7connectpEB9_
FNDA:0,_RINvMNtNtNtCsk5MUdMCAQgk_14scion_protobuf13control_plane2v127dr_key_intra_service_serverINtB3_23DrKeyIntraServiceServerpE16with_interceptorpEB9_
FNDA:0,_RINvMNtNtNtCsk5MUdMCAQgk_14scion_protobuf13control_plane2v128chain_renewal_service_clientINtB3_25ChainRenewalServiceClientNtNtNtCs5VJ8GLlaEd8_5tonic9transport7channel7ChannelE7connectpEB9_
FNDA:0,_RINvMNtNtNtCsk5MUdMCAQgk_14scion_protobuf13control_plane2v128chain_renewal_service_serverINtB3_25ChainRenewalServiceServerpE16with_interceptorpEB9_
FNDA:0,_RINvMNtNtNtCsk5MUdMCAQgk_14scion_protobuf13control_plane2v129segment_lookup_service_clientINtB3_26SegmentLookupServiceClientNtNtNtCs5VJ8GLlaEd8_5tonic9transport7channel7ChannelE7connectpEB9_
FNDA:0,_RINvMNtNtNtCsk5MUdMCAQgk_14scion_protobuf13control_plane2v129segment_lookup_service_serverINtB3_26SegmentLookupServiceServerpE16with_interceptorpEB9_
FNDA:0,_RINvMNtNtNtCsk5MUdMCAQgk_14scion_protobuf13control_plane2v129trust_material_service_clientINtB3_26TrustMaterialServiceClientNtNtNtCs5VJ8GLlaEd8_5tonic9transport7channel7ChannelE7connectpEB9_
FNDA:0,_RINvMNtNtNtCsk5MUdMCAQgk_14scion_protobuf13control_plane2v129trust_material_service_serverINtB3_26TrustMaterialServiceServerpE16with_interceptorpEB9_
FNDA:0,_RINvMNtNtNtCsk5MUdMCAQgk_14scion_protobuf13control_plane2v131segment_creation_service_clientINtB3_28SegmentCreationServiceClientNtNtNtCs5VJ8GLlaEd8_5tonic9transport7channel7ChannelE7connectpEB9_
FNDA:0,_RINvMNtNtNtCsk5MUdMCAQgk_14scion_protobuf13control_plane2v131segment_creation_service_serverINtB3_28SegmentCreationServiceServerpE16with_interceptorpEB9_
FNDA:0,_RINvMNtNtNtCsk5MUdMCAQgk_14scion_protobuf13control_plane2v135segment_registration_service_clientINtB3_32SegmentRegistrationServiceClientNtNtNtCs5VJ8GLlaEd8_5tonic9transport7channel7ChannelE7connectpEB9_
FNDA:0,_RINvMNtNtNtCsk5MUdMCAQgk_14scion_protobuf13control_plane2v135segment_registration_service_serverINtB3_32SegmentRegistrationServiceServerpE16with_interceptorpEB9_
FNDA:0,_RINvMs_NtNtNtCsk5MUdMCAQgk_14scion_protobuf13control_plane2v127dr_key_inter_service_clientINtB5_23DrKeyInterServiceClientpE13dr_key_level1pEBb_
FNDA:0,_RINvMs_NtNtNtCsk5MUdMCAQgk_14scion_protobuf13control_plane2v127dr_key_inter_service_clientINtB5_23DrKeyInterServiceClientpE16with_interceptorpEBb_
FNDA:0,_RINvMs_NtNtNtCsk5MUdMCAQgk_14scion_protobuf13control_plane2v127dr_key_intra_service_clientINtB5_23DrKeyIntraServiceClientpE14dr_key_as_hostpEBb_
FNDA:0,_RINvMs_NtNtNtCsk5MUdMCAQgk_14scion_protobuf13control_plane2v127dr_key_intra_service_clientINtB5_23DrKeyIntraServiceClientpE14dr_key_host_aspEBb_
FNDA:0,_RINvMs_NtNtNtCsk5MUdMCAQgk_14scion_protobuf13control_plane2v127dr_key_intra_service_clientINtB5_23DrKeyIntraServiceClientpE16dr_key_host_hostpEBb_
FNDA:0,_RINvMs_NtNtNtCsk5MUdMCAQgk_14scion_protobuf13control_plane2v127dr_key_intra_service_clientINtB5_23DrKeyIntraServiceClientpE16with_interceptorpEBb_
FNDA:0,_RINvMs_NtNtNtCsk5MUdMCAQgk_14scion_protobuf13control_plane2v127dr_key_intra_service_clientINtB5_23DrKeyIntraServiceClientpE19dr_key_intra_level1pEBb_
FNDA:0,_RINvMs_NtNtNtCsk5MUdMCAQgk_14scion_protobuf13control_plane2v127dr_key_intra_service_clientINtB5_23DrKeyIntraServiceClientpE19dr_key_secret_valuepEBb_
FNDA:0,_RINvMs_NtNtNtCsk5MUdMCAQgk_14scion_protobuf13control_plane2v128chain_renewal_service_clientINtB5_25ChainRenewalServiceClientpE13chain_renewalpEBb_
FNDA:0,_RINvMs_NtNtNtCsk5MUdMCAQgk_14scion_protobuf13control_plane2v128chain_renewal_service_clientINtB5_25ChainRenewalServiceClientpE16with_interceptorpEBb_
FNDA:0,_RINvMs_NtNtNtCsk5MUdMCAQgk_14scion_protobuf13control_plane2v129segment_lookup_service_clientINtB5_26SegmentLookupServiceClientpE16with_interceptorpEBb_
FNDA:0,_RINvMs_NtNtNtCsk5MUdMCAQgk_14scion_protobuf13control_plane2v129segment_lookup_service_clientINtB5_26SegmentLookupServiceClientpE8segmentspEBb_
FNDA:0,_RINvMs_NtNtNtCsk5MUdMCAQgk_14scion_protobuf13control_plane2v129trust_material_service_clientINtB5_26TrustMaterialServiceClientpE16with_interceptorpEBb_
FNDA:0,_RINvMs_NtNtNtCsk5MUdMCAQgk_14scion_protobuf13control_plane2v129trust_material_service_clientINtB5_26TrustMaterialServiceClientpE3trcpEBb_
FNDA:0,_RINvMs_NtNtNtCsk5MUdMCAQgk_14scion_protobuf13control_plane2v129trust_material_service_clientINtB5_26TrustMaterialServiceClientpE6chainspEBb_
FNDA:0,_RINvMs_NtNtNtCsk5MUdMCAQgk_14scion_protobuf13control_plane2v131segment_creation_service_clientINtB5_28SegmentCreationServiceClientpE16with_interceptorpEBb_
FNDA:0,_RINvMs_NtNtNtCsk5MUdMCAQgk_14scion_protobuf13control_plane2v131segment_creation_service_clientINtB5_28SegmentCreationServiceClientpE6beaconpEBb_
FNDA:0,_RINvMs_NtNtNtCsk5MUdMCAQgk_14scion_protobuf13control_plane2v135segment_registration_service_clientINtB5_32SegmentRegistrationServiceClientpE16with_interceptorpEBb_
FNDA:0,_RINvMs_NtNtNtCsk5MUdMCAQgk_14scion_protobuf13control_plane2v135segment_registration_service_clientINtB5_32SegmentRegistrationServiceClientpE21segments_registrationpEBb_
FNDA:0,_RNCINvMNtNtNtCsk5MUdMCAQgk_14scion_protobuf13control_plane2v127dr_key_inter_service_clientINtB5_23DrKeyInterServiceClientNtNtNtCs5VJ8GLlaEd8_5tonic9transport7channel7ChannelE7connectpE0Bb_
FNDA:0,_RNCINvMNtNtNtCsk5MUdMCAQgk_14scion_protobuf13control_plane2v127dr_key_intra_service_clientINtB5_23DrKeyIntraServiceClientNtNtNtCs5VJ8GLlaEd8_5tonic9transport7channel7ChannelE7connectpE0Bb_
FNDA:0,_RNCINvMNtNtNtCsk5MUdMCAQgk_14scion_protobuf13control_plane2v128chain_renewal_service_clientINtB5_25ChainRenewalServiceClientNtNtNtCs5VJ8GLlaEd8_5tonic9transport7channel7ChannelE7connectpE0Bb_
FNDA:0,_RNCINvMNtNtNtCsk5MUdMCAQgk_14scion_protobuf13control_plane2v129segment_lookup_service_clientINtB5_26SegmentLookupServiceClientNtNtNtCs5VJ8GLlaEd8_5tonic9transport7channel7ChannelE7connectpE0Bb_
FNDA:0,_RNCINvMNtNtNtCsk5MUdMCAQgk_14scion_protobuf13control_plane2v129trust_material_service_clientINtB5_26TrustMaterialServiceClientNtNtNtCs5VJ8GLlaEd8_5tonic9transport7channel7ChannelE7connectpE0Bb_
FNDA:0,_RNCINvMNtNtNtCsk5MUdMCAQgk_14scion_protobuf13control_plane2v131segment_creation_service_clientINtB5_28SegmentCreationServiceClientNtNtNtCs5VJ8GLlaEd8_5tonic9transport7channel7ChannelE7connectpE0Bb_
FNDA:0,_RNCINvMNtNtNtCsk5MUdMCAQgk_14scion_protobuf13control_plane2v135segment_registration_service_clientINtB5_32SegmentRegistrationServiceClientNtNtNtCs5VJ8GLlaEd8_5tonic9transport7channel7ChannelE7connectpE0Bb_
FNDA:0,_RNCINvMs_NtNtNtCsk5MUdMCAQgk_14scion_protobuf13control_plane2v127dr_key_inter_service_clientINtB7_23DrKeyInterServiceClientpE13dr_key_level1pE0Bd_
FNDA:0,_RNCINvMs_NtNtNtCsk5MUdMCAQgk_14scion_protobuf13control_plane2v127dr_key_intra_service_clientINtB7_23DrKeyIntraServiceClientpE14dr_key_as_hostpE0Bd_
FNDA:0,_RNCINvMs_NtNtNtCsk5MUdMCAQgk_14scion_protobuf13control_plane2v127dr_key_intra_service_clientINtB7_23DrKeyIntraServiceClientpE14dr_key_host_aspE0Bd_
FNDA:0,_RNCINvMs_NtNtNtCsk5MUdMCAQgk_14scion_protobuf13control_plane2v127dr_key_intra_service_clientINtB7_23DrKeyIntraServiceClientpE16dr_key_host_hostpE0Bd_
FNDA:0,_RNCINvMs_NtNtNtCsk5MUdMCAQgk_14scion_protobuf13control_plane2v127dr_key_intra_service_clientINtB7_23DrKeyIntraServiceClientpE19dr_key_intra_level1pE0Bd_
FNDA:0,_RNCINvMs_NtNtNtCsk5MUdMCAQgk_14scion_protobuf13control_plane2v127dr_key_intra_service_clientINtB7_23DrKeyIntraServiceClientpE19dr_key_secret_valuepE0Bd_
FNDA:0,_RNCINvMs_NtNtNtCsk5MUdMCAQgk_14scion_protobuf13control_plane2v128chain_renewal_service_clientINtB7_25ChainRenewalServiceClientpE13chain_renewalpE0Bd_
FNDA:0,_RNCINvMs_NtNtNtCsk5MUdMCAQgk_14scion_protobuf13control_plane2v129segment_lookup_service_clientINtB7_26SegmentLookupServiceClientpE8segmentspE0Bd_
FNDA:0,_RNCINvMs_NtNtNtCsk5MUdMCAQgk_14scion_protobuf13control_plane2v129trust_material_service_clientINtB7_26TrustMaterialServiceClientpE3trcpE0Bd_
FNDA:0,_RNCINvMs_NtNtNtCsk5MUdMCAQgk_14scion_protobuf13control_plane2v129trust_material_service_clientINtB7_26TrustMaterialServiceClientpE6chainspE0Bd_
FNDA:0,_RNCINvMs_NtNtNtCsk5MUdMCAQgk_14scion_protobuf13control_plane2v131segment_creation_service_clientINtB7_28SegmentCreationServiceClientpE6beaconpE0Bd_
FNDA:0,_RNCINvMs_NtNtNtCsk5MUdMCAQgk_14scion_protobuf13control_plane2v135segment_registration_service_clientINtB7_32SegmentRegistrationServiceClientpE21segments_registrationpE0Bd_
FNDA:0,_RNCNCINvMs_NtNtNtCsk5MUdMCAQgk_14scion_protobuf13control_plane2v127dr_key_inter_service_clientINtB9_23DrKeyInterServiceClientpE13dr_key_level1pE00Bf_
FNDA:0,_RNCNCINvMs_NtNtNtCsk5MUdMCAQgk_14scion_protobuf13control_plane2v127dr_key_intra_service_clientINtB9_23DrKeyIntraServiceClientpE14dr_key_as_hostpE00Bf_
FNDA:0,_RNCNCINvMs_NtNtNtCsk5MUdMCAQgk_14scion_protobuf13control_plane2v127dr_key_intra_service_clientINtB9_23DrKeyIntraServiceClientpE14dr_key_host_aspE00Bf_
FNDA:0,_RNCNCINvMs_NtNtNtCsk5MUdMCAQgk_14scion_protobuf13control_plane2v127dr_key_intra_service_clientINtB9_23DrKeyIntraServiceClientpE16dr_key_host_hostpE00Bf_
FNDA:0,_RNCNCINvMs_NtNtNtCsk5MUdMCAQgk_14scion_protobuf13control_plane2v127dr_key_intra_service_clientINtB9_23DrKeyIntraServiceClientpE19dr_key_intra_level1pE00Bf_
FNDA:0,_RNCNCINvMs_NtNtNtCsk5MUdMCAQgk_14scion_protobuf13control_plane2v127dr_key_intra_service_clientINtB9_23DrKeyIntraServiceClientpE19dr_key_secret_valuepE00Bf_
FNDA:0,_RNCNCINvMs_NtNtNtCsk5MUdMCAQgk_14scion_protobuf13control_plane2v128chain_renewal_service_clientINtB9_25ChainRenewalServiceClientpE13chain_renewalpE00Bf_
FNDA:0,_RNCNCINvMs_NtNtNtCsk5MUdMCAQgk_14scion_protobuf13control_plane2v129segment_lookup_service_clientINtB9_26SegmentLookupServiceClientpE8segmentspE00Bf_
FNDA:0,_RNCNCINvMs_NtNtNtCsk5MUdMCAQgk_14scion_protobuf13control_plane2v129trust_material_service_clientINtB9_26TrustMaterialServiceClientpE3trcpE00Bf_
FNDA:0,_RNCNCINvMs_NtNtNtCsk5MUdMCAQgk_14scion_protobuf13control_plane2v129trust_material_service_clientINtB9_26TrustMaterialServiceClientpE6chainspE00Bf_
FNDA:0,_RNCNCINvMs_NtNtNtCsk5MUdMCAQgk_14scion_protobuf13control_plane2v131segment_creation_service_clientINtB9_28SegmentCreationServiceClientpE6beaconpE00Bf_
FNDA:0,_RNCNCINvMs_NtNtNtCsk5MUdMCAQgk_14scion_protobuf13control_plane2v135segment_registration_service_clientINtB9_32SegmentRegistrationServiceClientpE21segments_registrationpE00Bf_
FNDA:0,_RNCNvXININtNtNtCsk5MUdMCAQgk_14scion_protobuf13control_plane2v127dr_key_inter_service_servers_0ppEINtB7_23DrKeyInterServiceServerpEINtCsamObgW7glvt_13tower_service7ServiceINtNtCsjYnxdl0q3X8_4http7request7RequestpEE4call0Bd_
FNDA:0,_RNCNvXININtNtNtCsk5MUdMCAQgk_14scion_protobuf13control_plane2v127dr_key_inter_service_servers_0ppEINtB7_23DrKeyInterServiceServerpEINtCsamObgW7glvt_13tower_service7ServiceINtNtCsjYnxdl0q3X8_4http7request7RequestpEE4calls_0Bd_
FNDA:0,_RNCNvXININtNtNtCsk5MUdMCAQgk_14scion_protobuf13control_plane2v127dr_key_intra_service_servers_0ppEINtB7_23DrKeyIntraServiceServerpEINtCsamObgW7glvt_13tower_service7ServiceINtNtCsjYnxdl0q3X8_4http7request7RequestpEE4call0Bd_
FNDA:0,_RNCNvXININtNtNtCsk5MUdMCAQgk_14scion_protobuf13control_plane2v127dr_key_intra_service_servers_0ppEINtB7_23DrKeyIntraServiceServerpEINtCsamObgW7glvt_13tower_service7ServiceINtNtCsjYnxdl0q3X8_4http7request7RequestpEE4calls0_0Bd_
FNDA:0,_RNCNvXININtNtNtCsk5MUdMCAQgk_14scion_protobuf13control_plane2v127dr_key_intra_service_servers_0ppEINtB7_23DrKeyIntraServiceServerpEINtCsamObgW7glvt_13tower_service7ServiceINtNtCsjYnxdl0q3X8_4http7request7RequestpEE4calls1_0Bd_
FNDA:0,_RNCNvXININtNtNtCsk5MUdMCAQgk_14scion_protobuf13control_plane2v127dr_key_intra_service_servers_0ppEINtB7_23DrKeyIntraServiceServerpEINtCsamObgW7glvt_13tower_service7ServiceINtNtCsjYnxdl0q3X8_4http7request7RequestpEE4calls2_0Bd_
FNDA:0,_RNCNvXININtNtNtCsk5MUdMCAQgk_14scion_protobuf13control_plane2v127dr_key_intra_service_servers_0ppEINtB7_23DrKeyIntraServiceServerpEINtCsamObgW7glvt_13tower_service7ServiceINtNtCsjYnxdl0q3X8_4http7request7RequestpEE4calls3_0Bd_
FNDA:0,_RNCNvXININtNtNtCsk5MUdMCAQgk_14scion_protobuf13control_plane2v127dr_key_intra_service_servers_0ppEINtB7_23DrKeyIntraServiceServerpEINtCsamObgW7glvt_13tower_service7ServiceINtNtCsjYnxdl0q3X8_4http7request7RequestpEE4calls_0Bd_
FNDA:0,_RNCNvXININtNtNtCsk5MUdMCAQgk_14scion_protobuf13control_plane2v128chain_renewal_service_servers_0ppEINtB7_25ChainRenewalServiceServerpEINtCsamObgW7glvt_13tower_service7ServiceINtNtCsjYnxdl0q3X8_4http7request7RequestpEE4call0Bd_
FNDA:0,_RNCNvXININtNtNtCsk5MUdMCAQgk_14scion_protobuf13control_plane2v128chain_renewal_service_servers_0ppEINtB7_25ChainRenewalServiceServerpEINtCsamObgW7glvt_13tower_service7ServiceINtNtCsjYnxdl0q3X8_4http7request7RequestpEE4calls_0Bd_
FNDA:0,_RNCNvXININtNtNtCsk5MUdMCAQgk_14scion_protobuf13control_plane2v129segment_lookup_service_servers_0ppEINtB7_26SegmentLookupServiceServerpEINtCsamObgW7glvt_13tower_service7ServiceINtNtCsjYnxdl0q3X8_4http7request7RequestpEE4call0Bd_
FNDA:0,_RNCNvXININtNtNtCsk5MUdMCAQgk_14scion_protobuf13control_plane2v129segment_lookup_service_servers_0ppEINtB7_26SegmentLookupServiceServerpEINtCsamObgW7glvt_13tower_service7ServiceINtNtCsjYnxdl0q3X8_4http7request7RequestpEE4calls_0Bd_
FNDA:0,_RNCNvXININtNtNtCsk5MUdMCAQgk_14scion_protobuf13control_plane2v129trust_material_service_servers_0ppEINtB7_26TrustMaterialServiceServerpEINtCsamObgW7glvt_13tower_service7ServiceINtNtCsjYnxdl0q3X8_4http7request7RequestpEE4call0Bd_
FNDA:0,_RNCNvXININtNtNtCsk5MUdMCAQgk_14scion_protobuf13control_plane2v129trust_material_service_servers_0ppEINtB7_26TrustMaterialServiceServerpEINtCsamObgW7glvt_13tower_service7ServiceINtNtCsjYnxdl0q3X8_4http7request7RequestpEE4calls0_0Bd_
FNDA:0,_RNCNvXININtNtNtCsk5MUdMCAQgk_14scion_protobuf13control_plane2v129trust_material_service_servers_0ppEINtB7_26TrustMaterialServiceServerpEINtCsamObgW7glvt_13tower_service7ServiceINtNtCsjYnxdl0q3X8_4http7request7RequestpEE4calls_0Bd_
FNDA:0,_RNCNvXININtNtNtCsk5MUdMCAQgk_14scion_protobuf13control_plane2v131segment_creation_service_servers_0ppEINtB7_28SegmentCreationServiceServerpEINtCsamObgW7glvt_13tower_service7ServiceINtNtCsjYnxdl0q3X8_4http7request7RequestpEE4call0Bd_
FNDA:0,_RNCNvXININtNtNtCsk5MUdMCAQgk_14scion_protobuf13control_plane2v131segment_creation_service_servers_0ppEINtB7_28SegmentCreationServiceServerpEINtCsamObgW7glvt_13tower_service7ServiceINtNtCsjYnxdl0q3X8_4http7request7RequestpEE4calls_0Bd_
FNDA:0,_RNCNvXININtNtNtCsk5MUdMCAQgk_14scion_protobuf13control_plane2v135segment_registration_service_servers_0ppEINtB7_32SegmentRegistrationServiceServerpEINtCsamObgW7glvt_13tower_service7ServiceINtNtCsjYnxdl0q3X8_4http7request7RequestpEE4call0Bd_
FNDA:0,_RNCNvXININtNtNtCsk5MUdMCAQgk_14scion_protobuf13control_plane2v135segment_registration_service_servers_0ppEINtB7_32SegmentRegistrationServiceServerpEINtCsamObgW7glvt_13tower_service7ServiceINtNtCsjYnxdl0q3X8_4http7request7RequestpEE4calls_0Bd_
FNDA:0,_RNCNvXININvXs_NtNtNtCsk5MUdMCAQgk_14scion_protobuf13control_plane2v127dr_key_inter_service_serverINtBc_23DrKeyInterServiceServerpEINtCsamObgW7glvt_13tower_service7ServiceINtNtCsjYnxdl0q3X8_4http7request7RequestpEE4call0pEINtB7_14DRKeyLevel1SvcpEINtNtNtCs5VJ8GLlaEd8_5tonic6server7service12UnaryServiceNtBe_18DrKeyLevel1RequestE4call0Bi_
FNDA:0,_RNCNvXININvXs_NtNtNtCsk5MUdMCAQgk_14scion_protobuf13control_plane2v127dr_key_intra_service_serverINtBc_23DrKeyIntraServiceServerpEINtCsamObgW7glvt_13tower_service7ServiceINtNtCsjYnxdl0q3X8_4http7request7RequestpEE4call0pEINtB7_19DRKeyIntraLevel1SvcpEINtNtNtCs5VJ8GLlaEd8_5tonic6server7service12UnaryServiceNtBe_23DrKeyIntraLevel1RequestE4call0Bi_
FNDA:0,_RNCNvXININvXs_NtNtNtCsk5MUdMCAQgk_14scion_protobuf13control_plane2v127dr_key_intra_service_serverINtBc_23DrKeyIntraServiceServerpEINtCsamObgW7glvt_13tower_service7ServiceINtNtCsjYnxdl0q3X8_4http7request7RequestpEE4calls0_0pEINtB7_14DRKeyHostASSvcpEINtNtNtCs5VJ8GLlaEd8_5tonic6server7service12UnaryServiceNtBe_18DrKeyHostAsRequestE4call0Bi_
FNDA:0,_RNCNvXININvXs_NtNtNtCsk5MUdMCAQgk_14scion_protobuf13control_plane2v127dr_key_intra_service_serverINtBc_23DrKeyIntraServiceServerpEINtCsamObgW7glvt_13tower_service7ServiceINtNtCsjYnxdl0q3X8_4http7request7RequestpEE4calls1_0pEINtB7_16DRKeyHostHostSvcpEINtNtNtCs5VJ8GLlaEd8_5tonic6server7service12UnaryServiceNtBe_20DrKeyHostHostRequestE4call0Bi_
FNDA:0,_RNCNvXININvXs_NtNtNtCsk5MUdMCAQgk_14scion_protobuf13control_plane2v127dr_key_intra_service_serverINtBc_23DrKeyIntraServiceServerpEINtCsamObgW7glvt_13tower_service7ServiceINtNtCsjYnxdl0q3X8_4http7request7RequestpEE4calls2_0pEINtB7_19DRKeySecretValueSvcpEINtNtNtCs5VJ8GLlaEd8_5tonic6server7service12UnaryServiceNtBe_23DrKeySecretValueRequestE4call0Bi_
FNDA:0,_RNCNvXININvXs_NtNtNtCsk5MUdMCAQgk_14scion_protobuf13control_plane2v127dr_key_intra_service_serverINtBc_23DrKeyIntraServiceServerpEINtCsamObgW7glvt_13tower_service7ServiceINtNtCsjYnxdl0q3X8_4http7request7RequestpEE4calls_0pEINtB7_14DRKeyASHostSvcpEINtNtNtCs5VJ8GLlaEd8_5tonic6server7service12UnaryServiceNtBe_18DrKeyAsHostRequestE4call0Bi_
FNDA:0,_RNCNvXININvXs_NtNtNtCsk5MUdMCAQgk_14scion_protobuf13control_plane2v128chain_renewal_service_serverINtBc_25ChainRenewalServiceServerpEINtCsamObgW7glvt_13tower_service7ServiceINtNtCsjYnxdl0q3X8_4http7request7RequestpEE4call0pEINtB7_15ChainRenewalSvcpEINtNtNtCs5VJ8GLlaEd8_5tonic6server7service12UnaryServiceNtBe_19ChainRenewalRequestE4call0Bi_
FNDA:0,_RNCNvXININvXs_NtNtNtCsk5MUdMCAQgk_14scion_protobuf13control_plane2v129segment_lookup_service_serverINtBc_26SegmentLookupServiceServerpEINtCsamObgW7glvt_13tower_service7ServiceINtNtCsjYnxdl0q3X8_4http7request7RequestpEE4call0pEINtB7_11SegmentsSvcpEINtNtNtCs5VJ8GLlaEd8_5tonic6server7service12UnaryServiceNtBe_15SegmentsRequestE4call0Bi_
FNDA:0,_RNCNvXININvXs_NtNtNtCsk5MUdMCAQgk_14scion_protobuf13control_plane2v129trust_material_service_serverINtBc_26TrustMaterialServiceServerpEINtCsamObgW7glvt_13tower_service7ServiceINtNtCsjYnxdl0q3X8_4http7request7RequestpEE4call0pEINtB7_9ChainsSvcpEINtNtNtCs5VJ8GLlaEd8_5tonic6server7service12UnaryServiceNtBe_13ChainsRequestE4call0Bi_
FNDA:0,_RNCNvXININvXs_NtNtNtCsk5MUdMCAQgk_14scion_protobuf13control_plane2v129trust_material_service_serverINtBc_26TrustMaterialServiceServerpEINtCsamObgW7glvt_13tower_service7ServiceINtNtCsjYnxdl0q3X8_4http7request7RequestpEE4calls_0pEINtB7_6TRCSvcpEINtNtNtCs5VJ8GLlaEd8_5tonic6server7service12UnaryServiceNtBe_10TrcRequestE4call0Bi_
FNDA:0,_RNCNvXININvXs_NtNtNtCsk5MUdMCAQgk_14scion_protobuf13control_plane2v131segment_creation_service_serverINtBc_28SegmentCreationServiceServerpEINtCsamObgW7glvt_13tower_service7ServiceINtNtCsjYnxdl0q3X8_4http7request7RequestpEE4call0pEINtB7_9BeaconSvcpEINtNtNtCs5VJ8GLlaEd8_5tonic6server7service12UnaryServiceNtBe_13BeaconRequestE4call0Bi_
FNDA:0,_RNCNvXININvXs_NtNtNtCsk5MUdMCAQgk_14scion_protobuf13control_plane2v135segment_registration_service_serverINtBc_32SegmentRegistrationServiceServerpEINtCsamObgW7glvt_13tower_service7ServiceINtNtCsjYnxdl0q3X8_4http7request7RequestpEE4call0pEINtB7_23SegmentsRegistrationSvcpEINtNtNtCs5VJ8GLlaEd8_5tonic6server7service12UnaryServiceNtBe_27SegmentsRegistrationRequestE4call0Bi_
FNDA:0,_RNvMNtNtCsk5MUdMCAQgk_14scion_protobuf13control_plane2v1NtB2_8LinkType11as_str_name
FNDA:0,_RNvMNtNtCsk5MUdMCAQgk_14scion_protobuf13control_plane2v1NtB2_8LinkType13from_str_name
FNDA:0,_RNvMNtNtNtCsk5MUdMCAQgk_14scion_protobuf13control_plane2v127dr_key_inter_service_serverINtB2_23DrKeyInterServiceServerpE15send_compressedB8_
FNDA:0,_RNvMNtNtNtCsk5MUdMCAQgk_14scion_protobuf13control_plane2v127dr_key_inter_service_serverINtB2_23DrKeyInterServiceServerpE17accept_compressedB8_
FNDA:0,_RNvMNtNtNtCsk5MUdMCAQgk_14scion_protobuf13control_plane2v127dr_key_inter_service_serverINtB2_23DrKeyInterServiceServerpE25max_decoding_message_sizeB8_
FNDA:0,_RNvMNtNtNtCsk5MUdMCAQgk_14scion_protobuf13control_plane2v127dr_key_inter_service_serverINtB2_23DrKeyInterServiceServerpE25max_encoding_message_sizeB8_
FNDA:0,_RNvMNtNtNtCsk5MUdMCAQgk_14scion_protobuf13control_plane2v127dr_key_inter_service_serverINtB2_23DrKeyInterServiceServerpE3newB8_
FNDA:0,_RNvMNtNtNtCsk5MUdMCAQgk_14scion_protobuf13control_plane2v127dr_key_inter_service_serverINtB2_23DrKeyInterServiceServerpE8from_arcB8_
FNDA:0,_RNvMNtNtNtCsk5MUdMCAQgk_14scion_protobuf13control_plane2v127dr_key_intra_service_serverINtB2_23DrKeyIntraServiceServerpE15send_compressedB8_
FNDA:0,_RNvMNtNtNtCsk5MUdMCAQgk_14scion_protobuf13control_plane2v127dr_key_intra_service_serverINtB2_23DrKeyIntraServiceServerpE17accept_compressedB8_
FNDA:0,_RNvMNtNtNtCsk5MUdMCAQgk_14scion_protobuf13control_plane2v127dr_key_intra_service_serverINtB2_23DrKeyIntraServiceServerpE25max_decoding_message_sizeB8_
FNDA:0,_RNvMNtNtNtCsk5MUdMCAQgk_14scion_protobuf13control_plane2v127dr_key_intra_service_serverINtB2_23DrKeyIntraServiceServerpE25max_encoding_message_sizeB8_
FNDA:0,_RNvMNtNtNtCsk5MUdMCAQgk_14scion_protobuf13control_plane2v127dr_key_intra_service_serverINtB2_23DrKeyIntraServiceServerpE3newB8_
FNDA:0,_RNvMNtNtNtCsk5MUdMCAQgk_14scion_protobuf13control_plane2v127dr_key_intra_service_serverINtB2_23DrKeyIntraServiceServerpE8from_arcB8_
FNDA:0,_RNvMNtNtNtCsk5MUdMCAQgk_14scion_protobuf13control_plane2v128chain_renewal_service_serverINtB2_25ChainRenewalServiceServerpE15send_compressedB8_
FNDA:0,_RNvMNtNtNtCsk5MUdMCAQgk_14scion_protobuf13control_plane2v128chain_renewal_service_serverINtB2_25ChainRenewalServiceServerpE17accept_compressedB8_
FNDA:0,_RNvMNtNtNtCsk5MUdMCAQgk_14scion_protobuf13control_plane2v128chain_renewal_service_serverINtB2_25ChainRenewalServiceServerpE25max_decoding_message_sizeB8_
FNDA:0,_RNvMNtNtNtCsk5MUdMCAQgk_14scion_protobuf13control_plane2v128chain_renewal_service_serverINtB2_25ChainRenewalServiceServerpE25max_encoding_message_sizeB8_
FNDA:0,_RNvMNtNtNtCsk5MUdMCAQgk_14scion_protobuf13control_plane2v128chain_renewal_service_serverINtB2_25ChainRenewalServiceServerpE3newB8_
FNDA:0,_RNvMNtNtNtCsk5MUdMCAQgk_14scion_protobuf13control_plane2v128chain_renewal_service_serverINtB2_25ChainRenewalServiceServerpE8from_arcB8_
FNDA:0,_RNvMNtNtNtCsk5MUdMCAQgk_14scion_protobuf13control_plane2v129segment_lookup_service_serverINtB2_26SegmentLookupServiceServerpE15send_compressedB8_
FNDA:0,_RNvMNtNtNtCsk5MUdMCAQgk_14scion_protobuf13control_plane2v129segment_lookup_service_serverINtB2_26SegmentLookupServiceServerpE17accept_compressedB8_
FNDA:0,_RNvMNtNtNtCsk5MUdMCAQgk_14scion_protobuf13control_plane2v129segment_lookup_service_serverINtB2_26SegmentLookupServiceServerpE25max_decoding_message_sizeB8_
FNDA:0,_RNvMNtNtNtCsk5MUdMCAQgk_14scion_protobuf13control_plane2v129segment_lookup_service_serverINtB2_26SegmentLookupServiceServerpE25max_encoding_message_sizeB8_
FNDA:0,_RNvMNtNtNtCsk5MUdMCAQgk_14scion_protobuf13control_plane2v129segment_lookup_service_serverINtB2_26SegmentLookupServiceServerpE3newB8_
FNDA:0,_RNvMNtNtNtCsk5MUdMCAQgk_14scion_protobuf13control_plane2v129segment_lookup_service_serverINtB2_26SegmentLookupServiceServerpE8from_arcB8_
FNDA:0,_RNvMNtNtNtCsk5MUdMCAQgk_14scion_protobuf13control_plane2v129trust_material_service_serverINtB2_26TrustMaterialServiceServerpE15send_compressedB8_
FNDA:0,_RNvMNtNtNtCsk5MUdMCAQgk_14scion_protobuf13control_plane2v129trust_material_service_serverINtB2_26TrustMaterialServiceServerpE17accept_compressedB8_
FNDA:0,_RNvMNtNtNtCsk5MUdMCAQgk_14scion_protobuf13control_plane2v129trust_material_service_serverINtB2_26TrustMaterialServiceServerpE25max_decoding_message_sizeB8_
FNDA:0,_RNvMNtNtNtCsk5MUdMCAQgk_14scion_protobuf13control_plane2v129trust_material_service_serverINtB2_26TrustMaterialServiceServerpE25max_encoding_message_sizeB8_
FNDA:0,_RNvMNtNtNtCsk5MUdMCAQgk_14scion_protobuf13control_plane2v129trust_material_service_serverINtB2_26TrustMaterialServiceServerpE3newB8_
FNDA:0,_RNvMNtNtNtCsk5MUdMCAQgk_14scion_protobuf13control_plane2v129trust_material_service_serverINtB2_26TrustMaterialServiceServerpE8from_arcB8_
FNDA:0,_RNvMNtNtNtCsk5MUdMCAQgk_14scion_protobuf13control_plane2v131segment_creation_service_serverINtB2_28SegmentCreationServiceServerpE15send_compressedB8_
FNDA:0,_RNvMNtNtNtCsk5MUdMCAQgk_14scion_protobuf13control_plane2v131segment_creation_service_serverINtB2_28SegmentCreationServiceServerpE17accept_compressedB8_
FNDA:0,_RNvMNtNtNtCsk5MUdMCAQgk_14scion_protobuf13control_plane2v131segment_creation_service_serverINtB2_28SegmentCreationServiceServerpE25max_decoding_message_sizeB8_
FNDA:0,_RNvMNtNtNtCsk5MUdMCAQgk_14scion_protobuf13control_plane2v131segment_creation_service_serverINtB2_28SegmentCreationServiceServerpE25max_encoding_message_sizeB8_
FNDA:0,_RNvMNtNtNtCsk5MUdMCAQgk_14scion_protobuf13control_plane2v131segment_creation_service_serverINtB2_28SegmentCreationServiceServerpE3newB8_
FNDA:0,_RNvMNtNtNtCsk5MUdMCAQgk_14scion_protobuf13control_plane2v131segment_creation_service_serverINtB2_28SegmentCreationServiceServerpE8from_arcB8_
FNDA:0,_RNvMNtNtNtCsk5MUdMCAQgk_14scion_protobuf13control_plane2v135segment_registration_service_serverINtB2_32SegmentRegistrationServiceServerpE15send_compressedB8_
FNDA:0,_RNvMNtNtNtCsk5MUdMCAQgk_14scion_protobuf13control_plane2v135segment_registration_service_serverINtB2_32SegmentRegistrationServiceServerpE17accept_compressedB8_
FNDA:0,_RNvMNtNtNtCsk5MUdMCAQgk_14scion_protobuf13control_plane2v135segment_registration_service_serverINtB2_32SegmentRegistrationServiceServerpE25max_decoding_message_sizeB8_
FNDA:0,_RNvMNtNtNtCsk5MUdMCAQgk_14scion_protobuf13control_plane2v135segment_registration_service_serverINtB2_32SegmentRegistrationServiceServerpE25max_encoding_message_sizeB8_
FNDA:0,_RNvMNtNtNtCsk5MUdMCAQgk_14scion_protobuf13control_plane2v135segment_registration_service_serverINtB2_32SegmentRegistrationServiceServerpE3newB8_
FNDA:0,_RNvMNtNtNtCsk5MUdMCAQgk_14scion_protobuf13control_plane2v135segment_registration_service_serverINtB2_32SegmentRegistrationServiceServerpE8from_arcB8_
FNDA:0,_RNvMs_NtNtCsk5MUdMCAQgk_14scion_protobuf13control_plane2v1NtB4_11SegmentType11as_str_name
FNDA:0,_RNvMs_NtNtCsk5MUdMCAQgk_14scion_protobuf13control_plane2v1NtB4_11SegmentType13from_str_name
FNDA:0,_RNvMs_NtNtNtCsk5MUdMCAQgk_14scion_protobuf13control_plane2v127dr_key_inter_service_clientINtB4_23DrKeyInterServiceClientpE11with_originBa_
FNDA:0,_RNvMs_NtNtNtCsk5MUdMCAQgk_14scion_protobuf13control_plane2v127dr_key_inter_service_clientINtB4_23DrKeyInterServiceClientpE15send_compressedBa_
FNDA:0,_RNvMs_NtNtNtCsk5MUdMCAQgk_14scion_protobuf13control_plane2v127dr_key_inter_service_clientINtB4_23DrKeyInterServiceClientpE17accept_compressedBa_
FNDA:0,_RNvMs_NtNtNtCsk5MUdMCAQgk_14scion_protobuf13control_plane2v127dr_key_inter_service_clientINtB4_23DrKeyInterServiceClientpE25max_decoding_message_sizeBa_
FNDA:0,_RNvMs_NtNtNtCsk5MUdMCAQgk_14scion_protobuf13control_plane2v127dr_key_inter_service_clientINtB4_23DrKeyInterServiceClientpE25max_encoding_message_sizeBa_
FNDA:0,_RNvMs_NtNtNtCsk5MUdMCAQgk_14scion_protobuf13control_plane2v127dr_key_inter_service_clientINtB4_23DrKeyInterServiceClientpE3newBa_
FNDA:0,_RNvMs_NtNtNtCsk5MUdMCAQgk_14scion_protobuf13control_plane2v127dr_key_intra_service_clientINtB4_23DrKeyIntraServiceClientpE11with_originBa_
FNDA:0,_RNvMs_NtNtNtCsk5MUdMCAQgk_14scion_protobuf13control_plane2v127dr_key_intra_service_clientINtB4_23DrKeyIntraServiceClientpE15send_compressedBa_
FNDA:0,_RNvMs_NtNtNtCsk5MUdMCAQgk_14scion_protobuf13control_plane2v127dr_key_intra_service_clientINtB4_23DrKeyIntraServiceClientpE17accept_compressedBa_
FNDA:0,_RNvMs_NtNtNtCsk5MUdMCAQgk_14scion_protobuf13control_plane2v127dr_key_intra_service_clientINtB4_23DrKeyIntraServiceClientpE25max_decoding_message_sizeBa_
FNDA:0,_RNvMs_NtNtNtCsk5MUdMCAQgk_14scion_protobuf13control_plane2v127dr_key_intra_service_clientINtB4_23DrKeyIntraServiceClientpE25max_encoding_message_sizeBa_
FNDA:0,_RNvMs_NtNtNtCsk5MUdMCAQgk_14scion_protobuf13control_plane2v127dr_key_intra_service_clientINtB4_23DrKeyIntraServiceClientpE3newBa_
FNDA:0,_RNvMs_NtNtNtCsk5MUdMCAQgk_14scion_protobuf13control_plane2v128chain_renewal_service_clientINtB4_25ChainRenewalServiceClientpE11with_originBa_
FNDA:0,_RNvMs_NtNtNtCsk5MUdMCAQgk_14scion_protobuf13control_plane2v128chain_renewal_service_clientINtB4_25ChainRenewalServiceClientpE15send_compressedBa_
FNDA:0,_RNvMs_NtNtNtCsk5MUdMCAQgk_14scion_protobuf13control_plane2v128chain_renewal_service_clientINtB4_25ChainRenewalServiceClientpE17accept_compressedBa_
FNDA:0,_RNvMs_NtNtNtCsk5MUdMCAQgk_14scion_protobuf13control_plane2v128chain_renewal_service_clientINtB4_25ChainRenewalServiceClientpE25max_decoding_message_sizeBa_
FNDA:0,_RNvMs_NtNtNtCsk5MUdMCAQgk_14scion_protobuf13control_plane2v128chain_renewal_service_clientINtB4_25ChainRenewalServiceClientpE25max_encoding_message_sizeBa_
FNDA:0,_RNvMs_NtNtNtCsk5MUdMCAQgk_14scion_protobuf13control_plane2v128chain_renewal_service_clientINtB4_25ChainRenewalServiceClientpE3newBa_
FNDA:0,_RNvMs_NtNtNtCsk5MUdMCAQgk_14scion_protobuf13control_plane2v129segment_lookup_service_clientINtB4_26SegmentLookupServiceClientpE11with_originBa_
FNDA:0,_RNvMs_NtNtNtCsk5MUdMCAQgk_14scion_protobuf13control_plane2v129segment_lookup_service_clientINtB4_26SegmentLookupServiceClientpE15send_compressedBa_
FNDA:0,_RNvMs_NtNtNtCsk5MUdMCAQgk_14scion_protobuf13control_plane2v129segment_lookup_service_clientINtB4_26SegmentLookupServiceClientpE17accept_compressedBa_
FNDA:0,_RNvMs_NtNtNtCsk5MUdMCAQgk_14scion_protobuf13control_plane2v129segment_lookup_service_clientINtB4_26SegmentLookupServiceClientpE25max_decoding_message_sizeBa_
FNDA:0,_RNvMs_NtNtNtCsk5MUdMCAQgk_14scion_protobuf13control_plane2v129segment_lookup_service_clientINtB4_26SegmentLookupServiceClientpE25max_encoding_message_sizeBa_
FNDA:0,_RNvMs_NtNtNtCsk5MUdMCAQgk_14scion_protobuf13control_plane2v129segment_lookup_service_clientINtB4_26SegmentLookupServiceClientpE3newBa_
FNDA:0,_RNvMs_NtNtNtCsk5MUdMCAQgk_14scion_protobuf13control_plane2v129trust_material_service_clientINtB4_26TrustMaterialServiceClientpE11with_originBa_
FNDA:0,_RNvMs_NtNtNtCsk5MUdMCAQgk_14scion_protobuf13control_plane2v129trust_material_service_clientINtB4_26TrustMaterialServiceClientpE15send_compressedBa_
FNDA:0,_RNvMs_NtNtNtCsk5MUdMCAQgk_14scion_protobuf13control_plane2v129trust_material_service_clientINtB4_26TrustMaterialServiceClientpE17accept_compressedBa_
FNDA:0,_RNvMs_NtNtNtCsk5MUdMCAQgk_14scion_protobuf13control_plane2v129trust_material_service_clientINtB4_26TrustMaterialServiceClientpE25max_decoding_message_sizeBa_
FNDA:0,_RNvMs_NtNtNtCsk5MUdMCAQgk_14scion_protobuf13control_plane2v129trust_material_service_clientINtB4_26TrustMaterialServiceClientpE25max_encoding_message_sizeBa_
FNDA:0,_RNvMs_NtNtNtCsk5MUdMCAQgk_14scion_protobuf13control_plane2v129trust_material_service_clientINtB4_26TrustMaterialServiceClientpE3newBa_
FNDA:0,_RNvMs_NtNtNtCsk5MUdMCAQgk_14scion_protobuf13control_plane2v131segment_creation_service_clientINtB4_28SegmentCreationServiceClientpE11with_originBa_
FNDA:0,_RNvMs_NtNtNtCsk5MUdMCAQgk_14scion_protobuf13control_plane2v131segment_creation_service_clientINtB4_28SegmentCreationServiceClientpE15send_compressedBa_
FNDA:0,_RNvMs_NtNtNtCsk5MUdMCAQgk_14scion_protobuf13control_plane2v131segment_creation_service_clientINtB4_28SegmentCreationServiceClientpE17accept_compressedBa_
FNDA:0,_RNvMs_NtNtNtCsk5MUdMCAQgk_14scion_protobuf13control_plane2v131segment_creation_service_clientINtB4_28SegmentCreationServiceClientpE25max_decoding_message_sizeBa_
FNDA:0,_RNvMs_NtNtNtCsk5MUdMCAQgk_14scion_protobuf13control_plane2v131segment_creation_service_clientINtB4_28SegmentCreationServiceClientpE25max_encoding_message_sizeBa_
FNDA:0,_RNvMs_NtNtNtCsk5MUdMCAQgk_14scion_protobuf13control_plane2v131segment_creation_service_clientINtB4_28SegmentCreationServiceClientpE3newBa_
FNDA:0,_RNvMs_NtNtNtCsk5MUdMCAQgk_14scion_protobuf13control_plane2v135segment_registration_service_clientINtB4_32SegmentRegistrationServiceClientpE11with_originBa_
FNDA:0,_RNvMs_NtNtNtCsk5MUdMCAQgk_14scion_protobuf13control_plane2v135segment_registration_service_clientINtB4_32SegmentRegistrationServiceClientpE15send_compressedBa_
FNDA:0,_RNvMs_NtNtNtCsk5MUdMCAQgk_14scion_protobuf13control_plane2v135segment_registration_service_clientINtB4_32SegmentRegistrationServiceClientpE17accept_compressedBa_
FNDA:0,_RNvMs_NtNtNtCsk5MUdMCAQgk_14scion_protobuf13control_plane2v135segment_registration_service_clientINtB4_32SegmentRegistrationServiceClientpE25max_decoding_message_sizeBa_
FNDA:0,_RNvMs_NtNtNtCsk5MUdMCAQgk_14scion_protobuf13control_plane2v135segment_registration_service_clientINtB4_32SegmentRegistrationServiceClientpE25max_encoding_message_sizeBa_
FNDA:0,_RNvMs_NtNtNtCsk5MUdMCAQgk_14scion_protobuf13control_plane2v135segment_registration_service_clientINtB4_32SegmentRegistrationServiceClientpE3newBa_
FNDA:0,_RNvXININtNtNtCsk5MUdMCAQgk_14scion_protobuf13control_plane2v127dr_key_inter_service_servers0_0pEINtB5_23DrKeyInterServiceServerpENtNtCs4eoa8Adtn6U_4core5clone5Clone5cloneBb_
FNDA:0,_RNvXININtNtNtCsk5MUdMCAQgk_14scion_protobuf13control_plane2v127dr_key_inter_service_servers_0ppEINtB5_23DrKeyInterServiceServerpEINtCsamObgW7glvt_13tower_service7ServiceINtNtCsjYnxdl0q3X8_4http7request7RequestpEE10poll_readyBb_
FNDA:0,_RNvXININtNtNtCsk5MUdMCAQgk_14scion_protobuf13control_plane2v127dr_key_inter_service_servers_0ppEINtB5_23DrKeyInterServiceServerpEINtCsamObgW7glvt_13tower_service7ServiceINtNtCsjYnxdl0q3X8_4http7request7RequestpEE4callBb_
FNDA:0,_RNvXININtNtNtCsk5MUdMCAQgk_14scion_protobuf13control_plane2v127dr_key_intra_service_servers0_0pEINtB5_23DrKeyIntraServiceServerpENtNtCs4eoa8Adtn6U_4core5clone5Clone5cloneBb_
FNDA:0,_RNvXININtNtNtCsk5MUdMCAQgk_14scion_protobuf13control_plane2v127dr_key_intra_service_servers_0ppEINtB5_23DrKeyIntraServiceServerpEINtCsamObgW7glvt_13tower_service7ServiceINtNtCsjYnxdl0q3X8_4http7request7RequestpEE10poll_readyBb_
FNDA:0,_RNvXININtNtNtCsk5MUdMCAQgk_14scion_protobuf13control_plane2v127dr_key_intra_service_servers_0ppEINtB5_23DrKeyIntraServiceServerpEINtCsamObgW7glvt_13tower_service7ServiceINtNtCsjYnxdl0q3X8_4http7request7RequestpEE4callBb_
FNDA:0,_RNvXININtNtNtCsk5MUdMCAQgk_14scion_protobuf13control_plane2v128chain_renewal_service_servers0_0pEINtB5_25ChainRenewalServiceServerpENtNtCs4eoa8Adtn6U_4core5clone5Clone5cloneBb_
FNDA:0,_RNvXININtNtNtCsk5MUdMCAQgk_14scion_protobuf13control_plane2v128chain_renewal_service_servers_0ppEINtB5_25ChainRenewalServiceServerpEINtCsamObgW7glvt_13tower_service7ServiceINtNtCsjYnxdl0q3X8_4http7request7RequestpEE10poll_readyBb_
FNDA:0,_RNvXININtNtNtCsk5MUdMCAQgk_14scion_protobuf13control_plane2v128chain_renewal_service_servers_0ppEINtB5_25ChainRenewalServiceServerpEINtCsamObgW7glvt_13tower_service7ServiceINtNtCsjYnxdl0q3X8_4http7request7RequestpEE4callBb_
FNDA:0,_RNvXININtNtNtCsk5MUdMCAQgk_14scion_protobuf13control_plane2v129segment_lookup_service_servers0_0pEINtB5_26SegmentLookupServiceServerpENtNtCs4eoa8Adtn6U_4core5clone5Clone5cloneBb_
FNDA:0,_RNvXININtNtNtCsk5MUdMCAQgk_14scion_protobuf13control_plane2v129segment_lookup_service_servers_0ppEINtB5_26SegmentLookupServiceServerpEINtCsamObgW7glvt_13tower_service7ServiceINtNtCsjYnxdl0q3X8_4http7request7RequestpEE10poll_readyBb_
FNDA:0,_RNvXININtNtNtCsk5MUdMCAQgk_14scion_protobuf13control_plane2v129segment_lookup_service_servers_0ppEINtB5_26SegmentLookupServiceServerpEINtCsamObgW7glvt_13tower_service7ServiceINtNtCsjYnxdl0q3X8_4http7request7RequestpEE4callBb_
FNDA:0,_RNvXININtNtNtCsk5MUdMCAQgk_14scion_protobuf13control_plane2v129trust_material_service_servers0_0pEINtB5_26TrustMaterialServiceServerpENtNtCs4eoa8Adtn6U_4core5clone5Clone5cloneBb_
FNDA:0,_RNvXININtNtNtCsk5MUdMCAQgk_14scion_protobuf13control_plane2v129trust_material_service_servers_0ppEINtB5_26TrustMaterialServiceServerpEINtCsamObgW7glvt_13tower_service7ServiceINtNtCsjYnxdl0q3X8_4http7request7RequestpEE10poll_readyBb_
FNDA:0,_RNvXININtNtNtCsk5MUdMCAQgk_14scion_protobuf13control_plane2v129trust_material_service_servers_0ppEINtB5_26TrustMaterialServiceServerpEINtCsamObgW7glvt_13tower_service7ServiceINtNtCsjYnxdl0q3X8_4http7request7RequestpEE4callBb_
FNDA:0,_RNvXININtNtNtCsk5MUdMCAQgk_14scion_protobuf13control_plane2v131segment_creation_service_servers0_0pEINtB5_28SegmentCreationServiceServerpENtNtCs4eoa8Adtn6U_4core5clone5Clone5cloneBb_
FNDA:0,_RNvXININtNtNtCsk5MUdMCAQgk_14scion_protobuf13control_plane2v131segment_creation_service_servers_0ppEINtB5_28SegmentCreationServiceServerpEINtCsamObgW7glvt_13tower_service7ServiceINtNtCsjYnxdl0q3X8_4http7request7RequestpEE10poll_readyBb_
FNDA:0,_RNvXININtNtNtCsk5MUdMCAQgk_14scion_protobuf13control_plane2v131segment_creation_service_servers_0ppEINtB5_28SegmentCreationServiceServerpEINtCsamObgW7glvt_13tower_service7ServiceINtNtCsjYnxdl0q3X8_4http7request7RequestpEE4callBb_
FNDA:0,_RNvXININtNtNtCsk5MUdMCAQgk_14scion_protobuf13control_plane2v135segment_registration_service_servers0_0pEINtB5_32SegmentRegistrationServiceServerpENtNtCs4eoa8Adtn6U_4core5clone5Clone5cloneBb_
FNDA:0,_RNvXININtNtNtCsk5MUdMCAQgk_14scion_protobuf13control_plane2v135segment_registration_service_servers_0ppEINtB5_32SegmentRegistrationServiceServerpEINtCsamObgW7glvt_13tower_service7ServiceINtNtCsjYnxdl0q3X8_4http7request7RequestpEE10poll_readyBb_
FNDA:0,_RNvXININtNtNtCsk5MUdMCAQgk_14scion_protobuf13control_plane2v135segment_registration_service_servers_0ppEINtB5_32SegmentRegistrationServiceServerpEINtCsamObgW7glvt_13tower_service7ServiceINtNtCsjYnxdl0q3X8_4http7request7RequestpEE4callBb_
FNDA:0,_RNvXININvXs_NtNtNtCsk5MUdMCAQgk_14scion_protobuf13control_plane2v127dr_key_inter_service_serverINtBa_23DrKeyInterServiceServerpEINtCsamObgW7glvt_13tower_service7ServiceINtNtCsjYnxdl0q3X8_4http7request7RequestpEE4call0pEINtB5_14DRKeyLevel1SvcpEINtNtNtCs5VJ8GLlaEd8_5tonic6server7service12UnaryServiceNtBc_18DrKeyLevel1RequestE4callBg_
FNDA:0,_RNvXININvXs_NtNtNtCsk5MUdMCAQgk_14scion_protobuf13control_plane2v127dr_key_intra_service_serverINtBa_23DrKeyIntraServiceServerpEINtCsamObgW7glvt_13tower_service7ServiceINtNtCsjYnxdl0q3X8_4http7request7RequestpEE4call0pEINtB5_19DRKeyIntraLevel1SvcpEINtNtNtCs5VJ8GLlaEd8_5tonic6server7service12UnaryServiceNtBc_23DrKeyIntraLevel1RequestE4callBg_
FNDA:0,_RNvXININvXs_NtNtNtCsk5MUdMCAQgk_14scion_protobuf13control_plane2v127dr_key_intra_service_serverINtBa_23DrKeyIntraServiceServerpEINtCsamObgW7glvt_13tower_service7ServiceINtNtCsjYnxdl0q3X8_4http7request7RequestpEE4calls0_0pEINtB5_14DRKeyHostASSvcpEINtNtNtCs5VJ8GLlaEd8_5tonic6server7service12UnaryServiceNtBc_18DrKeyHostAsRequestE4callBg_
FNDA:0,_RNvXININvXs_NtNtNtCsk5MUdMCAQgk_14scion_protobuf13control_plane2v127dr_key_intra_service_serverINtBa_23DrKeyIntraServiceServerpEINtCsamObgW7glvt_13tower_service7ServiceINtNtCsjYnxdl0q3X8_4http7request7RequestpEE4calls1_0pEINtB5_16DRKeyHostHostSvcpEINtNtNtCs5VJ8GLlaEd8_5tonic6server7service12UnaryServiceNtBc_20DrKeyHostHostRequestE4callBg_
FNDA:0,_RNvXININvXs_NtNtNtCsk5MUdMCAQgk_14scion_protobuf13control_plane2v127dr_key_intra_service_serverINtBa_23DrKeyIntraServiceServerpEINtCsamObgW7glvt_13tower_service7ServiceINtNtCsjYnxdl0q3X8_4http7request7RequestpEE4calls2_0pEINtB5_19DRKeySecretValueSvcpEINtNtNtCs5VJ8GLlaEd8_5tonic6server7service12UnaryServiceNtBc_23DrKeySecretValueRequestE4callBg_
FNDA:0,_RNvXININvXs_NtNtNtCsk5MUdMCAQgk_14scion_protobuf13control_plane2v127dr_key_intra_service_serverINtBa_23DrKeyIntraServiceServerpEINtCsamObgW7glvt_13tower_service7ServiceINtNtCsjYnxdl0q3X8_4http7request7RequestpEE4calls_0pEINtB5_14DRKeyASHostSvcpEINtNtNtCs5VJ8GLlaEd8_5tonic6server7service12UnaryServiceNtBc_18DrKeyAsHostRequestE4callBg_
FNDA:0,_RNvXININvXs_NtNtNtCsk5MUdMCAQgk_14scion_protobuf13control_plane2v128chain_renewal_service_serverINtBa_25ChainRenewalServiceServerpEINtCsamObgW7glvt_13tower_service7ServiceINtNtCsjYnxdl0q3X8_4http7request7RequestpEE4call0pEINtB5_15ChainRenewalSvcpEINtNtNtCs5VJ8GLlaEd8_5tonic6server7service12UnaryServiceNtBc_19ChainRenewalRequestE4callBg_
FNDA:0,_RNvXININvXs_NtNtNtCsk5MUdMCAQgk_14scion_protobuf13control_plane2v129segment_lookup_service_serverINtBa_26SegmentLookupServiceServerpEINtCsamObgW7glvt_13tower_service7ServiceINtNtCsjYnxdl0q3X8_4http7request7RequestpEE4call0pEINtB5_11SegmentsSvcpEINtNtNtCs5VJ8GLlaEd8_5tonic6server7service12UnaryServiceNtBc_15SegmentsRequestE4callBg_
FNDA:0,_RNvXININvXs_NtNtNtCsk5MUdMCAQgk_14scion_protobuf13control_plane2v129trust_material_service_serverINtBa_26TrustMaterialServiceServerpEINtCsamObgW7glvt_13tower_service7ServiceINtNtCsjYnxdl0q3X8_4http7request7RequestpEE4call0pEINtB5_9ChainsSvcpEINtNtNtCs5VJ8GLlaEd8_5tonic6server7service12UnaryServiceNtBc_13ChainsRequestE4callBg_
FNDA:0,_RNvXININvXs_NtNtNtCsk5MUdMCAQgk_14scion_protobuf13control_plane2v129trust_material_service_serverINtBa_26TrustMaterialServiceServerpEINtCsamObgW7glvt_13tower_service7ServiceINtNtCsjYnxdl0q3X8_4http7request7RequestpEE4calls_0pEINtB5_6TRCSvcpEINtNtNtCs5VJ8GLlaEd8_5tonic6server7service12UnaryServiceNtBc_10TrcRequestE4callBg_
FNDA:0,_RNvXININvXs_NtNtNtCsk5MUdMCAQgk_14scion_protobuf13control_plane2v131segment_creation_service_serverINtBa_28SegmentCreationServiceServerpEINtCsamObgW7glvt_13tower_service7ServiceINtNtCsjYnxdl0q3X8_4http7request7RequestpEE4call0pEINtB5_9BeaconSvcpEINtNtNtCs5VJ8GLlaEd8_5tonic6server7service12UnaryServiceNtBc_13BeaconRequestE4callBg_
FNDA:0,_RNvXININvXs_NtNtNtCsk5MUdMCAQgk_14scion_protobuf13control_plane2v135segment_registration_service_serverINtBa_32SegmentRegistrationServiceServerpEINtCsamObgW7glvt_13tower_service7ServiceINtNtCsjYnxdl0q3X8_4http7request7RequestpEE4call0pEINtB5_23SegmentsRegistrationSvcpEINtNtNtCs5VJ8GLlaEd8_5tonic6server7service12UnaryServiceNtBc_27SegmentsRegistrationRequestE4callBg_
FNF:216
FNH:0
DA:88,0
DA:89,0
DA:90,0
DA:91,0
DA:92,0
DA:93,0
DA:94,0
DA:95,0
DA:104,0
DA:105,0
DA:106,0
DA:107,0
DA:108,0
DA:109,0
DA:110,0
DA:111,0
DA:112,0
DA:113,0
DA:114,0
DA:115,0
DA:116,0
DA:117,0
DA:118,0
DA:119,0
DA:120,0
DA:121,0
DA:122,0
DA:123,0
DA:124,0
DA:125,0
DA:126,0
DA:127,0
DA:129,0
DA:130,0
DA:136,0
DA:137,0
DA:138,0
DA:139,0
DA:142,0
DA:143,0
DA:144,0
DA:145,0
DA:150,0
DA:151,0
DA:152,0
DA:153,0
DA:158,0
DA:159,0
DA:160,0
DA:161,0
DA:163,0
DA:164,0
DA:165,0
DA:166,0
DA:167,0
DA:168,0
DA:169,0
DA:170,0
DA:171,0
DA:172,0
DA:174,0
DA:175,0
DA:176,0
DA:179,0
DA:180,0
DA:181,0
DA:182,0
DA:183,0
DA:184,0
DA:187,0
DA:188,0
DA:190,0
DA:191,0
DA:192,0
DA:193,0
DA:194,0
DA:195,0
DA:196,0
DA:197,0
DA:198,0
DA:199,0
DA:201,0
DA:202,0
DA:203,0
DA:206,0
DA:207,0
DA:208,0
DA:209,0
DA:211,0
DA:212,0
DA:248,0
DA:249,0
DA:250,0
DA:251,0
DA:252,0
DA:253,0
DA:254,0
DA:255,0
DA:256,0
DA:257,0
DA:258,0
DA:259,0
DA:260,0
DA:261,0
DA:262,0
DA:263,0
DA:264,0
DA:265,0
DA:267,0
DA:268,0
DA:271,0
DA:272,0
DA:273,0
DA:274,0
DA:277,0
DA:278,0
DA:279,0
DA:280,0
DA:285,0
DA:286,0
DA:287,0
DA:288,0
DA:293,0
DA:294,0
DA:295,0
DA:296,0
DA:308,0
DA:309,0
DA:310,0
DA:311,0
DA:312,0
DA:313,0
DA:314,0
DA:315,0
DA:316,0
DA:328,0
DA:329,0
DA:330,0
DA:331,0
DA:332,0
DA:333,0
DA:334,0
DA:335,0
DA:336,0
DA:337,0
DA:339,0
DA:340,0
DA:341,0
DA:342,0
DA:343,0
DA:344,0
DA:345,0
DA:346,0
DA:347,0
DA:348,0
DA:349,0
DA:350,0
DA:352,0
DA:353,0
DA:354,0
DA:356,0
DA:357,0
DA:358,0
DA:359,0
DA:361,0
DA:372,0
DA:373,0
DA:374,0
DA:375,0
DA:376,0
DA:377,0
DA:378,0
DA:379,0
DA:380,0
DA:381,0
DA:383,0
DA:384,0
DA:385,0
DA:386,0
DA:387,0
DA:388,0
DA:389,0
DA:390,0
DA:391,0
DA:392,0
DA:393,0
DA:394,0
DA:396,0
DA:397,0
DA:398,0
DA:400,0
DA:401,0
DA:402,0
DA:403,0
DA:406,0
DA:407,0
DA:408,0
DA:410,0
DA:411,0
DA:412,0
DA:413,0
DA:414,0
DA:416,0
DA:417,0
DA:418,0
DA:419,0
DA:421,0
DA:422,0
DA:425,0
DA:428,0
DA:429,0
DA:430,0
DA:431,0
DA:432,0
DA:433,0
DA:434,0
DA:435,0
DA:436,0
DA:437,0
DA:628,0
DA:629,0
DA:630,0
DA:631,0
DA:632,0
DA:633,0
DA:634,0
DA:635,0
DA:644,0
DA:645,0
DA:646,0
DA:647,0
DA:648,0
DA:649,0
DA:650,0
DA:651,0
DA:652,0
DA:653,0
DA:654,0
DA:655,0
DA:656,0
DA:657,0
DA:658,0
DA:659,0
DA:660,0
DA:661,0
DA:662,0
DA:663,0
DA:664,0
DA:665,0
DA:666,0
DA:667,0
DA:669,0
DA:670,0
DA:676,0
DA:677,0
DA:678,0
DA:679,0
DA:682,0
DA:683,0
DA:684,0
DA:685,0
DA:690,0
DA:691,0
DA:692,0
DA:693,0
DA:698,0
DA:699,0
DA:700,0
DA:701,0
DA:703,0
DA:704,0
DA:705,0
DA:706,0
DA:707,0
DA:708,0
DA:709,0
DA:710,0
DA:711,0
DA:712,0
DA:713,0
DA:714,0
DA:715,0
DA:717,0
DA:718,0
DA:719,0
DA:722,0
DA:723,0
DA:724,0
DA:725,0
DA:726,0
DA:727,0
DA:730,0
DA:731,0
DA:765,0
DA:766,0
DA:767,0
DA:768,0
DA:769,0
DA:770,0
DA:771,0
DA:772,0
DA:773,0
DA:774,0
DA:775,0
DA:776,0
DA:777,0
DA:778,0
DA:779,0
DA:780,0
DA:781,0
DA:782,0
DA:784,0
DA:785,0
DA:788,0
DA:789,0
DA:790,0
DA:791,0
DA:794,0
DA:795,0
DA:796,0
DA:797,0
DA:802,0
DA:803,0
DA:804,0
DA:805,0
DA:810,0
DA:811,0
DA:812,0
DA:813,0
DA:824,0
DA:825,0
DA:826,0
DA:827,0
DA:828,0
DA:829,0
DA:830,0
DA:831,0
DA:832,0
DA:844,0
DA:845,0
DA:846,0
DA:847,0
DA:848,0
DA:849,0
DA:850,0
DA:851,0
DA:852,0
DA:853,0
DA:854,0
DA:856,0
DA:857,0
DA:858,0
DA:859,0
DA:860,0
DA:861,0
DA:862,0
DA:863,0
DA:864,0
DA:865,0
DA:866,0
DA:867,0
DA:869,0
DA:870,0
DA:871,0
DA:873,0
DA:874,0
DA:875,0
DA:876,0
DA:879,0
DA:880,0
DA:881,0
DA:883,0
DA:884,0
DA:885,0
DA:886,0
DA:887,0
DA:889,0
DA:890,0
DA:891,0
DA:892,0
DA:894,0
DA:895,0
DA:898,0
DA:901,0
DA:902,0
DA:903,0
DA:904,0
DA:905,0
DA:906,0
DA:907,0
DA:908,0
DA:909,0
DA:910,0
DA:935,0
DA:936,0
DA:937,0
DA:938,0
DA:939,0
DA:940,0
DA:941,0
DA:942,0
DA:951,0
DA:952,0
DA:953,0
DA:954,0
DA:955,0
DA:956,0
DA:957,0
DA:958,0
DA:959,0
DA:960,0
DA:961,0
DA:962,0
DA:963,0
DA:964,0
DA:965,0
DA:966,0
DA:967,0
DA:968,0
DA:969,0
DA:970,0
DA:971,0
DA:972,0
DA:973,0
DA:974,0
DA:976,0
DA:977,0
DA:983,0
DA:984,0
DA:985,0
DA:986,0
DA:989,0
DA:990,0
DA:991,0
DA:992,0
DA:997,0
DA:998,0
DA:999,0
DA:1000,0
DA:1005,0
DA:1006,0
DA:1007,0
DA:1008,0
DA:1010,0
DA:1011,0
DA:1012,0
DA:1013,0
DA:1014,0
DA:1015,0
DA:1016,0
DA:1017,0
DA:1018,0
DA:1019,0
DA:1020,0
DA:1021,0
DA:1022,0
DA:1024,0
DA:1025,0
DA:1026,0
DA:1029,0
DA:1030,0
DA:1031,0
DA:1032,0
DA:1033,0
DA:1034,0
DA:1037,0
DA:1038,0
DA:1040,0
DA:1041,0
DA:1042,0
DA:1043,0
DA:1044,0
DA:1045,0
DA:1046,0
DA:1047,0
DA:1048,0
DA:1049,0
DA:1050,0
DA:1051,0
DA:1052,0
DA:1054,0
DA:1055,0
DA:1056,0
DA:1059,0
DA:1060,0
DA:1061,0
DA:1062,0
DA:1063,0
DA:1064,0
DA:1067,0
DA:1068,0
DA:1070,0
DA:1071,0
DA:1072,0
DA:1073,0
DA:1074,0
DA:1075,0
DA:1076,0
DA:1077,0
DA:1078,0
DA:1079,0
DA:1080,0
DA:1081,0
DA:1082,0
DA:1084,0
DA:1085,0
DA:1086,0
DA:1089,0
DA:1090,0
DA:1091,0
DA:1092,0
DA:1093,0
DA:1094,0
DA:1097,0
DA:1098,0
DA:1100,0
DA:1101,0
DA:1102,0
DA:1103,0
DA:1104,0
DA:1105,0
DA:1106,0
DA:1107,0
DA:1108,0
DA:1109,0
DA:1110,0
DA:1111,0
DA:1112,0
DA:1114,0
DA:1115,0
DA:1116,0
DA:1119,0
DA:1120,0
DA:1121,0
DA:1122,0
DA:1123,0
DA:1124,0
DA:1127,0
DA:1128,0
DA:1130,0
DA:1131,0
DA:1132,0
DA:1133,0
DA:1134,0
DA:1135,0
DA:1136,0
DA:1137,0
DA:1138,0
DA:1139,0
DA:1140,0
DA:1141,0
DA:1142,0
DA:1144,0
DA:1145,0
DA:1146,0
DA:1149,0
DA:1150,0
DA:1151,0
DA:1152,0
DA:1153,0
DA:1154,0
DA:1157,0
DA:1158,0
DA:1224,0
DA:1225,0
DA:1226,0
DA:1227,0
DA:1228,0
DA:1229,0
DA:1230,0
DA:1231,0
DA:1232,0
DA:1233,0
DA:1234,0
DA:1235,0
DA:1236,0
DA:1237,0
DA:1238,0
DA:1239,0
DA:1240,0
DA:1241,0
DA:1243,0
DA:1244,0
DA:1247,0
DA:1248,0
DA:1249,0
DA:1250,0
DA:1253,0
DA:1254,0
DA:1255,0
DA:1256,0
DA:1261,0
DA:1262,0
DA:1263,0
DA:1264,0
DA:1269,0
DA:1270,0
DA:1271,0
DA:1272,0
DA:1283,0
DA:1284,0
DA:1285,0
DA:1286,0
DA:1287,0
DA:1288,0
DA:1289,0
DA:1290,0
DA:1291,0
DA:1303,0
DA:1304,0
DA:1305,0
DA:1306,0
DA:1307,0
DA:1308,0
DA:1309,0
DA:1310,0
DA:1311,0
DA:1312,0
DA:1313,0
DA:1314,0
DA:1315,0
DA:1316,0
DA:1318,0
DA:1319,0
DA:1320,0
DA:1321,0
DA:1322,0
DA:1323,0
DA:1324,0
DA:1325,0
DA:1326,0
DA:1327,0
DA:1328,0
DA:1329,0
DA:1331,0
DA:1332,0
DA:1333,0
DA:1335,0
DA:1336,0
DA:1337,0
DA:1338,0
DA:1340,0
DA:1352,0
DA:1353,0
DA:1354,0
DA:1355,0
DA:1356,0
DA:1357,0
DA:1358,0
DA:1359,0
DA:1360,0
DA:1361,0
DA:1362,0
DA:1364,0
DA:1365,0
DA:1366,0
DA:1367,0
DA:1368,0
DA:1369,0
DA:1370,0
DA:1371,0
DA:1372,0
DA:1373,0
DA:1374,0
DA:1375,0
DA:1377,0
DA:1378,0
DA:1379,0
DA:1381,0
DA:1382,0
DA:1383,0
DA:1384,0
DA:1386,0
DA:1398,0
DA:1399,0
DA:1400,0
DA:1401,0
DA:1402,0
DA:1403,0
DA:1404,0
DA:1405,0
DA:1406,0
DA:1407,0
DA:1408,0
DA:1410,0
DA:1411,0
DA:1412,0
DA:1413,0
DA:1414,0
DA:1415,0
DA:1416,0
DA:1417,0
DA:1418,0
DA:1419,0
DA:1420,0
DA:1421,0
DA:1423,0
DA:1424,0
DA:1425,0
DA:1427,0
DA:1428,0
DA:1429,0
DA:1430,0
DA:1432,0
DA:1444,0
DA:1445,0
DA:1446,0
DA:1447,0
DA:1448,0
DA:1449,0
DA:1450,0
DA:1451,0
DA:1452,0
DA:1453,0
DA:1454,0
DA:1456,0
DA:1457,0
DA:1458,0
DA:1459,0
DA:1460,0
DA:1461,0
DA:1462,0
DA:1463,0
DA:1464,0
DA:1465,0
DA:1466,0
DA:1467,0
DA:1469,0
DA:1470,0
DA:1471,0
DA:1473,0
DA:1474,0
DA:1475,0
DA:1476,0
DA:1478,0
DA:1490,0
DA:1491,0
DA:1492,0
DA:1493,0
DA:1494,0
DA:1495,0
DA:1496,0
DA:1497,0
DA:1498,0
DA:1499,0
DA:1500,0
DA:1501,0
DA:1502,0
DA:1503,0
DA:1505,0
DA:1506,0
DA:1507,0
DA:1508,0
DA:1509,0
DA:1510,0
DA:1511,0
DA:1512,0
DA:1513,0
DA:1514,0
DA:1515,0
DA:1516,0
DA:1518,0
DA:1519,0
DA:1520,0
DA:1522,0
DA:1523,0
DA:1524,0
DA:1525,0
DA:1528,0
DA:1529,0
DA:1530,0
DA:1532,0
DA:1533,0
DA:1534,0
DA:1535,0
DA:1536,0
DA:1538,0
DA:1539,0
DA:1540,0
DA:1541,0
DA:1543,0
DA:1544,0
DA:1547,0
DA:1550,0
DA:1551,0
DA:1552,0
DA:1553,0
DA:1554,0
DA:1555,0
DA:1556,0
DA:1557,0
DA:1558,0
DA:1559,0
DA:1620,0
DA:1621,0
DA:1622,0
DA:1623,0
DA:1624,0
DA:1625,0
DA:1626,0
DA:1627,0
DA:1636,0
DA:1637,0
DA:1638,0
DA:1639,0
DA:1640,0
DA:1641,0
DA:1642,0
DA:1643,0
DA:1644,0
DA:1645,0
DA:1646,0
DA:1647,0
DA:1648,0
DA:1649,0
DA:1650,0
DA:1651,0
DA:1652,0
DA:1653,0
DA:1654,0
DA:1655,0
DA:1656,0
DA:1657,0
DA:1658,0
DA:1659,0
DA:1661,0
DA:1662,0
DA:1668,0
DA:1669,0
DA:1670,0
DA:1671,0
DA:1674,0
DA:1675,0
DA:1676,0
DA:1677,0
DA:1682,0
DA:1683,0
DA:1684,0
DA:1685,0
DA:1690,0
DA:1691,0
DA:1692,0
DA:1693,0
DA:1695,0
DA:1696,0
DA:1697,0
DA:1698,0
DA:1699,0
DA:1700,0
DA:1701,0
DA:1702,0
DA:1703,0
DA:1704,0
DA:1705,0
DA:1706,0
DA:1707,0
DA:1709,0
DA:1710,0
DA:1711,0
DA:1714,0
DA:1715,0
DA:1716,0
DA:1717,0
DA:1718,0
DA:1719,0
DA:1722,0
DA:1723,0
DA:1757,0
DA:1758,0
DA:1759,0
DA:1760,0
DA:1761,0
DA:1762,0
DA:1763,0
DA:1764,0
DA:1765,0
DA:1766,0
DA:1767,0
DA:1768,0
DA:1769,0
DA:1770,0
DA:1771,0
DA:1772,0
DA:1773,0
DA:1774,0
DA:1776,0
DA:1777,0
DA:1780,0
DA:1781,0
DA:1782,0
DA:1783,0
DA:1786,0
DA:1787,0
DA:1788,0
DA:1789,0
DA:1794,0
DA:1795,0
DA:1796,0
DA:1797,0
DA:1802,0
DA:1803,0
DA:1804,0
DA:1805,0
DA:1816,0
DA:1817,0
DA:1818,0
DA:1819,0
DA:1820,0
DA:1821,0
DA:1822,0
DA:1823,0
DA:1824,0
DA:1836,0
DA:1837,0
DA:1838,0
DA:1839,0
DA:1840,0
DA:1841,0
DA:1842,0
DA:1843,0
DA:1844,0
DA:1845,0
DA:1846,0
DA:1848,0
DA:1849,0
DA:1850,0
DA:1851,0
DA:1852,0
DA:1853,0
DA:1854,0
DA:1855,0
DA:1856,0
DA:1857,0
DA:1858,0
DA:1859,0
DA:1861,0
DA:1862,0
DA:1863,0
DA:1865,0
DA:1866,0
DA:1867,0
DA:1868,0
DA:1871,0
DA:1872,0
DA:1873,0
DA:1875,0
DA:1876,0
DA:1877,0
DA:1878,0
DA:1879,0
DA:1881,0
DA:1882,0
DA:1883,0
DA:1884,0
DA:1886,0
DA:1887,0
DA:1890,0
DA:1893,0
DA:1894,0
DA:1895,0
DA:1896,0
DA:1897,0
DA:1898,0
DA:1899,0
DA:1900,0
DA:1901,0
DA:1902,0
DA:2079,0
DA:2080,0
DA:2081,0
DA:2082,0
DA:2083,0
DA:2084,0
DA:2086,0
DA:2088,0
DA:2089,0
DA:2090,0
DA:2091,0
DA:2092,0
DA:2093,0
DA:2094,0
DA:2096,0
DA:2276,0
DA:2277,0
DA:2278,0
DA:2279,0
DA:2280,0
DA:2281,0
DA:2283,0
DA:2285,0
DA:2286,0
DA:2287,0
DA:2288,0
DA:2289,0
DA:2290,0
DA:2291,0
DA:2293,0
DA:2312,0
DA:2313,0
DA:2314,0
DA:2315,0
DA:2316,0
DA:2317,0
DA:2318,0
DA:2319,0
DA:2328,0
DA:2329,0
DA:2330,0
DA:2331,0
DA:2332,0
DA:2333,0
DA:2334,0
DA:2335,0
DA:2336,0
DA:2337,0
DA:2338,0
DA:2339,0
DA:2340,0
DA:2341,0
DA:2342,0
DA:2343,0
DA:2344,0
DA:2345,0
DA:2346,0
DA:2347,0
DA:2348,0
DA:2349,0
DA:2350,0
DA:2351,0
DA:2353,0
DA:2354,0
DA:2360,0
DA:2361,0
DA:2362,0
DA:2363,0
DA:2366,0
DA:2367,0
DA:2368,0
DA:2369,0
DA:2374,0
DA:2375,0
DA:2376,0
DA:2377,0
DA:2382,0
DA:2383,0
DA:2384,0
DA:2385,0
DA:2387,0
DA:2388,0
DA:2389,0
DA:2390,0
DA:2391,0
DA:2392,0
DA:2393,0
DA:2394,0
DA:2395,0
DA:2396,0
DA:2397,0
DA:2398,0
DA:2399,0
DA:2401,0
DA:2402,0
DA:2403,0
DA:2406,0
DA:2407,0
DA:2408,0
DA:2409,0
DA:2410,0
DA:2411,0
DA:2414,0
DA:2415,0
DA:2449,0
DA:2450,0
DA:2451,0
DA:2452,0
DA:2453,0
DA:2454,0
DA:2455,0
DA:2456,0
DA:2457,0
DA:2458,0
DA:2459,0
DA:2460,0
DA:2461,0
DA:2462,0
DA:2463,0
DA:2464,0
DA:2465,0
DA:2466,0
DA:2468,0
DA:2469,0
DA:2472,0
DA:2473,0
DA:2474,0
DA:2475,0
DA:2478,0
DA:2479,0
DA:2480,0
DA:2481,0
DA:2486,0
DA:2487,0
DA:2488,0
DA:2489,0
DA:2494,0
DA:2495,0
DA:2496,0
DA:2497,0
DA:2509,0
DA:2510,0
DA:2511,0
DA:2512,0
DA:2513,0
DA:2514,0
DA:2515,0
DA:2516,0
DA:2517,0
DA:2529,0
DA:2530,0
DA:2531,0
DA:2532,0
DA:2533,0
DA:2534,0
DA:2535,0
DA:2536,0
DA:2537,0
DA:2538,0
DA:2540,0
DA:2541,0
DA:2542,0
DA:2543,0
DA:2544,0
DA:2545,0
DA:2546,0
DA:2547,0
DA:2548,0
DA:2549,0
DA:2550,0
DA:2551,0
DA:2553,0
DA:2554,0
DA:2555,0
DA:2557,0
DA:2558,0
DA:2559,0
DA:2560,0
DA:2563,0
DA:2564,0
DA:2565,0
DA:2567,0
DA:2568,0
DA:2569,0
DA:2570,0
DA:2571,0
DA:2573,0
DA:2574,0
DA:2575,0
DA:2576,0
DA:2578,0
DA:2579,0
DA:2582,0
DA:2585,0
DA:2586,0
DA:2587,0
DA:2588,0
DA:2589,0
DA:2590,0
DA:2591,0
DA:2592,0
DA:2593,0
DA:2594,0
DA:2619,0
DA:2620,0
DA:2621,0
DA:2622,0
DA:2623,0
DA:2624,0
DA:2625,0
DA:2626,0
DA:2635,0
DA:2636,0
DA:2637,0
DA:2638,0
DA:2639,0
DA:2640,0
DA:2641,0
DA:2642,0
DA:2643,0
DA:2644,0
DA:2645,0
DA:2646,0
DA:2647,0
DA:2648,0
DA:2649,0
DA:2650,0
DA:2651,0
DA:2652,0
DA:2653,0
DA:2654,0
DA:2655,0
DA:2656,0
DA:2657,0
DA:2658,0
DA:2660,0
DA:2661,0
DA:2663,0
DA:2669,0
DA:2670,0
DA:2671,0
DA:2672,0
DA:2675,0
DA:2676,0
DA:2677,0
DA:2678,0
DA:2683,0
DA:2684,0
DA:2685,0
DA:2686,0
DA:2691,0
DA:2692,0
DA:2693,0
DA:2694,0
DA:2696,0
DA:2697,0
DA:2698,0
DA:2699,0
DA:2700,0
DA:2701,0
DA:2702,0
DA:2703,0
DA:2704,0
DA:2705,0
DA:2706,0
DA:2707,0
DA:2708,0
DA:2710,0
DA:2711,0
DA:2712,0
DA:2715,0
DA:2716,0
DA:2717,0
DA:2718,0
DA:2719,0
DA:2720,0
DA:2723,0
DA:2724,0
DA:2758,0
DA:2759,0
DA:2760,0
DA:2761,0
DA:2762,0
DA:2763,0
DA:2764,0
DA:2765,0
DA:2766,0
DA:2767,0
DA:2768,0
DA:2769,0
DA:2770,0
DA:2771,0
DA:2772,0
DA:2773,0
DA:2774,0
DA:2775,0
DA:2777,0
DA:2778,0
DA:2781,0
DA:2782,0
DA:2783,0
DA:2784,0
DA:2787,0
DA:2788,0
DA:2789,0
DA:2790,0
DA:2795,0
DA:2796,0
DA:2797,0
DA:2798,0
DA:2803,0
DA:2804,0
DA:2805,0
DA:2806,0
DA:2818,0
DA:2819,0
DA:2820,0
DA:2821,0
DA:2822,0
DA:2823,0
DA:2824,0
DA:2825,0
DA:2826,0
DA:2840,0
DA:2841,0
DA:2842,0
DA:2843,0
DA:2844,0
DA:2845,0
DA:2846,0
DA:2847,0
DA:2848,0
DA:2849,0
DA:2850,0
DA:2851,0
DA:2852,0
DA:2853,0
DA:2855,0
DA:2856,0
DA:2857,0
DA:2858,0
DA:2859,0
DA:2860,0
DA:2861,0
DA:2862,0
DA:2863,0
DA:2864,0
DA:2865,0
DA:2866,0
DA:2868,0
DA:2869,0
DA:2870,0
DA:2872,0
DA:2873,0
DA:2874,0
DA:2875,0
DA:2878,0
DA:2879,0
DA:2880,0
DA:2882,0
DA:2883,0
DA:2884,0
DA:2885,0
DA:2886,0
DA:2888,0
DA:2889,0
DA:2890,0
DA:2891,0
DA:2893,0
DA:2894,0
DA:2897,0
DA:2900,0
DA:2901,0
DA:2902,0
DA:2903,0
DA:2904,0
DA:2905,0
DA:2906,0
DA:2907,0
DA:2908,0
DA:2909,0
DA:2934,0
DA:2935,0
DA:2936,0
DA:2937,0
DA:2938,0
DA:2939,0
DA:2940,0
DA:2941,0
DA:2950,0
DA:2951,0
DA:2952,0
DA:2953,0
DA:2954,0
DA:2955,0
DA:2956,0
DA:2957,0
DA:2958,0
DA:2959,0
DA:2960,0
DA:2961,0
DA:2962,0
DA:2963,0
DA:2964,0
DA:2965,0
DA:2966,0
DA:2967,0
DA:2968,0
DA:2969,0
DA:2970,0
DA:2971,0
DA:2972,0
DA:2973,0
DA:2975,0
DA:2976,0
DA:2978,0
DA:2984,0
DA:2985,0
DA:2986,0
DA:2987,0
DA:2990,0
DA:2991,0
DA:2992,0
DA:2993,0
DA:2998,0
DA:2999,0
DA:3000,0
DA:3001,0
DA:3006,0
DA:3007,0
DA:3008,0
DA:3009,0
DA:3011,0
DA:3012,0
DA:3013,0
DA:3014,0
DA:3015,0
DA:3016,0
DA:3017,0
DA:3018,0
DA:3019,0
DA:3020,0
DA:3022,0
DA:3023,0
DA:3024,0
DA:3027,0
DA:3028,0
DA:3029,0
DA:3030,0
DA:3031,0
DA:3032,0
DA:3035,0
DA:3036,0
DA:3067,0
DA:3068,0
DA:3069,0
DA:3070,0
DA:3071,0
DA:3072,0
DA:3073,0
DA:3074,0
DA:3075,0
DA:3076,0
DA:3077,0
DA:3078,0
DA:3079,0
DA:3080,0
DA:3081,0
DA:3082,0
DA:3083,0
DA:3084,0
DA:3086,0
DA:3087,0
DA:3090,0
DA:3091,0
DA:3092,0
DA:3093,0
DA:3096,0
DA:3097,0
DA:3098,0
DA:3099,0
DA:3104,0
DA:3105,0
DA:3106,0
DA:3107,0
DA:3112,0
DA:3113,0
DA:3114,0
DA:3115,0
DA:3127,0
DA:3128,0
DA:3129,0
DA:3130,0
DA:3131,0
DA:3132,0
DA:3133,0
DA:3134,0
DA:3135,0
DA:3147,0
DA:3148,0
DA:3149,0
DA:3150,0
DA:3151,0
DA:3152,0
DA:3153,0
DA:3154,0
DA:3155,0
DA:3156,0
DA:3158,0
DA:3159,0
DA:3160,0
DA:3161,0
DA:3162,0
DA:3163,0
DA:3164,0
DA:3165,0
DA:3166,0
DA:3167,0
DA:3168,0
DA:3169,0
DA:3171,0
DA:3172,0
DA:3173,0
DA:3175,0
DA:3176,0
DA:3177,0
DA:3178,0
DA:3181,0
DA:3182,0
DA:3183,0
DA:3185,0
DA:3186,0
DA:3187,0
DA:3188,0
DA:3189,0
DA:3191,0
DA:3192,0
DA:3193,0
DA:3194,0
DA:3196,0
DA:3197,0
DA:3200,0
DA:3203,0
DA:3204,0
DA:3205,0
DA:3206,0
DA:3207,0
DA:3208,0
DA:3209,0
DA:3210,0
DA:3211,0
DA:3212,0
BRF:0
BRH:0
LF:1586
LH:0
end_of_record
SF:/home/akelbsch/projects/scion/endhost/public/scion-proto/scion-protobuf/src/proto/proto.crypto.v1.rs
FN:60,_RNvMNtNtCsk5MUdMCAQgk_14scion_protobuf6crypto2v1NtB2_18SignatureAlgorithm11as_str_name
FN:69,_RNvMNtNtCsk5MUdMCAQgk_14scion_protobuf6crypto2v1NtB2_18SignatureAlgorithm13from_str_name
FNDA:0,_RNvMNtNtCsk5MUdMCAQgk_14scion_protobuf6crypto2v1NtB2_18SignatureAlgorithm11as_str_name
FNDA:0,_RNvMNtNtCsk5MUdMCAQgk_14scion_protobuf6crypto2v1NtB2_18SignatureAlgorithm13from_str_name
FNF:2
FNH:0
DA:60,0
DA:61,0
DA:62,0
DA:63,0
DA:64,0
DA:65,0
DA:67,0
DA:69,0
DA:70,0
DA:71,0
DA:72,0
DA:73,0
DA:74,0
DA:75,0
DA:77,0
BRF:0
BRH:0
LF:15
LH:0
end_of_record
SF:/home/akelbsch/projects/scion/endhost/public/scion-proto/scion-protobuf/src/proto/proto.daemon.v1.rs
FN:333,_RINvMNtNtNtCsk5MUdMCAQgk_14scion_protobuf6daemon2v121daemon_service_clientINtB3_19DaemonServiceClientNtNtNtCs5VJ8GLlaEd8_5tonic9transport7channel7ChannelE7connectpEB9_
FN:707,_RINvMNtNtNtCsk5MUdMCAQgk_14scion_protobuf6daemon2v121daemon_service_serverINtB3_19DaemonServiceServerpE16with_interceptorpEB9_
FN:453,_RINvMs_NtNtNtCsk5MUdMCAQgk_14scion_protobuf6daemon2v121daemon_service_clientINtB5_19DaemonServiceClientpE10interfacespEBb_
FN:534,_RINvMs_NtNtNtCsk5MUdMCAQgk_14scion_protobuf6daemon2v121daemon_service_clientINtB5_19DaemonServiceClientpE14dr_key_as_hostpEBb_
FN:559,_RINvMs_NtNtNtCsk5MUdMCAQgk_14scion_protobuf6daemon2v121daemon_service_clientINtB5_19DaemonServiceClientpE14dr_key_host_aspEBb_
FN:584,_RINvMs_NtNtNtCsk5MUdMCAQgk_14scion_protobuf6daemon2v121daemon_service_clientINtB5_19DaemonServiceClientpE16dr_key_host_hostpEBb_
FN:357,_RINvMs_NtNtNtCsk5MUdMCAQgk_14scion_protobuf6daemon2v121daemon_service_clientINtB5_19DaemonServiceClientpE16with_interceptorpEBb_
FN:504,_RINvMs_NtNtNtCsk5MUdMCAQgk_14scion_protobuf6daemon2v121daemon_service_clientINtB5_19DaemonServiceClientpE21notify_interface_downpEBb_
FN:430,_RINvMs_NtNtNtCsk5MUdMCAQgk_14scion_protobuf6daemon2v121daemon_service_clientINtB5_19DaemonServiceClientpE2aspEBb_
FN:408,_RINvMs_NtNtNtCsk5MUdMCAQgk_14scion_protobuf6daemon2v121daemon_service_clientINtB5_19DaemonServiceClientpE5pathspEBb_
FN:479,_RINvMs_NtNtNtCsk5MUdMCAQgk_14scion_protobuf6daemon2v121daemon_service_clientINtB5_19DaemonServiceClientpE8servicespEBb_
FN:337,_RNCINvMNtNtNtCsk5MUdMCAQgk_14scion_protobuf6daemon2v121daemon_service_clientINtB5_19DaemonServiceClientNtNtNtCs5VJ8GLlaEd8_5tonic9transport7channel7ChannelE7connectpE0Bb_
FN:459,_RNCINvMs_NtNtNtCsk5MUdMCAQgk_14scion_protobuf6daemon2v121daemon_service_clientINtB7_19DaemonServiceClientpE10interfacespE0Bd_
FN:540,_RNCINvMs_NtNtNtCsk5MUdMCAQgk_14scion_protobuf6daemon2v121daemon_service_clientINtB7_19DaemonServiceClientpE14dr_key_as_hostpE0Bd_
FN:565,_RNCINvMs_NtNtNtCsk5MUdMCAQgk_14scion_protobuf6daemon2v121daemon_service_clientINtB7_19DaemonServiceClientpE14dr_key_host_aspE0Bd_
FN:590,_RNCINvMs_NtNtNtCsk5MUdMCAQgk_14scion_protobuf6daemon2v121daemon_service_clientINtB7_19DaemonServiceClientpE16dr_key_host_hostpE0Bd_
FN:510,_RNCINvMs_NtNtNtCsk5MUdMCAQgk_14scion_protobuf6daemon2v121daemon_service_clientINtB7_19DaemonServiceClientpE21notify_interface_downpE0Bd_
FN:433,_RNCINvMs_NtNtNtCsk5MUdMCAQgk_14scion_protobuf6daemon2v121daemon_service_clientINtB7_19DaemonServiceClientpE2aspE0Bd_
FN:411,_RNCINvMs_NtNtNtCsk5MUdMCAQgk_14scion_protobuf6daemon2v121daemon_service_clientINtB7_19DaemonServiceClientpE5pathspE0Bd_
FN:485,_RNCINvMs_NtNtNtCsk5MUdMCAQgk_14scion_protobuf6daemon2v121daemon_service_clientINtB7_19DaemonServiceClientpE8servicespE0Bd_
FN:463,_RNCNCINvMs_NtNtNtCsk5MUdMCAQgk_14scion_protobuf6daemon2v121daemon_service_clientINtB9_19DaemonServiceClientpE10interfacespE00Bf_
FN:544,_RNCNCINvMs_NtNtNtCsk5MUdMCAQgk_14scion_protobuf6daemon2v121daemon_service_clientINtB9_19DaemonServiceClientpE14dr_key_as_hostpE00Bf_
FN:569,_RNCNCINvMs_NtNtNtCsk5MUdMCAQgk_14scion_protobuf6daemon2v121daemon_service_clientINtB9_19DaemonServiceClientpE14dr_key_host_aspE00Bf_
FN:594,_RNCNCINvMs_NtNtNtCsk5MUdMCAQgk_14scion_protobuf6daemon2v121daemon_service_clientINtB9_19DaemonServiceClientpE16dr_key_host_hostpE00Bf_
FN:514,_RNCNCINvMs_NtNtNtCsk5MUdMCAQgk_14scion_protobuf6daemon2v121daemon_service_clientINtB9_19DaemonServiceClientpE21notify_interface_downpE00Bf_
FN:437,_RNCNCINvMs_NtNtNtCsk5MUdMCAQgk_14scion_protobuf6daemon2v121daemon_service_clientINtB9_19DaemonServiceClientpE2aspE00Bf_
FN:415,_RNCNCINvMs_NtNtNtCsk5MUdMCAQgk_14scion_protobuf6daemon2v121daemon_service_clientINtB9_19DaemonServiceClientpE5pathspE00Bf_
FN:489,_RNCNCINvMs_NtNtNtCsk5MUdMCAQgk_14scion_protobuf6daemon2v121daemon_service_clientINtB9_19DaemonServiceClientpE8servicespE00Bf_
FN:789,_RNCNvXININtNtNtCsk5MUdMCAQgk_14scion_protobuf6daemon2v121daemon_service_servers_0ppEINtB7_19DaemonServiceServerpEINtCsamObgW7glvt_13tower_service7ServiceINtNtCsjYnxdl0q3X8_4http7request7RequestpEE4call0Bd_
FN:877,_RNCNvXININtNtNtCsk5MUdMCAQgk_14scion_protobuf6daemon2v121daemon_service_servers_0ppEINtB7_19DaemonServiceServerpEINtCsamObgW7glvt_13tower_service7ServiceINtNtCsjYnxdl0q3X8_4http7request7RequestpEE4calls0_0Bd_
FN:922,_RNCNvXININtNtNtCsk5MUdMCAQgk_14scion_protobuf6daemon2v121daemon_service_servers_0ppEINtB7_19DaemonServiceServerpEINtCsamObgW7glvt_13tower_service7ServiceINtNtCsjYnxdl0q3X8_4http7request7RequestpEE4calls1_0Bd_
FN:968,_RNCNvXININtNtNtCsk5MUdMCAQgk_14scion_protobuf6daemon2v121daemon_service_servers_0ppEINtB7_19DaemonServiceServerpEINtCsamObgW7glvt_13tower_service7ServiceINtNtCsjYnxdl0q3X8_4http7request7RequestpEE4calls2_0Bd_
FN:1013,_RNCNvXININtNtNtCsk5MUdMCAQgk_14scion_protobuf6daemon2v121daemon_service_servers_0ppEINtB7_19DaemonServiceServerpEINtCsamObgW7glvt_13tower_service7ServiceINtNtCsjYnxdl0q3X8_4http7request7RequestpEE4calls3_0Bd_
FN:1058,_RNCNvXININtNtNtCsk5MUdMCAQgk_14scion_protobuf6daemon2v121daemon_service_servers_0ppEINtB7_19DaemonServiceServerpEINtCsamObgW7glvt_13tower_service7ServiceINtNtCsjYnxdl0q3X8_4http7request7RequestpEE4calls4_0Bd_
FN:1104,_RNCNvXININtNtNtCsk5MUdMCAQgk_14scion_protobuf6daemon2v121daemon_service_servers_0ppEINtB7_19DaemonServiceServerpEINtCsamObgW7glvt_13tower_service7ServiceINtNtCsjYnxdl0q3X8_4http7request7RequestpEE4calls5_0Bd_
FN:1122,_RNCNvXININtNtNtCsk5MUdMCAQgk_14scion_protobuf6daemon2v121daemon_service_servers_0ppEINtB7_19DaemonServiceServerpEINtCsamObgW7glvt_13tower_service7ServiceINtNtCsjYnxdl0q3X8_4http7request7RequestpEE4calls6_0Bd_
FN:832,_RNCNvXININtNtNtCsk5MUdMCAQgk_14scion_protobuf6daemon2v121daemon_service_servers_0ppEINtB7_19DaemonServiceServerpEINtCsamObgW7glvt_13tower_service7ServiceINtNtCsjYnxdl0q3X8_4http7request7RequestpEE4calls_0Bd_
FN:778,_RNCNvXININvXs_NtNtNtCsk5MUdMCAQgk_14scion_protobuf6daemon2v121daemon_service_serverINtBc_19DaemonServiceServerpEINtCsamObgW7glvt_13tower_service7ServiceINtNtCsjYnxdl0q3X8_4http7request7RequestpEE4call0pEINtB7_8PathsSvcpEINtNtNtCs5VJ8GLlaEd8_5tonic6server7service12UnaryServiceNtBe_12PathsRequestE4call0Bi_
FN:866,_RNCNvXININvXs_NtNtNtCsk5MUdMCAQgk_14scion_protobuf6daemon2v121daemon_service_serverINtBc_19DaemonServiceServerpEINtCsamObgW7glvt_13tower_service7ServiceINtNtCsjYnxdl0q3X8_4http7request7RequestpEE4calls0_0pEINtB7_13InterfacesSvcpEINtNtNtCs5VJ8GLlaEd8_5tonic6server7service12UnaryServiceNtBe_17InterfacesRequestE4call0Bi_
FN:911,_RNCNvXININvXs_NtNtNtCsk5MUdMCAQgk_14scion_protobuf6daemon2v121daemon_service_serverINtBc_19DaemonServiceServerpEINtCsamObgW7glvt_13tower_service7ServiceINtNtCsjYnxdl0q3X8_4http7request7RequestpEE4calls1_0pEINtB7_11ServicesSvcpEINtNtNtCs5VJ8GLlaEd8_5tonic6server7service12UnaryServiceNtBe_15ServicesRequestE4call0Bi_
FN:956,_RNCNvXININvXs_NtNtNtCsk5MUdMCAQgk_14scion_protobuf6daemon2v121daemon_service_serverINtBc_19DaemonServiceServerpEINtCsamObgW7glvt_13tower_service7ServiceINtNtCsjYnxdl0q3X8_4http7request7RequestpEE4calls2_0pEINtB7_22NotifyInterfaceDownSvcpEINtNtNtCs5VJ8GLlaEd8_5tonic6server7service12UnaryServiceNtBe_26NotifyInterfaceDownRequestE4call0Bi_
FN:1002,_RNCNvXININvXs_NtNtNtCsk5MUdMCAQgk_14scion_protobuf6daemon2v121daemon_service_serverINtBc_19DaemonServiceServerpEINtCsamObgW7glvt_13tower_service7ServiceINtNtCsjYnxdl0q3X8_4http7request7RequestpEE4calls3_0pEINtB7_14DRKeyASHostSvcpEINtNtNtCs5VJ8GLlaEd8_5tonic6server7service12UnaryServiceNtBe_18DrKeyAsHostRequestE4call0Bi_
FN:1047,_RNCNvXININvXs_NtNtNtCsk5MUdMCAQgk_14scion_protobuf6daemon2v121daemon_service_serverINtBc_19DaemonServiceServerpEINtCsamObgW7glvt_13tower_service7ServiceINtNtCsjYnxdl0q3X8_4http7request7RequestpEE4calls4_0pEINtB7_14DRKeyHostASSvcpEINtNtNtCs5VJ8GLlaEd8_5tonic6server7service12UnaryServiceNtBe_18DrKeyHostAsRequestE4call0Bi_
FN:1092,_RNCNvXININvXs_NtNtNtCsk5MUdMCAQgk_14scion_protobuf6daemon2v121daemon_service_serverINtBc_19DaemonServiceServerpEINtCsamObgW7glvt_13tower_service7ServiceINtNtCsjYnxdl0q3X8_4http7request7RequestpEE4calls5_0pEINtB7_16DRKeyHostHostSvcpEINtNtNtCs5VJ8GLlaEd8_5tonic6server7service12UnaryServiceNtBe_20DrKeyHostHostRequestE4call0Bi_
FN:821,_RNCNvXININvXs_NtNtNtCsk5MUdMCAQgk_14scion_protobuf6daemon2v121daemon_service_serverINtBc_19DaemonServiceServerpEINtCsamObgW7glvt_13tower_service7ServiceINtNtCsjYnxdl0q3X8_4http7request7RequestpEE4calls_0pEINtB7_5ASSvcpEINtNtNtCs5VJ8GLlaEd8_5tonic6server7service12UnaryServiceNtBe_9AsRequestE4call0Bi_
FN:297,_RNvMNtNtCsk5MUdMCAQgk_14scion_protobuf6daemon2v1NtB2_8LinkType11as_str_name
FN:306,_RNvMNtNtCsk5MUdMCAQgk_14scion_protobuf6daemon2v1NtB2_8LinkType13from_str_name
FN:724,_RNvMNtNtNtCsk5MUdMCAQgk_14scion_protobuf6daemon2v121daemon_service_serverINtB2_19DaemonServiceServerpE15send_compressedB8_
FN:718,_RNvMNtNtNtCsk5MUdMCAQgk_14scion_protobuf6daemon2v121daemon_service_serverINtB2_19DaemonServiceServerpE17accept_compressedB8_
FN:732,_RNvMNtNtNtCsk5MUdMCAQgk_14scion_protobuf6daemon2v121daemon_service_serverINtB2_19DaemonServiceServerpE25max_decoding_message_sizeB8_
FN:740,_RNvMNtNtNtCsk5MUdMCAQgk_14scion_protobuf6daemon2v121daemon_service_serverINtB2_19DaemonServiceServerpE25max_encoding_message_sizeB8_
FN:695,_RNvMNtNtNtCsk5MUdMCAQgk_14scion_protobuf6daemon2v121daemon_service_serverINtB2_19DaemonServiceServerpE3newB8_
FN:698,_RNvMNtNtNtCsk5MUdMCAQgk_14scion_protobuf6daemon2v121daemon_service_serverINtB2_19DaemonServiceServerpE8from_arcB8_
FN:353,_RNvMs_NtNtNtCsk5MUdMCAQgk_14scion_protobuf6daemon2v121daemon_service_clientINtB4_19DaemonServiceClientpE11with_originBa_
FN:381,_RNvMs_NtNtNtCsk5MUdMCAQgk_14scion_protobuf6daemon2v121daemon_service_clientINtB4_19DaemonServiceClientpE15send_compressedBa_
FN:387,_RNvMs_NtNtNtCsk5MUdMCAQgk_14scion_protobuf6daemon2v121daemon_service_clientINtB4_19DaemonServiceClientpE17accept_compressedBa_
FN:395,_RNvMs_NtNtNtCsk5MUdMCAQgk_14scion_protobuf6daemon2v121daemon_service_clientINtB4_19DaemonServiceClientpE25max_decoding_message_sizeBa_
FN:403,_RNvMs_NtNtNtCsk5MUdMCAQgk_14scion_protobuf6daemon2v121daemon_service_clientINtB4_19DaemonServiceClientpE25max_encoding_message_sizeBa_
FN:349,_RNvMs_NtNtNtCsk5MUdMCAQgk_14scion_protobuf6daemon2v121daemon_service_clientINtB4_19DaemonServiceClientpE3newBa_
FN:1144,_RNvXININtNtNtCsk5MUdMCAQgk_14scion_protobuf6daemon2v121daemon_service_servers0_0pEINtB5_19DaemonServiceServerpENtNtCs4eoa8Adtn6U_4core5clone5Clone5cloneBb_
FN:754,_RNvXININtNtNtCsk5MUdMCAQgk_14scion_protobuf6daemon2v121daemon_service_servers_0ppEINtB5_19DaemonServiceServerpEINtCsamObgW7glvt_13tower_service7ServiceINtNtCsjYnxdl0q3X8_4http7request7RequestpEE10poll_readyBb_
FN:760,_RNvXININtNtNtCsk5MUdMCAQgk_14scion_protobuf6daemon2v121daemon_service_servers_0ppEINtB5_19DaemonServiceServerpEINtCsamObgW7glvt_13tower_service7ServiceINtNtCsjYnxdl0q3X8_4http7request7RequestpEE4callBb_
FN:773,_RNvXININvXs_NtNtNtCsk5MUdMCAQgk_14scion_protobuf6daemon2v121daemon_service_serverINtBa_19DaemonServiceServerpEINtCsamObgW7glvt_13tower_service7ServiceINtNtCsjYnxdl0q3X8_4http7request7RequestpEE4call0pEINtB5_8PathsSvcpEINtNtNtCs5VJ8GLlaEd8_5tonic6server7service12UnaryServiceNtBc_12PathsRequestE4callBg_
FN:861,_RNvXININvXs_NtNtNtCsk5MUdMCAQgk_14scion_protobuf6daemon2v121daemon_service_serverINtBa_19DaemonServiceServerpEINtCsamObgW7glvt_13tower_service7ServiceINtNtCsjYnxdl0q3X8_4http7request7RequestpEE4calls0_0pEINtB5_13InterfacesSvcpEINtNtNtCs5VJ8GLlaEd8_5tonic6server7service12UnaryServiceNtBc_17InterfacesRequestE4callBg_
FN:906,_RNvXININvXs_NtNtNtCsk5MUdMCAQgk_14scion_protobuf6daemon2v121daemon_service_serverINtBa_19DaemonServiceServerpEINtCsamObgW7glvt_13tower_service7ServiceINtNtCsjYnxdl0q3X8_4http7request7RequestpEE4calls1_0pEINtB5_11ServicesSvcpEINtNtNtCs5VJ8GLlaEd8_5tonic6server7service12UnaryServiceNtBc_15ServicesRequestE4callBg_
FN:951,_RNvXININvXs_NtNtNtCsk5MUdMCAQgk_14scion_protobuf6daemon2v121daemon_service_serverINtBa_19DaemonServiceServerpEINtCsamObgW7glvt_13tower_service7ServiceINtNtCsjYnxdl0q3X8_4http7request7RequestpEE4calls2_0pEINtB5_22NotifyInterfaceDownSvcpEINtNtNtCs5VJ8GLlaEd8_5tonic6server7service12UnaryServiceNtBc_26NotifyInterfaceDownRequestE4callBg_
FN:997,_RNvXININvXs_NtNtNtCsk5MUdMCAQgk_14scion_protobuf6daemon2v121daemon_service_serverINtBa_19DaemonServiceServerpEINtCsamObgW7glvt_13tower_service7ServiceINtNtCsjYnxdl0q3X8_4http7request7RequestpEE4calls3_0pEINtB5_14DRKeyASHostSvcpEINtNtNtCs5VJ8GLlaEd8_5tonic6server7service12UnaryServiceNtBc_18DrKeyAsHostRequestE4callBg_
FN:1042,_RNvXININvXs_NtNtNtCsk5MUdMCAQgk_14scion_protobuf6daemon2v121daemon_service_serverINtBa_19DaemonServiceServerpEINtCsamObgW7glvt_13tower_service7ServiceINtNtCsjYnxdl0q3X8_4http7request7RequestpEE4calls4_0pEINtB5_14DRKeyHostASSvcpEINtNtNtCs5VJ8GLlaEd8_5tonic6server7service12UnaryServiceNtBc_18DrKeyHostAsRequestE4callBg_
FN:1087,_RNvXININvXs_NtNtNtCsk5MUdMCAQgk_14scion_protobuf6daemon2v121daemon_service_serverINtBa_19DaemonServiceServerpEINtCsamObgW7glvt_13tower_service7ServiceINtNtCsjYnxdl0q3X8_4http7request7RequestpEE4calls5_0pEINtB5_16DRKeyHostHostSvcpEINtNtNtCs5VJ8GLlaEd8_5tonic6server7service12UnaryServiceNtBc_20DrKeyHostHostRequestE4callBg_
FN:816,_RNvXININvXs_NtNtNtCsk5MUdMCAQgk_14scion_protobuf6daemon2v121daemon_service_serverINtBa_19DaemonServiceServerpEINtCsamObgW7glvt_13tower_service7ServiceINtNtCsjYnxdl0q3X8_4http7request7RequestpEE4calls_0pEINtB5_5ASSvcpEINtNtNtCs5VJ8GLlaEd8_5tonic6server7service12UnaryServiceNtBc_9AsRequestE4callBg_
FNDA:0,_RINvMNtNtNtCsk5MUdMCAQgk_14scion_protobuf6daemon2v121daemon_service_clientINtB3_19DaemonServiceClientNtNtNtCs5VJ8GLlaEd8_5tonic9transport7channel7ChannelE7connectpEB9_
FNDA:0,_RINvMNtNtNtCsk5MUdMCAQgk_14scion_protobuf6daemon2v121daemon_service_serverINtB3_19DaemonServiceServerpE16with_interceptorpEB9_
FNDA:0,_RINvMs_NtNtNtCsk5MUdMCAQgk_14scion_protobuf6daemon2v121daemon_service_clientINtB5_19DaemonServiceClientpE10interfacespEBb_
FNDA:0,_RINvMs_NtNtNtCsk5MUdMCAQgk_14scion_protobuf6daemon2v121daemon_service_clientINtB5_19DaemonServiceClientpE14dr_key_as_hostpEBb_
FNDA:0,_RINvMs_NtNtNtCsk5MUdMCAQgk_14scion_protobuf6daemon2v121daemon_service_clientINtB5_19DaemonServiceClientpE14dr_key_host_aspEBb_
FNDA:0,_RINvMs_NtNtNtCsk5MUdMCAQgk_14scion_protobuf6daemon2v121daemon_service_clientINtB5_19DaemonServiceClientpE16dr_key_host_hostpEBb_
FNDA:0,_RINvMs_NtNtNtCsk5MUdMCAQgk_14scion_protobuf6daemon2v121daemon_service_clientINtB5_19DaemonServiceClientpE16with_interceptorpEBb_
FNDA:0,_RINvMs_NtNtNtCsk5MUdMCAQgk_14scion_protobuf6daemon2v121daemon_service_clientINtB5_19DaemonServiceClientpE21notify_interface_downpEBb_
FNDA:0,_RINvMs_NtNtNtCsk5MUdMCAQgk_14scion_protobuf6daemon2v121daemon_service_clientINtB5_19DaemonServiceClientpE2aspEBb_
FNDA:0,_RINvMs_NtNtNtCsk5MUdMCAQgk_14scion_protobuf6daemon2v121daemon_service_clientINtB5_19DaemonServiceClientpE5pathspEBb_
FNDA:0,_RINvMs_NtNtNtCsk5MUdMCAQgk_14scion_protobuf6daemon2v121daemon_service_clientINtB5_19DaemonServiceClientpE8servicespEBb_
FNDA:0,_RNCINvMNtNtNtCsk5MUdMCAQgk_14scion_protobuf6daemon2v121daemon_service_clientINtB5_19DaemonServiceClientNtNtNtCs5VJ8GLlaEd8_5tonic9transport7channel7ChannelE7connectpE0Bb_
FNDA:0,_RNCINvMs_NtNtNtCsk5MUdMCAQgk_14scion_protobuf6daemon2v121daemon_service_clientINtB7_19DaemonServiceClientpE10interfacespE0Bd_
FNDA:0,_RNCINvMs_NtNtNtCsk5MUdMCAQgk_14scion_protobuf6daemon2v121daemon_service_clientINtB7_19DaemonServiceClientpE14dr_key_as_hostpE0Bd_
FNDA:0,_RNCINvMs_NtNtNtCsk5MUdMCAQgk_14scion_protobuf6daemon2v121daemon_service_clientINtB7_19DaemonServiceClientpE14dr_key_host_aspE0Bd_
FNDA:0,_RNCINvMs_NtNtNtCsk5MUdMCAQgk_14scion_protobuf6daemon2v121daemon_service_clientINtB7_19DaemonServiceClientpE16dr_key_host_hostpE0Bd_
FNDA:0,_RNCINvMs_NtNtNtCsk5MUdMCAQgk_14scion_protobuf6daemon2v121daemon_service_clientINtB7_19DaemonServiceClientpE21notify_interface_downpE0Bd_
FNDA:0,_RNCINvMs_NtNtNtCsk5MUdMCAQgk_14scion_protobuf6daemon2v121daemon_service_clientINtB7_19DaemonServiceClientpE2aspE0Bd_
FNDA:0,_RNCINvMs_NtNtNtCsk5MUdMCAQgk_14scion_protobuf6daemon2v121daemon_service_clientINtB7_19DaemonServiceClientpE5pathspE0Bd_
FNDA:0,_RNCINvMs_NtNtNtCsk5MUdMCAQgk_14scion_protobuf6daemon2v121daemon_service_clientINtB7_19DaemonServiceClientpE8servicespE0Bd_
FNDA:0,_RNCNCINvMs_NtNtNtCsk5MUdMCAQgk_14scion_protobuf6daemon2v121daemon_service_clientINtB9_19DaemonServiceClientpE10interfacespE00Bf_
FNDA:0,_RNCNCINvMs_NtNtNtCsk5MUdMCAQgk_14scion_protobuf6daemon2v121daemon_service_clientINtB9_19DaemonServiceClientpE14dr_key_as_hostpE00Bf_
FNDA:0,_RNCNCINvMs_NtNtNtCsk5MUdMCAQgk_14scion_protobuf6daemon2v121daemon_service_clientINtB9_19DaemonServiceClientpE14dr_key_host_aspE00Bf_
FNDA:0,_RNCNCINvMs_NtNtNtCsk5MUdMCAQgk_14scion_protobuf6daemon2v121daemon_service_clientINtB9_19DaemonServiceClientpE16dr_key_host_hostpE00Bf_
FNDA:0,_RNCNCINvMs_NtNtNtCsk5MUdMCAQgk_14scion_protobuf6daemon2v121daemon_service_clientINtB9_19DaemonServiceClientpE21notify_interface_downpE00Bf_
FNDA:0,_RNCNCINvMs_NtNtNtCsk5MUdMCAQgk_14scion_protobuf6daemon2v121daemon_service_clientINtB9_19DaemonServiceClientpE2aspE00Bf_
FNDA:0,_RNCNCINvMs_NtNtNtCsk5MUdMCAQgk_14scion_protobuf6daemon2v121daemon_service_clientINtB9_19DaemonServiceClientpE5pathspE00Bf_
FNDA:0,_RNCNCINvMs_NtNtNtCsk5MUdMCAQgk_14scion_protobuf6daemon2v121daemon_service_clientINtB9_19DaemonServiceClientpE8servicespE00Bf_
FNDA:0,_RNCNvXININtNtNtCsk5MUdMCAQgk_14scion_protobuf6daemon2v121daemon_service_servers_0ppEINtB7_19DaemonServiceServerpEINtCsamObgW7glvt_13tower_service7ServiceINtNtCsjYnxdl0q3X8_4http7request7RequestpEE4call0Bd_
FNDA:0,_RNCNvXININtNtNtCsk5MUdMCAQgk_14scion_protobuf6daemon2v121daemon_service_servers_0ppEINtB7_19DaemonServiceServerpEINtCsamObgW7glvt_13tower_service7ServiceINtNtCsjYnxdl0q3X8_4http7request7RequestpEE4calls0_0Bd_
FNDA:0,_RNCNvXININtNtNtCsk5MUdMCAQgk_14scion_protobuf6daemon2v121daemon_service_servers_0ppEINtB7_19DaemonServiceServerpEINtCsamObgW7glvt_13tower_service7ServiceINtNtCsjYnxdl0q3X8_4http7request7RequestpEE4calls1_0Bd_
FNDA:0,_RNCNvXININtNtNtCsk5MUdMCAQgk_14scion_protobuf6daemon2v121daemon_service_servers_0ppEINtB7_19DaemonServiceServerpEINtCsamObgW7glvt_13tower_service7ServiceINtNtCsjYnxdl0q3X8_4http7request7RequestpEE4calls2_0Bd_
FNDA:0,_RNCNvXININtNtNtCsk5MUdMCAQgk_14scion_protobuf6daemon2v121daemon_service_servers_0ppEINtB7_19DaemonServiceServerpEINtCsamObgW7glvt_13tower_service7ServiceINtNtCsjYnxdl0q3X8_4http7request7RequestpEE4calls3_0Bd_
FNDA:0,_RNCNvXININtNtNtCsk5MUdMCAQgk_14scion_protobuf6daemon2v121daemon_service_servers_0ppEINtB7_19DaemonServiceServerpEINtCsamObgW7glvt_13tower_service7ServiceINtNtCsjYnxdl0q3X8_4http7request7RequestpEE4calls4_0Bd_
FNDA:0,_RNCNvXININtNtNtCsk5MUdMCAQgk_14scion_protobuf6daemon2v121daemon_service_servers_0ppEINtB7_19DaemonServiceServerpEINtCsamObgW7glvt_13tower_service7ServiceINtNtCsjYnxdl0q3X8_4http7request7RequestpEE4calls5_0Bd_
FNDA:0,_RNCNvXININtNtNtCsk5MUdMCAQgk_14scion_protobuf6daemon2v121daemon_service_servers_0ppEINtB7_19DaemonServiceServerpEINtCsamObgW7glvt_13tower_service7ServiceINtNtCsjYnxdl0q3X8_4http7request7RequestpEE4calls6_0Bd_
FNDA:0,_RNCNvXININtNtNtCsk5MUdMCAQgk_14scion_protobuf6daemon2v121daemon_service_servers_0ppEINtB7_19DaemonServiceServerpEINtCsamObgW7glvt_13tower_service7ServiceINtNtCsjYnxdl0q3X8_4http7request7RequestpEE4calls_0Bd_
FNDA:0,_RNCNvXININvXs_NtNtNtCsk5MUdMCAQgk_14scion_protobuf6daemon2v121daemon_service_serverINtBc_19DaemonServiceServerpEINtCsamObgW7glvt_13tower_service7ServiceINtNtCsjYnxdl0q3X8_4http7request7RequestpEE4call0pEINtB7_8PathsSvcpEINtNtNtCs5VJ8GLlaEd8_5tonic6server7service12UnaryServiceNtBe_12PathsRequestE4call0Bi_
FNDA:0,_RNCNvXININvXs_NtNtNtCsk5MUdMCAQgk_14scion_protobuf6daemon2v121daemon_service_serverINtBc_19DaemonServiceServerpEINtCsamObgW7glvt_13tower_service7ServiceINtNtCsjYnxdl0q3X8_4http7request7RequestpEE4calls0_0pEINtB7_13InterfacesSvcpEINtNtNtCs5VJ8GLlaEd8_5tonic6server7service12UnaryServiceNtBe_17InterfacesRequestE4call0Bi_
FNDA:0,_RNCNvXININvXs_NtNtNtCsk5MUdMCAQgk_14scion_protobuf6daemon2v121daemon_service_serverINtBc_19DaemonServiceServerpEINtCsamObgW7glvt_13tower_service7ServiceINtNtCsjYnxdl0q3X8_4http7request7RequestpEE4calls1_0pEINtB7_11ServicesSvcpEINtNtNtCs5VJ8GLlaEd8_5tonic6server7service12UnaryServiceNtBe_15ServicesRequestE4call0Bi_
FNDA:0,_RNCNvXININvXs_NtNtNtCsk5MUdMCAQgk_14scion_protobuf6daemon2v121daemon_service_serverINtBc_19DaemonServiceServerpEINtCsamObgW7glvt_13tower_service7ServiceINtNtCsjYnxdl0q3X8_4http7request7RequestpEE4calls2_0pEINtB7_22NotifyInterfaceDownSvcpEINtNtNtCs5VJ8GLlaEd8_5tonic6server7service12UnaryServiceNtBe_26NotifyInterfaceDownRequestE4call0Bi_
FNDA:0,_RNCNvXININvXs_NtNtNtCsk5MUdMCAQgk_14scion_protobuf6daemon2v121daemon_service_serverINtBc_19DaemonServiceServerpEINtCsamObgW7glvt_13tower_service7ServiceINtNtCsjYnxdl0q3X8_4http7request7RequestpEE4calls3_0pEINtB7_14DRKeyASHostSvcpEINtNtNtCs5VJ8GLlaEd8_5tonic6server7service12UnaryServiceNtBe_18DrKeyAsHostRequestE4call0Bi_
FNDA:0,_RNCNvXININvXs_NtNtNtCsk5MUdMCAQgk_14scion_protobuf6daemon2v121daemon_service_serverINtBc_19DaemonServiceServerpEINtCsamObgW7glvt_13tower_service7ServiceINtNtCsjYnxdl0q3X8_4http7request7RequestpEE4calls4_0pEINtB7_14DRKeyHostASSvcpEINtNtNtCs5VJ8GLlaEd8_5tonic6server7service12UnaryServiceNtBe_18DrKeyHostAsRequestE4call0Bi_
FNDA:0,_RNCNvXININvXs_NtNtNtCsk5MUdMCAQgk_14scion_protobuf6daemon2v121daemon_service_serverINtBc_19DaemonServiceServerpEINtCsamObgW7glvt_13tower_service7ServiceINtNtCsjYnxdl0q3X8_4http7request7RequestpEE4calls5_0pEINtB7_16DRKeyHostHostSvcpEINtNtNtCs5VJ8GLlaEd8_5tonic6server7service12UnaryServiceNtBe_20DrKeyHostHostRequestE4call0Bi_
FNDA:0,_RNCNvXININvXs_NtNtNtCsk5MUdMCAQgk_14scion_protobuf6daemon2v121daemon_service_serverINtBc_19DaemonServiceServerpEINtCsamObgW7glvt_13tower_service7ServiceINtNtCsjYnxdl0q3X8_4http7request7RequestpEE4calls_0pEINtB7_5ASSvcpEINtNtNtCs5VJ8GLlaEd8_5tonic6server7service12UnaryServiceNtBe_9AsRequestE4call0Bi_
FNDA:0,_RNvMNtNtCsk5MUdMCAQgk_14scion_protobuf6daemon2v1NtB2_8LinkType11as_str_name
FNDA:0,_RNvMNtNtCsk5MUdMCAQgk_14scion_protobuf6daemon2v1NtB2_8LinkType13from_str_name
FNDA:0,_RNvMNtNtNtCsk5MUdMCAQgk_14scion_protobuf6daemon2v121daemon_service_serverINtB2_19DaemonServiceServerpE15send_compressedB8_
FNDA:0,_RNvMNtNtNtCsk5MUdMCAQgk_14scion_protobuf6daemon2v121daemon_service_serverINtB2_19DaemonServiceServerpE17accept_compressedB8_
FNDA:0,_RNvMNtNtNtCsk5MUdMCAQgk_14scion_protobuf6daemon2v121daemon_service_serverINtB2_19DaemonServiceServerpE25max_decoding_message_sizeB8_
FNDA:0,_RNvMNtNtNtCsk5MUdMCAQgk_14scion_protobuf6daemon2v121daemon_service_serverINtB2_19DaemonServiceServerpE25max_encoding_message_sizeB8_
FNDA:0,_RNvMNtNtNtCsk5MUdMCAQgk_14scion_protobuf6daemon2v121daemon_service_serverINtB2_19DaemonServiceServerpE3newB8_
FNDA:0,_RNvMNtNtNtCsk5MUdMCAQgk_14scion_protobuf6daemon2v121daemon_service_serverINtB2_19DaemonServiceServerpE8from_arcB8_
FNDA:0,_RNvMs_NtNtNtCsk5MUdMCAQgk_14scion_protobuf6daemon2v121daemon_service_clientINtB4_19DaemonServiceClientpE11with_originBa_
FNDA:0,_RNvMs_NtNtNtCsk5MUdMCAQgk_14scion_protobuf6daemon2v121daemon_service_clientINtB4_19DaemonServiceClientpE15send_compressedBa_
FNDA:0,_RNvMs_NtNtNtCsk5MUdMCAQgk_14scion_protobuf6daemon2v121daemon_service_clientINtB4_19DaemonServiceClientpE17accept_compressedBa_
FNDA:0,_RNvMs_NtNtNtCsk5MUdMCAQgk_14scion_protobuf6daemon2v121daemon_service_clientINtB4_19DaemonServiceClientpE25max_decoding_message_sizeBa_
FNDA:0,_RNvMs_NtNtNtCsk5MUdMCAQgk_14scion_protobuf6daemon2v121daemon_service_clientINtB4_19DaemonServiceClientpE25max_encoding_message_sizeBa_
FNDA:0,_RNvMs_NtNtNtCsk5MUdMCAQgk_14scion_protobuf6daemon2v121daemon_service_clientINtB4_19DaemonServiceClientpE3newBa_
FNDA:0,_RNvXININtNtNtCsk5MUdMCAQgk_14scion_protobuf6daemon2v121daemon_service_servers0_0pEINtB5_19DaemonServiceServerpENtNtCs4eoa8Adtn6U_4core5clone5Clone5cloneBb_
FNDA:0,_RNvXININtNtNtCsk5MUdMCAQgk_14scion_protobuf6daemon2v121daemon_service_servers_0ppEINtB5_19DaemonServiceServerpEINtCsamObgW7glvt_13tower_service7ServiceINtNtCsjYnxdl0q3X8_4http7request7RequestpEE10poll_readyBb_
FNDA:0,_RNvXININtNtNtCsk5MUdMCAQgk_14scion_protobuf6daemon2v121daemon_service_servers_0ppEINtB5_19DaemonServiceServerpEINtCsamObgW7glvt_13tower_service7ServiceINtNtCsjYnxdl0q3X8_4http7request7RequestpEE4callBb_
FNDA:0,_RNvXININvXs_NtNtNtCsk5MUdMCAQgk_14scion_protobuf6daemon2v121daemon_service_serverINtBa_19DaemonServiceServerpEINtCsamObgW7glvt_13tower_service7ServiceINtNtCsjYnxdl0q3X8_4http7request7RequestpEE4call0pEINtB5_8PathsSvcpEINtNtNtCs5VJ8GLlaEd8_5tonic6server7service12UnaryServiceNtBc_12PathsRequestE4callBg_
FNDA:0,_RNvXININvXs_NtNtNtCsk5MUdMCAQgk_14scion_protobuf6daemon2v121daemon_service_serverINtBa_19DaemonServiceServerpEINtCsamObgW7glvt_13tower_service7ServiceINtNtCsjYnxdl0q3X8_4http7request7RequestpEE4calls0_0pEINtB5_13InterfacesSvcpEINtNtNtCs5VJ8GLlaEd8_5tonic6server7service12UnaryServiceNtBc_17InterfacesRequestE4callBg_
FNDA:0,_RNvXININvXs_NtNtNtCsk5MUdMCAQgk_14scion_protobuf6daemon2v121daemon_service_serverINtBa_19DaemonServiceServerpEINtCsamObgW7glvt_13tower_service7ServiceINtNtCsjYnxdl0q3X8_4http7request7RequestpEE4calls1_0pEINtB5_11ServicesSvcpEINtNtNtCs5VJ8GLlaEd8_5tonic6server7service12UnaryServiceNtBc_15ServicesRequestE4callBg_
FNDA:0,_RNvXININvXs_NtNtNtCsk5MUdMCAQgk_14scion_protobuf6daemon2v121daemon_service_serverINtBa_19DaemonServiceServerpEINtCsamObgW7glvt_13tower_service7ServiceINtNtCsjYnxdl0q3X8_4http7request7RequestpEE4calls2_0pEINtB5_22NotifyInterfaceDownSvcpEINtNtNtCs5VJ8GLlaEd8_5tonic6server7service12UnaryServiceNtBc_26NotifyInterfaceDownRequestE4callBg_
FNDA:0,_RNvXININvXs_NtNtNtCsk5MUdMCAQgk_14scion_protobuf6daemon2v121daemon_service_serverINtBa_19DaemonServiceServerpEINtCsamObgW7glvt_13tower_service7ServiceINtNtCsjYnxdl0q3X8_4http7request7RequestpEE4calls3_0pEINtB5_14DRKeyASHostSvcpEINtNtNtCs5VJ8GLlaEd8_5tonic6server7service12UnaryServiceNtBc_18DrKeyAsHostRequestE4callBg_
FNDA:0,_RNvXININvXs_NtNtNtCsk5MUdMCAQgk_14scion_protobuf6daemon2v121daemon_service_serverINtBa_19DaemonServiceServerpEINtCsamObgW7glvt_13tower_service7ServiceINtNtCsjYnxdl0q3X8_4http7request7RequestpEE4calls4_0pEINtB5_14DRKeyHostASSvcpEINtNtNtCs5VJ8GLlaEd8_5tonic6server7service12UnaryServiceNtBc_18DrKeyHostAsRequestE4callBg_
FNDA:0,_RNvXININvXs_NtNtNtCsk5MUdMCAQgk_14scion_protobuf6daemon2v121daemon_service_serverINtBa_19DaemonServiceServerpEINtCsamObgW7glvt_13tower_service7ServiceINtNtCsjYnxdl0q3X8_4http7request7RequestpEE4calls5_0pEINtB5_16DRKeyHostHostSvcpEINtNtNtCs5VJ8GLlaEd8_5tonic6server7service12UnaryServiceNtBc_20DrKeyHostHostRequestE4callBg_
FNDA:0,_RNvXININvXs_NtNtNtCsk5MUdMCAQgk_14scion_protobuf6daemon2v121daemon_service_serverINtBa_19DaemonServiceServerpEINtCsamObgW7glvt_13tower_service7ServiceINtNtCsjYnxdl0q3X8_4http7request7RequestpEE4calls_0pEINtB5_5ASSvcpEINtNtNtCs5VJ8GLlaEd8_5tonic6server7service12UnaryServiceNtBc_9AsRequestE4callBg_
FNF:70
FNH:0
DA:297,0
DA:298,0
DA:299,0
DA:300,0
DA:301,0
DA:302,0
DA:304,0
DA:306,0
DA:307,0
DA:308,0
DA:309,0
DA:310,0
DA:311,0
DA:312,0
DA:314,0
DA:333,0
DA:334,0
DA:335,0
DA:336,0
DA:337,0
DA:338,0
DA:339,0
DA:340,0
DA:349,0
DA:350,0
DA:351,0
DA:352,0
DA:353,0
DA:354,0
DA:355,0
DA:356,0
DA:357,0
DA:358,0
DA:359,0
DA:360,0
DA:361,0
DA:362,0
DA:363,0
DA:364,0
DA:365,0
DA:366,0
DA:367,0
DA:368,0
DA:369,0
DA:370,0
DA:371,0
DA:372,0
DA:374,0
DA:375,0
DA:381,0
DA:382,0
DA:383,0
DA:384,0
DA:387,0
DA:388,0
DA:389,0
DA:390,0
DA:395,0
DA:396,0
DA:397,0
DA:398,0
DA:403,0
DA:404,0
DA:405,0
DA:406,0
DA:408,0
DA:409,0
DA:410,0
DA:411,0
DA:412,0
DA:413,0
DA:414,0
DA:415,0
DA:416,0
DA:417,0
DA:419,0
DA:420,0
DA:421,0
DA:424,0
DA:425,0
DA:426,0
DA:427,0
DA:428,0
DA:430,0
DA:431,0
DA:432,0
DA:433,0
DA:434,0
DA:435,0
DA:436,0
DA:437,0
DA:438,0
DA:439,0
DA:441,0
DA:442,0
DA:443,0
DA:446,0
DA:447,0
DA:448,0
DA:449,0
DA:450,0
DA:453,0
DA:454,0
DA:455,0
DA:456,0
DA:457,0
DA:458,0
DA:459,0
DA:460,0
DA:461,0
DA:462,0
DA:463,0
DA:464,0
DA:465,0
DA:467,0
DA:468,0
DA:469,0
DA:472,0
DA:473,0
DA:474,0
DA:475,0
DA:476,0
DA:479,0
DA:480,0
DA:481,0
DA:482,0
DA:483,0
DA:484,0
DA:485,0
DA:486,0
DA:487,0
DA:488,0
DA:489,0
DA:490,0
DA:491,0
DA:493,0
DA:494,0
DA:495,0
DA:498,0
DA:499,0
DA:500,0
DA:501,0
DA:502,0
DA:504,0
DA:505,0
DA:506,0
DA:507,0
DA:508,0
DA:509,0
DA:510,0
DA:511,0
DA:512,0
DA:513,0
DA:514,0
DA:515,0
DA:516,0
DA:518,0
DA:519,0
DA:520,0
DA:523,0
DA:524,0
DA:525,0
DA:526,0
DA:527,0
DA:528,0
DA:531,0
DA:532,0
DA:534,0
DA:535,0
DA:536,0
DA:537,0
DA:538,0
DA:539,0
DA:540,0
DA:541,0
DA:542,0
DA:543,0
DA:544,0
DA:545,0
DA:546,0
DA:548,0
DA:549,0
DA:550,0
DA:553,0
DA:554,0
DA:555,0
DA:556,0
DA:557,0
DA:559,0
DA:560,0
DA:561,0
DA:562,0
DA:563,0
DA:564,0
DA:565,0
DA:566,0
DA:567,0
DA:568,0
DA:569,0
DA:570,0
DA:571,0
DA:573,0
DA:574,0
DA:575,0
DA:578,0
DA:579,0
DA:580,0
DA:581,0
DA:582,0
DA:584,0
DA:585,0
DA:586,0
DA:587,0
DA:588,0
DA:589,0
DA:590,0
DA:591,0
DA:592,0
DA:593,0
DA:594,0
DA:595,0
DA:596,0
DA:598,0
DA:599,0
DA:600,0
DA:603,0
DA:604,0
DA:605,0
DA:606,0
DA:608,0
DA:609,0
DA:695,0
DA:696,0
DA:697,0
DA:698,0
DA:699,0
DA:700,0
DA:701,0
DA:702,0
DA:703,0
DA:704,0
DA:705,0
DA:706,0
DA:707,0
DA:708,0
DA:709,0
DA:710,0
DA:711,0
DA:712,0
DA:714,0
DA:715,0
DA:718,0
DA:719,0
DA:720,0
DA:721,0
DA:724,0
DA:725,0
DA:726,0
DA:727,0
DA:732,0
DA:733,0
DA:734,0
DA:735,0
DA:740,0
DA:741,0
DA:742,0
DA:743,0
DA:754,0
DA:755,0
DA:756,0
DA:757,0
DA:758,0
DA:759,0
DA:760,0
DA:761,0
DA:762,0
DA:773,0
DA:774,0
DA:775,0
DA:776,0
DA:777,0
DA:778,0
DA:779,0
DA:780,0
DA:781,0
DA:782,0
DA:784,0
DA:785,0
DA:786,0
DA:787,0
DA:788,0
DA:789,0
DA:790,0
DA:791,0
DA:792,0
DA:793,0
DA:794,0
DA:795,0
DA:797,0
DA:798,0
DA:799,0
DA:801,0
DA:802,0
DA:803,0
DA:804,0
DA:806,0
DA:816,0
DA:817,0
DA:818,0
DA:819,0
DA:820,0
DA:821,0
DA:822,0
DA:823,0
DA:824,0
DA:825,0
DA:827,0
DA:828,0
DA:829,0
DA:830,0
DA:831,0
DA:832,0
DA:833,0
DA:834,0
DA:835,0
DA:836,0
DA:837,0
DA:838,0
DA:840,0
DA:841,0
DA:842,0
DA:844,0
DA:845,0
DA:846,0
DA:847,0
DA:849,0
DA:861,0
DA:862,0
DA:863,0
DA:864,0
DA:865,0
DA:866,0
DA:867,0
DA:868,0
DA:869,0
DA:870,0
DA:872,0
DA:873,0
DA:874,0
DA:875,0
DA:876,0
DA:877,0
DA:878,0
DA:879,0
DA:880,0
DA:881,0
DA:882,0
DA:883,0
DA:885,0
DA:886,0
DA:887,0
DA:889,0
DA:890,0
DA:891,0
DA:892,0
DA:894,0
DA:906,0
DA:907,0
DA:908,0
DA:909,0
DA:910,0
DA:911,0
DA:912,0
DA:913,0
DA:914,0
DA:915,0
DA:917,0
DA:918,0
DA:919,0
DA:920,0
DA:921,0
DA:922,0
DA:923,0
DA:924,0
DA:925,0
DA:926,0
DA:927,0
DA:928,0
DA:930,0
DA:931,0
DA:932,0
DA:934,0
DA:935,0
DA:936,0
DA:937,0
DA:939,0
DA:951,0
DA:952,0
DA:953,0
DA:954,0
DA:955,0
DA:956,0
DA:957,0
DA:958,0
DA:959,0
DA:960,0
DA:961,0
DA:963,0
DA:964,0
DA:965,0
DA:966,0
DA:967,0
DA:968,0
DA:969,0
DA:970,0
DA:971,0
DA:972,0
DA:973,0
DA:974,0
DA:976,0
DA:977,0
DA:978,0
DA:980,0
DA:981,0
DA:982,0
DA:983,0
DA:985,0
DA:997,0
DA:998,0
DA:999,0
DA:1000,0
DA:1001,0
DA:1002,0
DA:1003,0
DA:1004,0
DA:1005,0
DA:1006,0
DA:1008,0
DA:1009,0
DA:1010,0
DA:1011,0
DA:1012,0
DA:1013,0
DA:1014,0
DA:1015,0
DA:1016,0
DA:1017,0
DA:1018,0
DA:1019,0
DA:1021,0
DA:1022,0
DA:1023,0
DA:1025,0
DA:1026,0
DA:1027,0
DA:1028,0
DA:1030,0
DA:1042,0
DA:1043,0
DA:1044,0
DA:1045,0
DA:1046,0
DA:1047,0
DA:1048,0
DA:1049,0
DA:1050,0
DA:1051,0
DA:1053,0
DA:1054,0
DA:1055,0
DA:1056,0
DA:1057,0
DA:1058,0
DA:1059,0
DA:1060,0
DA:1061,0
DA:1062,0
DA:1063,0
DA:1064,0
DA:1066,0
DA:1067,0
DA:1068,0
DA:1070,0
DA:1071,0
DA:1072,0
DA:1073,0
DA:1075,0
DA:1087,0
DA:1088,0
DA:1089,0
DA:1090,0
DA:1091,0
DA:1092,0
DA:1093,0
DA:1094,0
DA:1095,0
DA:1096,0
DA:1097,0
DA:1099,0
DA:1100,0
DA:1101,0
DA:1102,0
DA:1103,0
DA:1104,0
DA:1105,0
DA:1106,0
DA:1107,0
DA:1108,0
DA:1109,0
DA:1110,0
DA:1112,0
DA:1113,0
DA:1114,0
DA:1116,0
DA:1117,0
DA:1118,0
DA:1119,0
DA:1122,0
DA:1123,0
DA:1124,0
DA:1126,0
DA:1127,0
DA:1128,0
DA:1129,0
DA:1130,0
DA:1132,0
DA:1133,0
DA:1134,0
DA:1135,0
DA:1137,0
DA:1138,0
DA:1141,0
DA:1144,0
DA:1145,0
DA:1146,0
DA:1147,0
DA:1148,0
DA:1149,0
DA:1150,0
DA:1151,0
DA:1152,0
DA:1153,0
BRF:0
BRH:0
LF:583
LH:0
end_of_record
SF:/home/akelbsch/projects/scion/endhost/public/scion-proto/scion-protobuf/src/proto/proto.drkey.v1.rs
FN:15,_RNvMNtNtCsk5MUdMCAQgk_14scion_protobuf5drkey2v1NtB2_8Protocol11as_str_name
FN:22,_RNvMNtNtCsk5MUdMCAQgk_14scion_protobuf5drkey2v1NtB2_8Protocol13from_str_name
FNDA:0,_RNvMNtNtCsk5MUdMCAQgk_14scion_protobuf5drkey2v1NtB2_8Protocol11as_str_name
FNDA:0,_RNvMNtNtCsk5MUdMCAQgk_14scion_protobuf5drkey2v1NtB2_8Protocol13from_str_name
FNF:2
FNH:0
DA:15,0
DA:16,0
DA:17,0
DA:18,0
DA:20,0
DA:22,0
DA:23,0
DA:24,0
DA:25,0
DA:26,0
DA:28,0
BRF:0
BRH:0
LF:11
LH:0
end_of_record
SF:/home/akelbsch/projects/scion/endhost/public/scion-proto/sciparse/src/core/debug.rs
FN:83,_RNCNvMs_NtNtCsdVnVozic4xr_8sciparse4core5debugNtB6_11Annotations3adds_0Ba_
FN:72,_RNCNvMs_NtNtCsdVnVozic4xr_8sciparse4core5debugNtB6_11Annotations6extends_0Ba_
FN:284,_RNCNvNtNtCsdVnVozic4xr_8sciparse4core5debug18offset_annotations0B7_
FN:76,_RNvMs_NtNtCsdVnVozic4xr_8sciparse4core5debugNtB4_11Annotations3add
FN:42,_RNvMs_NtNtCsdVnVozic4xr_8sciparse4core5debugNtB4_11Annotations3new
FN:60,_RNvMs_NtNtCsdVnVozic4xr_8sciparse4core5debugNtB4_11Annotations6extend
FN:50,_RNvMs_NtNtCsdVnVozic4xr_8sciparse4core5debugNtB4_11Annotations8new_with
FN:278,_RNvNtNtCsdVnVozic4xr_8sciparse4core5debug18offset_annotations
FN:100,_RINvMs0_NtNtCsdVnVozic4xr_8sciparse4core5debugNtB6_11Annotations13fmt_on_bufferpEBa_
FN:124,_RNCINvMs0_NtNtCsdVnVozic4xr_8sciparse4core5debugNtB8_11Annotations13fmt_on_bufferpE0Bc_
FN:200,_RNCINvMs0_NtNtCsdVnVozic4xr_8sciparse4core5debugNtB8_11Annotations13fmt_on_bufferpEs2_0Bc_
FN:213,_RNCINvMs0_NtNtCsdVnVozic4xr_8sciparse4core5debugNtB8_11Annotations13fmt_on_bufferpEs3_0Bc_
FN:137,_RNCINvMs0_NtNtCsdVnVozic4xr_8sciparse4core5debugNtB8_11Annotations13fmt_on_bufferpEs_0Bc_
FN:141,_RNCNCINvMs0_NtNtCsdVnVozic4xr_8sciparse4core5debugNtBa_11Annotations13fmt_on_bufferpEs_00Be_
FN:143,_RNCNCINvMs0_NtNtCsdVnVozic4xr_8sciparse4core5debugNtBa_11Annotations13fmt_on_bufferpEs_0s_0Be_
FN:36,_RNvXNtNtCsdVnVozic4xr_8sciparse4core5debugNtB2_11AnnotationsNtNtCs4eoa8Adtn6U_4core7default7Default7default
FNDA:0,_RNCNvMs_NtNtCsdVnVozic4xr_8sciparse4core5debugNtB6_11Annotations3adds_0Ba_
FNDA:0,_RNCNvMs_NtNtCsdVnVozic4xr_8sciparse4core5debugNtB6_11Annotations6extends_0Ba_
FNDA:0,_RNCNvNtNtCsdVnVozic4xr_8sciparse4core5debug18offset_annotations0B7_
FNDA:0,_RNvMs_NtNtCsdVnVozic4xr_8sciparse4core5debugNtB4_11Annotations3add
FNDA:0,_RNvMs_NtNtCsdVnVozic4xr_8sciparse4core5debugNtB4_11Annotations3new
FNDA:0,_RNvMs_NtNtCsdVnVozic4xr_8sciparse4core5debugNtB4_11Annotations6extend
FNDA:0,_RNvMs_NtNtCsdVnVozic4xr_8sciparse4core5debugNtB4_11Annotations8new_with
FNDA:0,_RNvNtNtCsdVnVozic4xr_8sciparse4core5debug18offset_annotations
FNDA:0,_RINvMs0_NtNtCsdVnVozic4xr_8sciparse4core5debugNtB6_11Annotations13fmt_on_bufferpEBa_
FNDA:0,_RNCINvMs0_NtNtCsdVnVozic4xr_8sciparse4core5debugNtB8_11Annotations13fmt_on_bufferpE0Bc_
FNDA:0,_RNCINvMs0_NtNtCsdVnVozic4xr_8sciparse4core5debugNtB8_11Annotations13fmt_on_bufferpEs2_0Bc_
FNDA:0,_RNCINvMs0_NtNtCsdVnVozic4xr_8sciparse4core5debugNtB8_11Annotations13fmt_on_bufferpEs3_0Bc_
FNDA:0,_RNCINvMs0_NtNtCsdVnVozic4xr_8sciparse4core5debugNtB8_11Annotations13fmt_on_bufferpEs_0Bc_
FNDA:0,_RNCNCINvMs0_NtNtCsdVnVozic4xr_8sciparse4core5debugNtBa_11Annotations13fmt_on_bufferpEs_00Be_
FNDA:0,_RNCNCINvMs0_NtNtCsdVnVozic4xr_8sciparse4core5debugNtBa_11Annotations13fmt_on_bufferpEs_0s_0Be_
FNDA:0,_RNvXNtNtCsdVnVozic4xr_8sciparse4core5debugNtB2_11AnnotationsNtNtCs4eoa8Adtn6U_4core7default7Default7default
FNF:16
FNH:0
DA:36,0
DA:37,0
DA:38,0
DA:42,0
DA:43,0
DA:44,0
DA:45,0
DA:46,0
DA:47,0
DA:50,0
DA:51,0
DA:52,0
DA:53,0
DA:54,0
DA:60,0
DA:61,0
DA:62,0
DA:63,0
DA:64,0
DA:65,0
DA:66,0
DA:67,0
DA:69,0
DA:70,0
DA:71,0
DA:72,0
DA:73,0
DA:76,0
DA:77,0
DA:78,0
DA:80,0
DA:81,0
DA:82,0
DA:83,0
DA:84,0
DA:100,0
DA:101,0
DA:102,0
DA:103,0
DA:104,0
DA:105,0
DA:114,0
DA:115,0
DA:118,0
DA:119,0
DA:122,0
DA:123,0
DA:124,0
DA:125,0
DA:126,0
DA:127,0
DA:128,0
DA:133,0
DA:137,0
DA:138,0
DA:139,0
DA:141,0
DA:143,0
DA:144,0
DA:145,0
DA:148,0
DA:149,0
DA:151,0
DA:153,0
DA:154,0
DA:157,0
DA:158,0
DA:159,0
DA:160,0
DA:161,0
DA:164,0
DA:165,0
DA:166,0
DA:167,0
DA:168,0
DA:171,0
DA:172,0
DA:173,0
DA:175,0
DA:176,0
DA:179,0
DA:180,0
DA:181,0
DA:183,0
DA:184,0
DA:186,0
DA:187,0
DA:188,0
DA:191,0
DA:193,0
DA:194,0
DA:195,0
DA:196,0
DA:197,0
DA:198,0
DA:199,0
DA:200,0
DA:202,0
DA:205,0
DA:210,0
DA:211,0
DA:212,0
DA:213,0
DA:214,0
DA:216,0
DA:218,0
DA:221,0
DA:222,0
DA:223,0
DA:226,0
DA:227,0
DA:228,0
DA:229,0
DA:231,0
DA:233,0
DA:236,0
DA:237,0
DA:241,0
DA:242,0
DA:243,0
DA:245,0
DA:249,0
DA:252,0
DA:253,0
DA:254,0
DA:260,0
DA:261,0
DA:265,0
DA:268,0
DA:269,0
DA:278,0
DA:279,0
DA:280,0
DA:281,0
DA:282,0
DA:283,0
DA:284,0
DA:285,0
DA:286,0
BRF:0
BRH:0
LF:147
LH:0
end_of_record
SF:/home/akelbsch/projects/scion/endhost/public/scion-proto/sciparse/src/core/encode.rs
FN:102,_RNvXNtNtCsdVnVozic4xr_8sciparse4core6encodeNtB2_21InvalidStructureErrorINtNtCs4eoa8Adtn6U_4core7convert4FromReE4from
FN:79,_RNvYpNtNtNtCsdVnVozic4xr_8sciparse4core6encode10WireEncode13encode_to_vecB9_
FN:66,_RNvYpNtNtNtCsdVnVozic4xr_8sciparse4core6encode10WireEncode6encodeB9_
FNDA:0,_RNvXNtNtCsdVnVozic4xr_8sciparse4core6encodeNtB2_21InvalidStructureErrorINtNtCs4eoa8Adtn6U_4core7convert4FromReE4from
FNDA:0,_RNvYpNtNtNtCsdVnVozic4xr_8sciparse4core6encode10WireEncode13encode_to_vecB9_
FNDA:0,_RNvYpNtNtNtCsdVnVozic4xr_8sciparse4core6encode10WireEncode6encodeB9_
FNF:3
FNH:0
DA:66,0
DA:67,0
DA:69,0
DA:70,0
DA:71,0
DA:72,0
DA:75,0
DA:76,0
DA:79,0
DA:80,0
DA:81,0
DA:82,0
DA:83,0
DA:102,0
DA:103,0
DA:104,0
BRF:0
BRH:0
LF:16
LH:0
end_of_record
SF:/home/akelbsch/projects/scion/endhost/public/scion-proto/sciparse/src/core/layout.rs
FN:99,_RNvMNtNtCsdVnVozic4xr_8sciparse4core6layoutNtB2_8BitRange10from_range
FN:165,_RNvMNtNtCsdVnVozic4xr_8sciparse4core6layoutNtB2_8BitRange10shift_bits
FN:143,_RNvMNtNtCsdVnVozic4xr_8sciparse4core6layoutNtB2_8BitRange10size_bytes
FN:123,_RNvMNtNtCsdVnVozic4xr_8sciparse4core6layoutNtB2_8BitRange18aligned_byte_range
FN:135,_RNvMNtNtCsdVnVozic4xr_8sciparse4core6layoutNtB2_8BitRange21containing_byte_range
FN:84,_RNvMNtNtCsdVnVozic4xr_8sciparse4core6layoutNtB2_8BitRange3new
FN:157,_RNvMNtNtCsdVnVozic4xr_8sciparse4core6layoutNtB2_8BitRange5shift
FN:93,_RNvMNtNtCsdVnVozic4xr_8sciparse4core6layoutNtB2_8BitRange8max_uint
FN:108,_RNvMNtNtCsdVnVozic4xr_8sciparse4core6layoutNtB2_8BitRange9bit_range
FN:150,_RNvMNtNtCsdVnVozic4xr_8sciparse4core6layoutNtB2_8BitRange9size_bits
FN:42,_RNvYNtNtNtNtCsdVnVozic4xr_8sciparse5proto6header6layout18CommonHeaderLayoutNtNtNtBa_4core6layout6Layout17split_off_checkedBa_
FN:35,_RNvYNtNtNtNtNtCsdVnVozic4xr_8sciparse5proto14dataplane_path8standard6layout14HopFieldLayoutNtNtNtBc_4core6layout6Layout9size_bitsBc_
FN:35,_RNvYNtNtNtNtNtCsdVnVozic4xr_8sciparse5proto14dataplane_path8standard6layout15InfoFieldLayoutNtNtNtBc_4core6layout6Layout9size_bitsBc_
FN:42,_RNvYNtNtNtNtNtCsdVnVozic4xr_8sciparse5proto14dataplane_path8standard6layout17StdPathMetaLayoutNtNtNtBc_4core6layout6Layout17split_off_checkedBc_
FN:114,_RNvMNtNtCsdVnVozic4xr_8sciparse4core6layoutNtB2_8BitRange8contains
FNDA:8406,_RNvMNtNtCsdVnVozic4xr_8sciparse4core6layoutNtB2_8BitRange10from_range
FNDA:0,_RNvMNtNtCsdVnVozic4xr_8sciparse4core6layoutNtB2_8BitRange10shift_bits
FNDA:367496,_RNvMNtNtCsdVnVozic4xr_8sciparse4core6layoutNtB2_8BitRange10size_bytes
FNDA:19254,_RNvMNtNtCsdVnVozic4xr_8sciparse4core6layoutNtB2_8BitRange18aligned_byte_range
FNDA:547865,_RNvMNtNtCsdVnVozic4xr_8sciparse4core6layoutNtB2_8BitRange21containing_byte_range
FNDA:504,_RNvMNtNtCsdVnVozic4xr_8sciparse4core6layoutNtB2_8BitRange3new
FNDA:22904,_RNvMNtNtCsdVnVozic4xr_8sciparse4core6layoutNtB2_8BitRange5shift
FNDA:0,_RNvMNtNtCsdVnVozic4xr_8sciparse4core6layoutNtB2_8BitRange8max_uint
FNDA:180369,_RNvMNtNtCsdVnVozic4xr_8sciparse4core6layoutNtB2_8BitRange9bit_range
FNDA:180369,_RNvMNtNtCsdVnVozic4xr_8sciparse4core6layoutNtB2_8BitRange9size_bits
FNDA:2111,_RNvYNtNtNtNtCsdVnVozic4xr_8sciparse5proto6header6layout18CommonHeaderLayoutNtNtNtBa_4core6layout6Layout17split_off_checkedBa_
FNDA:349,_RNvYNtNtNtNtNtCsdVnVozic4xr_8sciparse5proto14dataplane_path8standard6layout14HopFieldLayoutNtNtNtBc_4core6layout6Layout9size_bitsBc_
FNDA:6018,_RNvYNtNtNtNtNtCsdVnVozic4xr_8sciparse5proto14dataplane_path8standard6layout15InfoFieldLayoutNtNtNtBc_4core6layout6Layout9size_bitsBc_
FNDA:262,_RNvYNtNtNtNtNtCsdVnVozic4xr_8sciparse5proto14dataplane_path8standard6layout17StdPathMetaLayoutNtNtNtBc_4core6layout6Layout17split_off_checkedBc_
FNDA:0,_RNvMNtNtCsdVnVozic4xr_8sciparse4core6layoutNtB2_8BitRange8contains
FNF:13
FNH:10
DA:35,6367
DA:36,6367
DA:37,6367
DA:42,2373
DA:43,2373
DA:44,2373
DA:84,504
DA:85,504
DA:86,504
DA:87,504
DA:88,504
DA:89,504
DA:93,0
DA:94,0
DA:95,0
DA:99,8406
DA:100,8406
DA:101,8406
DA:102,8406
DA:103,8406
DA:104,8406
DA:108,180369
DA:109,180369
DA:110,180369
DA:114,0
DA:115,0
DA:116,0
DA:123,19254
DA:124,19254
DA:125,19254
DA:126,0
DA:128,19254
DA:129,19254
DA:130,19254
DA:135,547865
DA:136,547865
DA:137,547865
DA:138,547865
DA:139,547865
DA:143,367496
DA:144,367496
DA:145,367496
DA:146,367496
DA:150,180369
DA:151,180369
DA:152,180369
DA:153,180369
DA:157,22904
DA:158,22904
DA:159,22904
DA:160,22904
DA:161,22904
DA:165,0
DA:167,0
DA:168,0
DA:170,0
DA:171,0
DA:172,0
DA:173,0
DA:174,0
BRF:0
BRH:0
LF:60
LH:45
end_of_record
SF:/home/akelbsch/projects/scion/endhost/public/scion-proto/sciparse/src/core/macros.rs
FN:31,_RNvXs3_NtNtNtNtCsdVnVozic4xr_8sciparse5scion4path8metadata3geoNtB5_14GeoCoordinatesINtNtCs4eoa8Adtn6U_4core7convert4FromNtNtNtCsk5MUdMCAQgk_14scion_protobuf6daemon2v114GeoCoordinatesE4from
FN:31,_RNvXs4_NtNtNtNtCsdVnVozic4xr_8sciparse5scion4path8metadata3geoNtNtNtCsk5MUdMCAQgk_14scion_protobuf6daemon2v114GeoCoordinatesINtNtCs4eoa8Adtn6U_4core7convert4FromNtB5_14GeoCoordinatesE4from
FN:31,_RNvXs6_NtNtNtNtCsdVnVozic4xr_8sciparse5scion4path8metadata4epicNtNtNtCsk5MUdMCAQgk_14scion_protobuf6daemon2v19EpicAuthsINtNtCs4eoa8Adtn6U_4core7convert4FromNtB5_9EpicAuthsE4from
FN:31,_RNvXsM_NtNtNtCsdVnVozic4xr_8sciparse5scion7address9host_addrNtB5_12WireHostAddrINtNtCs4eoa8Adtn6U_4core7convert4FromNtB5_13ScionHostAddrE4from
FN:31,_RNvXsb_NtNtNtNtCsdVnVozic4xr_8sciparse5scion4path8metadata4linkNtB5_8LinkTypeINtNtCs4eoa8Adtn6U_4core7convert4FromlE4from
FN:42,_RNvXsc_NtNtNtNtCsdVnVozic4xr_8sciparse5proto7payload4scmp4viewNtB5_15ScmpMessageViewINtNtCs4eoa8Adtn6U_4core7convert4FromRNtB5_37ScmpDestinationUnreachableMessageViewE4from
FN:31,_RNvXsd_NtNtNtCsdVnVozic4xr_8sciparse5proto14dataplane_path4viewNtB5_15ScionDpPathViewINtNtCs4eoa8Adtn6U_4core7convert4FromINtNtCslL0sV90nkwC_5alloc5boxed3BoxNtNtNtB7_8standard4view16StandardPathViewEE4from
FN:42,_RNvXsd_NtNtNtNtCsdVnVozic4xr_8sciparse5proto7payload4scmp4viewNtB5_15ScmpMessageViewINtNtCs4eoa8Adtn6U_4core7convert4FromRNtB5_27ScmpPacketTooBigMessageViewE4from
FN:42,_RNvXse_NtNtNtNtCsdVnVozic4xr_8sciparse5proto7payload4scmp4viewNtB5_15ScmpMessageViewINtNtCs4eoa8Adtn6U_4core7convert4FromRNtB5_31ScmpParameterProblemMessageViewE4from
FN:42,_RNvXsf_NtNtNtNtCsdVnVozic4xr_8sciparse5proto7payload4scmp4viewNtB5_15ScmpMessageViewINtNtCs4eoa8Adtn6U_4core7convert4FromRNtB5_36ScmpExternalInterfaceDownMessageViewE4from
FN:42,_RNvXsg_NtNtNtNtCsdVnVozic4xr_8sciparse5proto7payload4scmp4viewNtB5_15ScmpMessageViewINtNtCs4eoa8Adtn6U_4core7convert4FromRNtB5_39ScmpInternalConnectivityDownMessageViewE4from
FN:31,_RNvXsh_NtNtNtCsdVnVozic4xr_8sciparse5scion10identifier7isd_asnNtNtCslL0sV90nkwC_5alloc6string6StringINtNtCs4eoa8Adtn6U_4core7convert4FromNtB5_6IsdAsnE4from
FN:42,_RNvXsh_NtNtNtNtCsdVnVozic4xr_8sciparse5proto7payload4scmp4viewNtB5_15ScmpMessageViewINtNtCs4eoa8Adtn6U_4core7convert4FromRNtB5_26ScmpEchoRequestMessageViewE4from
FN:31,_RNvXsi_NtNtNtCsdVnVozic4xr_8sciparse5scion10identifier7isd_asnyINtNtCs4eoa8Adtn6U_4core7convert4FromNtB5_6IsdAsnE4from
FN:42,_RNvXsi_NtNtNtNtCsdVnVozic4xr_8sciparse5proto7payload4scmp4viewNtB5_15ScmpMessageViewINtNtCs4eoa8Adtn6U_4core7convert4FromRNtB5_24ScmpEchoReplyMessageViewE4from
FN:31,_RNvXsj_NtNtNtCsdVnVozic4xr_8sciparse5scion10identifier7isd_asnNtB5_6IsdAsnINtNtCs4eoa8Adtn6U_4core7convert4FromyE4from
FN:42,_RNvXsj_NtNtNtNtCsdVnVozic4xr_8sciparse5proto7payload4scmp4viewNtB5_15ScmpMessageViewINtNtCs4eoa8Adtn6U_4core7convert4FromRNtB5_32ScmpTracerouteRequestMessageViewE4from
FN:42,_RNvXsk_NtNtNtNtCsdVnVozic4xr_8sciparse5proto7payload4scmp4viewNtB5_15ScmpMessageViewINtNtCs4eoa8Adtn6U_4core7convert4FromRNtB5_30ScmpTracerouteReplyMessageViewE4from
FN:42,_RNvXsl_NtNtNtNtCsdVnVozic4xr_8sciparse5proto7payload4scmp4viewNtB5_15ScmpMessageViewINtNtCs4eoa8Adtn6U_4core7convert4FromRNtB5_22ScmpUnknownMessageViewE4from
FN:31,_RNvXs5_NtNtNtNtCsdVnVozic4xr_8sciparse5scion4path8metadata4epicNtB5_9EpicAuthsINtNtCs4eoa8Adtn6U_4core7convert4FromNtNtNtCsk5MUdMCAQgk_14scion_protobuf6daemon2v19EpicAuthsE4from
FN:31,_RNvXs9_NtNtNtNtCsdVnVozic4xr_8sciparse5scion4path8metadata14path_interfaceNtNtNtCsk5MUdMCAQgk_14scion_protobuf6daemon2v113PathInterfaceINtNtCs4eoa8Adtn6U_4core7convert4FromNtB5_13PathInterfaceE4from
FN:31,_RNvXsA_NtNtNtCsdVnVozic4xr_8sciparse5scion7address4addrNtB5_9ScionAddrINtNtCs4eoa8Adtn6U_4core7convert4FromNtNtB7_7ip_addr11ScionIpAddrE4from
FN:31,_RNvXsD_NtNtNtCsdVnVozic4xr_8sciparse5scion7address9host_addrNtB5_11ServiceAddrINtNtCs4eoa8Adtn6U_4core7convert4FromtE4from
FN:31,_RNvXsE_NtNtNtCsdVnVozic4xr_8sciparse5scion7address9host_addrtINtNtCs4eoa8Adtn6U_4core7convert4FromNtB5_11ServiceAddrE4from
FN:31,_RNvXsF_NtNtNtCsdVnVozic4xr_8sciparse5scion7address9host_addrNtB5_12WireHostAddrINtNtCs4eoa8Adtn6U_4core7convert4FromNtB5_11ServiceAddrE4from
FN:31,_RNvXsc_NtNtNtNtCsdVnVozic4xr_8sciparse5scion4path8metadata4linklINtNtCs4eoa8Adtn6U_4core7convert4FromNtB5_8LinkTypeE4from
FN:31,_RNvXsd_NtNtNtCsdVnVozic4xr_8sciparse5scion7address14ip_socket_addrNtB5_17ScionSocketIpAddrINtNtCs4eoa8Adtn6U_4core7convert4FromNtNtB7_11socket_addr17ScionSocketAddrV4E4from
FN:31,_RNvXse_NtNtNtCsdVnVozic4xr_8sciparse5proto14dataplane_path4viewNtB5_15ScionDpPathViewINtNtCs4eoa8Adtn6U_4core7convert4FromNtNtNtB7_6onehop4view14OneHopPathViewE4from
FN:31,_RNvXse_NtNtNtCsdVnVozic4xr_8sciparse5scion7address14ip_socket_addrNtB5_17ScionSocketIpAddrINtNtCs4eoa8Adtn6U_4core7convert4FromNtNtB7_11socket_addr17ScionSocketAddrV6E4from
FN:31,_RNvXse_NtNtNtCsdVnVozic4xr_8sciparse5scion7address7ip_addrNtB5_11ScionIpAddrINtNtCs4eoa8Adtn6U_4core7convert4FromNtNtB7_4addr11ScionAddrV4E4from
FN:31,_RNvXsf_NtNtNtCsdVnVozic4xr_8sciparse5scion10identifier3isdNtB5_3IsdINtNtCs4eoa8Adtn6U_4core7convert4FromtE4from
FN:31,_RNvXsf_NtNtNtCsdVnVozic4xr_8sciparse5scion7address7ip_addrNtB5_11ScionIpAddrINtNtCs4eoa8Adtn6U_4core7convert4FromNtNtB7_4addr11ScionAddrV6E4from
FN:31,_RNvXsg_NtNtNtCsdVnVozic4xr_8sciparse5scion10identifier3isdtINtNtCs4eoa8Adtn6U_4core7convert4FromNtB5_3IsdE4from
FN:31,_RNvXsg_NtNtNtCsdVnVozic4xr_8sciparse5scion7address7ip_addrNtB5_11ScionIpAddrINtNtCs4eoa8Adtn6U_4core7convert4FromNtNtB7_14ip_socket_addr17ScionSocketIpAddrE4from
FN:31,_RNvXsh_NtNtNtCsdVnVozic4xr_8sciparse5scion10identifier3asnyINtNtCs4eoa8Adtn6U_4core7convert4FromNtB5_3AsnE4from
FN:31,_RNvXsl_NtNtNtCsdVnVozic4xr_8sciparse5scion7address11socket_addrNtB5_15ScionSocketAddrINtNtCs4eoa8Adtn6U_4core7convert4FromNtB5_17ScionSocketAddrV4E4from
FN:31,_RNvXsm_NtNtNtCsdVnVozic4xr_8sciparse5scion7address11socket_addrNtB5_15ScionSocketAddrINtNtCs4eoa8Adtn6U_4core7convert4FromNtB5_17ScionSocketAddrV6E4from
FN:31,_RNvXsn_NtNtNtCsdVnVozic4xr_8sciparse5scion7address11socket_addrNtB5_15ScionSocketAddrINtNtCs4eoa8Adtn6U_4core7convert4FromNtB5_18ScionSocketAddrSvcE4from
FN:31,_RNvXso_NtNtNtCsdVnVozic4xr_8sciparse5scion7address11socket_addrNtB5_15ScionSocketAddrINtNtCs4eoa8Adtn6U_4core7convert4FromNtNtB7_14ip_socket_addr17ScionSocketIpAddrE4from
FN:31,_RNvXso_NtNtNtCsdVnVozic4xr_8sciparse5scion7address9host_addrNtB5_13ScionHostAddrINtNtCs4eoa8Adtn6U_4core7convert4FromNtNtNtB1l_3net7ip_addr6IpAddrE4from
FN:31,_RNvXsp_NtNtNtCsdVnVozic4xr_8sciparse5scion7address9host_addrNtB5_13ScionHostAddrINtNtCs4eoa8Adtn6U_4core7convert4FromNtNtNtB1l_3net7ip_addr8Ipv4AddrE4from
FN:31,_RNvXsq_NtNtNtCsdVnVozic4xr_8sciparse5scion7address9host_addrNtB5_13ScionHostAddrINtNtCs4eoa8Adtn6U_4core7convert4FromNtNtNtB1l_3net7ip_addr8Ipv6AddrE4from
FN:31,_RNvXsr_NtNtNtCsdVnVozic4xr_8sciparse5scion7address9host_addrNtB5_13ScionHostAddrINtNtCs4eoa8Adtn6U_4core7convert4FromNtB5_11ServiceAddrE4from
FN:31,_RNvXss_NtNtNtCsdVnVozic4xr_8sciparse5scion7address9host_addrNtB5_13ScionHostAddrINtNtCs4eoa8Adtn6U_4core7convert4FromNtNtB7_4addr9ScionAddrE4from
FN:31,_RNvXst_NtNtNtCsdVnVozic4xr_8sciparse5scion7address9host_addrNtB5_13ScionHostAddrINtNtCs4eoa8Adtn6U_4core7convert4FromNtNtB7_7ip_addr11ScionIpAddrE4from
FN:31,_RNvXsw_NtNtNtCsdVnVozic4xr_8sciparse5scion7address4addrNtB5_9ScionAddrINtNtCs4eoa8Adtn6U_4core7convert4FromNtB5_11ScionAddrV4E4from
FN:31,_RNvXsx_NtNtNtCsdVnVozic4xr_8sciparse5scion7address4addrNtB5_9ScionAddrINtNtCs4eoa8Adtn6U_4core7convert4FromNtB5_11ScionAddrV6E4from
FN:31,_RNvXsy_NtNtNtCsdVnVozic4xr_8sciparse5scion7address4addrNtB5_9ScionAddrINtNtCs4eoa8Adtn6U_4core7convert4FromNtB5_12ScionAddrSvcE4from
FN:31,_RNvXsz_NtNtNtCsdVnVozic4xr_8sciparse5scion7address4addrNtB5_9ScionAddrINtNtCs4eoa8Adtn6U_4core7convert4FromNtNtB7_11socket_addr15ScionSocketAddrE4from
FNDA:0,_RNvXs3_NtNtNtNtCsdVnVozic4xr_8sciparse5scion4path8metadata3geoNtB5_14GeoCoordinatesINtNtCs4eoa8Adtn6U_4core7convert4FromNtNtNtCsk5MUdMCAQgk_14scion_protobuf6daemon2v114GeoCoordinatesE4from
FNDA:0,_RNvXs4_NtNtNtNtCsdVnVozic4xr_8sciparse5scion4path8metadata3geoNtNtNtCsk5MUdMCAQgk_14scion_protobuf6daemon2v114GeoCoordinatesINtNtCs4eoa8Adtn6U_4core7convert4FromNtB5_14GeoCoordinatesE4from
FNDA:0,_RNvXs6_NtNtNtNtCsdVnVozic4xr_8sciparse5scion4path8metadata4epicNtNtNtCsk5MUdMCAQgk_14scion_protobuf6daemon2v19EpicAuthsINtNtCs4eoa8Adtn6U_4core7convert4FromNtB5_9EpicAuthsE4from
FNDA:0,_RNvXsM_NtNtNtCsdVnVozic4xr_8sciparse5scion7address9host_addrNtB5_12WireHostAddrINtNtCs4eoa8Adtn6U_4core7convert4FromNtB5_13ScionHostAddrE4from
FNDA:0,_RNvXsb_NtNtNtNtCsdVnVozic4xr_8sciparse5scion4path8metadata4linkNtB5_8LinkTypeINtNtCs4eoa8Adtn6U_4core7convert4FromlE4from
FNDA:492,_RNvXsc_NtNtNtNtCsdVnVozic4xr_8sciparse5proto7payload4scmp4viewNtB5_15ScmpMessageViewINtNtCs4eoa8Adtn6U_4core7convert4FromRNtB5_37ScmpDestinationUnreachableMessageViewE4from
FNDA:0,_RNvXsd_NtNtNtCsdVnVozic4xr_8sciparse5proto14dataplane_path4viewNtB5_15ScionDpPathViewINtNtCs4eoa8Adtn6U_4core7convert4FromINtNtCslL0sV90nkwC_5alloc5boxed3BoxNtNtNtB7_8standard4view16StandardPathViewEE4from
FNDA:189,_RNvXsd_NtNtNtNtCsdVnVozic4xr_8sciparse5proto7payload4scmp4viewNtB5_15ScmpMessageViewINtNtCs4eoa8Adtn6U_4core7convert4FromRNtB5_27ScmpPacketTooBigMessageViewE4from
FNDA:186,_RNvXse_NtNtNtNtCsdVnVozic4xr_8sciparse5proto7payload4scmp4viewNtB5_15ScmpMessageViewINtNtCs4eoa8Adtn6U_4core7convert4FromRNtB5_31ScmpParameterProblemMessageViewE4from
FNDA:69,_RNvXsf_NtNtNtNtCsdVnVozic4xr_8sciparse5proto7payload4scmp4viewNtB5_15ScmpMessageViewINtNtCs4eoa8Adtn6U_4core7convert4FromRNtB5_36ScmpExternalInterfaceDownMessageViewE4from
FNDA:15,_RNvXsg_NtNtNtNtCsdVnVozic4xr_8sciparse5proto7payload4scmp4viewNtB5_15ScmpMessageViewINtNtCs4eoa8Adtn6U_4core7convert4FromRNtB5_39ScmpInternalConnectivityDownMessageViewE4from
FNDA:0,_RNvXsh_NtNtNtCsdVnVozic4xr_8sciparse5scion10identifier7isd_asnNtNtCslL0sV90nkwC_5alloc6string6StringINtNtCs4eoa8Adtn6U_4core7convert4FromNtB5_6IsdAsnE4from
FNDA:57,_RNvXsh_NtNtNtNtCsdVnVozic4xr_8sciparse5proto7payload4scmp4viewNtB5_15ScmpMessageViewINtNtCs4eoa8Adtn6U_4core7convert4FromRNtB5_26ScmpEchoRequestMessageViewE4from
FNDA:0,_RNvXsi_NtNtNtCsdVnVozic4xr_8sciparse5scion10identifier7isd_asnyINtNtCs4eoa8Adtn6U_4core7convert4FromNtB5_6IsdAsnE4from
FNDA:57,_RNvXsi_NtNtNtNtCsdVnVozic4xr_8sciparse5proto7payload4scmp4viewNtB5_15ScmpMessageViewINtNtCs4eoa8Adtn6U_4core7convert4FromRNtB5_24ScmpEchoReplyMessageViewE4from
FNDA:0,_RNvXsj_NtNtNtCsdVnVozic4xr_8sciparse5scion10identifier7isd_asnNtB5_6IsdAsnINtNtCs4eoa8Adtn6U_4core7convert4FromyE4from
FNDA:24,_RNvXsj_NtNtNtNtCsdVnVozic4xr_8sciparse5proto7payload4scmp4viewNtB5_15ScmpMessageViewINtNtCs4eoa8Adtn6U_4core7convert4FromRNtB5_32ScmpTracerouteRequestMessageViewE4from
FNDA:15,_RNvXsk_NtNtNtNtCsdVnVozic4xr_8sciparse5proto7payload4scmp4viewNtB5_15ScmpMessageViewINtNtCs4eoa8Adtn6U_4core7convert4FromRNtB5_30ScmpTracerouteReplyMessageViewE4from
FNDA:267,_RNvXsl_NtNtNtNtCsdVnVozic4xr_8sciparse5proto7payload4scmp4viewNtB5_15ScmpMessageViewINtNtCs4eoa8Adtn6U_4core7convert4FromRNtB5_22ScmpUnknownMessageViewE4from
FNDA:0,_RNvXs5_NtNtNtNtCsdVnVozic4xr_8sciparse5scion4path8metadata4epicNtB5_9EpicAuthsINtNtCs4eoa8Adtn6U_4core7convert4FromNtNtNtCsk5MUdMCAQgk_14scion_protobuf6daemon2v19EpicAuthsE4from
FNDA:0,_RNvXs9_NtNtNtNtCsdVnVozic4xr_8sciparse5scion4path8metadata14path_interfaceNtNtNtCsk5MUdMCAQgk_14scion_protobuf6daemon2v113PathInterfaceINtNtCs4eoa8Adtn6U_4core7convert4FromNtB5_13PathInterfaceE4from
FNDA:0,_RNvXsA_NtNtNtCsdVnVozic4xr_8sciparse5scion7address4addrNtB5_9ScionAddrINtNtCs4eoa8Adtn6U_4core7convert4FromNtNtB7_7ip_addr11ScionIpAddrE4from
FNDA:0,_RNvXsD_NtNtNtCsdVnVozic4xr_8sciparse5scion7address9host_addrNtB5_11ServiceAddrINtNtCs4eoa8Adtn6U_4core7convert4FromtE4from
FNDA:0,_RNvXsE_NtNtNtCsdVnVozic4xr_8sciparse5scion7address9host_addrtINtNtCs4eoa8Adtn6U_4core7convert4FromNtB5_11ServiceAddrE4from
FNDA:0,_RNvXsF_NtNtNtCsdVnVozic4xr_8sciparse5scion7address9host_addrNtB5_12WireHostAddrINtNtCs4eoa8Adtn6U_4core7convert4FromNtB5_11ServiceAddrE4from
FNDA:0,_RNvXsc_NtNtNtNtCsdVnVozic4xr_8sciparse5scion4path8metadata4linklINtNtCs4eoa8Adtn6U_4core7convert4FromNtB5_8LinkTypeE4from
FNDA:0,_RNvXsd_NtNtNtCsdVnVozic4xr_8sciparse5scion7address14ip_socket_addrNtB5_17ScionSocketIpAddrINtNtCs4eoa8Adtn6U_4core7convert4FromNtNtB7_11socket_addr17ScionSocketAddrV4E4from
FNDA:0,_RNvXse_NtNtNtCsdVnVozic4xr_8sciparse5proto14dataplane_path4viewNtB5_15ScionDpPathViewINtNtCs4eoa8Adtn6U_4core7convert4FromNtNtNtB7_6onehop4view14OneHopPathViewE4from
FNDA:0,_RNvXse_NtNtNtCsdVnVozic4xr_8sciparse5scion7address14ip_socket_addrNtB5_17ScionSocketIpAddrINtNtCs4eoa8Adtn6U_4core7convert4FromNtNtB7_11socket_addr17ScionSocketAddrV6E4from
FNDA:0,_RNvXse_NtNtNtCsdVnVozic4xr_8sciparse5scion7address7ip_addrNtB5_11ScionIpAddrINtNtCs4eoa8Adtn6U_4core7convert4FromNtNtB7_4addr11ScionAddrV4E4from
FNDA:0,_RNvXsf_NtNtNtCsdVnVozic4xr_8sciparse5scion10identifier3isdNtB5_3IsdINtNtCs4eoa8Adtn6U_4core7convert4FromtE4from
FNDA:0,_RNvXsf_NtNtNtCsdVnVozic4xr_8sciparse5scion7address7ip_addrNtB5_11ScionIpAddrINtNtCs4eoa8Adtn6U_4core7convert4FromNtNtB7_4addr11ScionAddrV6E4from
FNDA:0,_RNvXsg_NtNtNtCsdVnVozic4xr_8sciparse5scion10identifier3isdtINtNtCs4eoa8Adtn6U_4core7convert4FromNtB5_3IsdE4from
FNDA:0,_RNvXsg_NtNtNtCsdVnVozic4xr_8sciparse5scion7address7ip_addrNtB5_11ScionIpAddrINtNtCs4eoa8Adtn6U_4core7convert4FromNtNtB7_14ip_socket_addr17ScionSocketIpAddrE4from
FNDA:0,_RNvXsh_NtNtNtCsdVnVozic4xr_8sciparse5scion10identifier3asnyINtNtCs4eoa8Adtn6U_4core7convert4FromNtB5_3AsnE4from
FNDA:0,_RNvXsl_NtNtNtCsdVnVozic4xr_8sciparse5scion7address11socket_addrNtB5_15ScionSocketAddrINtNtCs4eoa8Adtn6U_4core7convert4FromNtB5_17ScionSocketAddrV4E4from
FNDA:0,_RNvXsm_NtNtNtCsdVnVozic4xr_8sciparse5scion7address11socket_addrNtB5_15ScionSocketAddrINtNtCs4eoa8Adtn6U_4core7convert4FromNtB5_17ScionSocketAddrV6E4from
FNDA:0,_RNvXsn_NtNtNtCsdVnVozic4xr_8sciparse5scion7address11socket_addrNtB5_15ScionSocketAddrINtNtCs4eoa8Adtn6U_4core7convert4FromNtB5_18ScionSocketAddrSvcE4from
FNDA:0,_RNvXso_NtNtNtCsdVnVozic4xr_8sciparse5scion7address11socket_addrNtB5_15ScionSocketAddrINtNtCs4eoa8Adtn6U_4core7convert4FromNtNtB7_14ip_socket_addr17ScionSocketIpAddrE4from
FNDA:0,_RNvXso_NtNtNtCsdVnVozic4xr_8sciparse5scion7address9host_addrNtB5_13ScionHostAddrINtNtCs4eoa8Adtn6U_4core7convert4FromNtNtNtB1l_3net7ip_addr6IpAddrE4from
FNDA:0,_RNvXsp_NtNtNtCsdVnVozic4xr_8sciparse5scion7address9host_addrNtB5_13ScionHostAddrINtNtCs4eoa8Adtn6U_4core7convert4FromNtNtNtB1l_3net7ip_addr8Ipv4AddrE4from
FNDA:0,_RNvXsq_NtNtNtCsdVnVozic4xr_8sciparse5scion7address9host_addrNtB5_13ScionHostAddrINtNtCs4eoa8Adtn6U_4core7convert4FromNtNtNtB1l_3net7ip_addr8Ipv6AddrE4from
FNDA:0,_RNvXsr_NtNtNtCsdVnVozic4xr_8sciparse5scion7address9host_addrNtB5_13ScionHostAddrINtNtCs4eoa8Adtn6U_4core7convert4FromNtB5_11ServiceAddrE4from
FNDA:0,_RNvXss_NtNtNtCsdVnVozic4xr_8sciparse5scion7address9host_addrNtB5_13ScionHostAddrINtNtCs4eoa8Adtn6U_4core7convert4FromNtNtB7_4addr9ScionAddrE4from
FNDA:0,_RNvXst_NtNtNtCsdVnVozic4xr_8sciparse5scion7address9host_addrNtB5_13ScionHostAddrINtNtCs4eoa8Adtn6U_4core7convert4FromNtNtB7_7ip_addr11ScionIpAddrE4from
FNDA:0,_RNvXsw_NtNtNtCsdVnVozic4xr_8sciparse5scion7address4addrNtB5_9ScionAddrINtNtCs4eoa8Adtn6U_4core7convert4FromNtB5_11ScionAddrV4E4from
FNDA:0,_RNvXsx_NtNtNtCsdVnVozic4xr_8sciparse5scion7address4addrNtB5_9ScionAddrINtNtCs4eoa8Adtn6U_4core7convert4FromNtB5_11ScionAddrV6E4from
FNDA:0,_RNvXsy_NtNtNtCsdVnVozic4xr_8sciparse5scion7address4addrNtB5_9ScionAddrINtNtCs4eoa8Adtn6U_4core7convert4FromNtB5_12ScionAddrSvcE4from
FNDA:0,_RNvXsz_NtNtNtCsdVnVozic4xr_8sciparse5scion7address4addrNtB5_9ScionAddrINtNtCs4eoa8Adtn6U_4core7convert4FromNtNtB7_11socket_addr15ScionSocketAddrE4from
FNF:2
FNH:1
DA:31,0
DA:33,0
DA:42,1371
DA:44,1371
BRF:0
BRH:0
LF:4
LH:2
end_of_record
SF:/home/akelbsch/projects/scion/endhost/public/scion-proto/sciparse/src/core/read.rs
FN:52,_RINvNtNtCsdVnVozic4xr_8sciparse4core4read27unchecked_bit_range_be_readNtNtNtNtB6_5scion10identifier7isd_asn6IsdAsnEB6_
FN:52,_RINvNtNtCsdVnVozic4xr_8sciparse4core4read27unchecked_bit_range_be_readNtNtNtNtNtB6_5proto7payload4scmp5types15ScmpMessageTypeEB6_
FN:52,_RINvNtNtCsdVnVozic4xr_8sciparse4core4read27unchecked_bit_range_be_readNtNtNtNtNtB6_5proto7payload4scmp5types24ScmpParameterProblemCodeEB6_
FN:52,_RINvNtNtCsdVnVozic4xr_8sciparse4core4read27unchecked_bit_range_be_readNtNtNtNtNtB6_5proto7payload4scmp5types30ScmpDestinationUnreachableCodeEB6_
FN:52,_RINvNtNtCsdVnVozic4xr_8sciparse4core4read27unchecked_bit_range_be_readhEB6_
FN:52,_RINvNtNtCsdVnVozic4xr_8sciparse4core4read27unchecked_bit_range_be_readmEB6_
FN:52,_RINvNtNtCsdVnVozic4xr_8sciparse4core4read27unchecked_bit_range_be_readtEB6_
FN:52,_RINvNtNtCsdVnVozic4xr_8sciparse4core4read27unchecked_bit_range_be_readyEB6_
FN:28,_RNvXNtNtCsdVnVozic4xr_8sciparse4core4readhNtB2_17FromUnalignedRead19from_unaligned_read
FN:28,_RNvXs0_NtNtCsdVnVozic4xr_8sciparse4core4readmNtB5_17FromUnalignedRead19from_unaligned_read
FN:28,_RNvXs1_NtNtCsdVnVozic4xr_8sciparse4core4readyNtB5_17FromUnalignedRead19from_unaligned_read
FN:28,_RNvXs_NtNtCsdVnVozic4xr_8sciparse4core4readtNtB4_17FromUnalignedRead19from_unaligned_read
FN:28,_RNvXs2_NtNtCsdVnVozic4xr_8sciparse4core4readoNtB5_17FromUnalignedRead19from_unaligned_read
FNDA:0,_RINvNtNtCsdVnVozic4xr_8sciparse4core4read27unchecked_bit_range_be_readNtNtNtNtB6_5scion10identifier7isd_asn6IsdAsnEB6_
FNDA:2019,_RINvNtNtCsdVnVozic4xr_8sciparse4core4read27unchecked_bit_range_be_readNtNtNtNtNtB6_5proto7payload4scmp5types15ScmpMessageTypeEB6_
FNDA:0,_RINvNtNtCsdVnVozic4xr_8sciparse4core4read27unchecked_bit_range_be_readNtNtNtNtNtB6_5proto7payload4scmp5types24ScmpParameterProblemCodeEB6_
FNDA:0,_RINvNtNtCsdVnVozic4xr_8sciparse4core4read27unchecked_bit_range_be_readNtNtNtNtNtB6_5proto7payload4scmp5types30ScmpDestinationUnreachableCodeEB6_
FNDA:117578,_RINvNtNtCsdVnVozic4xr_8sciparse4core4read27unchecked_bit_range_be_readhEB6_
FNDA:2238,_RINvNtNtCsdVnVozic4xr_8sciparse4core4read27unchecked_bit_range_be_readmEB6_
FNDA:36826,_RINvNtNtCsdVnVozic4xr_8sciparse4core4read27unchecked_bit_range_be_readtEB6_
FNDA:3800,_RINvNtNtCsdVnVozic4xr_8sciparse4core4read27unchecked_bit_range_be_readyEB6_
FNDA:117578,_RNvXNtNtCsdVnVozic4xr_8sciparse4core4readhNtB2_17FromUnalignedRead19from_unaligned_read
FNDA:2238,_RNvXs0_NtNtCsdVnVozic4xr_8sciparse4core4readmNtB5_17FromUnalignedRead19from_unaligned_read
FNDA:3800,_RNvXs1_NtNtCsdVnVozic4xr_8sciparse4core4readyNtB5_17FromUnalignedRead19from_unaligned_read
FNDA:36826,_RNvXs_NtNtCsdVnVozic4xr_8sciparse4core4readtNtB4_17FromUnalignedRead19from_unaligned_read
FNDA:0,_RNvXs2_NtNtCsdVnVozic4xr_8sciparse4core4readoNtB5_17FromUnalignedRead19from_unaligned_read
FNF:2
FNH:2
DA:28,160442
DA:29,160442
DA:30,160442
DA:52,162461
DA:53,162461
DA:54,162461
DA:59,162461
DA:60,162461
DA:61,162461
DA:62,162461
DA:64,162461
DA:65,162461
DA:66,0
DA:68,162461
DA:70,162461
DA:72,162461
DA:73,162461
DA:74,162461
DA:75,162461
DA:76,162461
DA:77,162461
DA:78,162461
DA:79,162461
DA:81,162461
DA:88,162461
DA:89,162461
DA:90,162461
DA:93,162461
DA:94,162461
DA:96,162461
DA:97,162461
BRF:0
BRH:0
LF:31
LH:30
end_of_record
SF:/home/akelbsch/projects/scion/endhost/public/scion-proto/sciparse/src/core/view.rs
FN:221,_RNvXNtNtCsdVnVozic4xr_8sciparse4core4viewNtB2_19ViewConversionErrorINtNtCs4eoa8Adtn6U_4core7convert4FromNtNtB4_6layout16LayoutParseErrorE4from
FN:105,_RNvYNtNtNtNtCsdVnVozic4xr_8sciparse5proto6packet4view15ScionPacketViewNtNtNtBa_4core4view4View14from_mut_sliceCs4VSkSJkd95A_14packet_parsing
FN:272,_RNvMNtNtNtCsdVnVozic4xr_8sciparse5proto6header4viewNtB2_15ScionHeaderView11next_header
FN:272,_RNvMNtNtNtCsdVnVozic4xr_8sciparse5proto6header4viewNtB2_15ScionHeaderView11payload_len
FN:272,_RNvMNtNtNtCsdVnVozic4xr_8sciparse5proto6header4viewNtB2_15ScionHeaderView13traffic_class
FN:272,_RNvMNtNtNtCsdVnVozic4xr_8sciparse5proto6header4viewNtB2_15ScionHeaderView7flow_id
FN:272,_RNvMNtNtNtCsdVnVozic4xr_8sciparse5proto6header4viewNtB2_15ScionHeaderView7version
FN:272,_RNvMNtNtNtNtCsdVnVozic4xr_8sciparse5proto14dataplane_path8standard4viewNtB2_16StandardPathView18curr_hop_field_idx
FN:272,_RNvMNtNtNtNtCsdVnVozic4xr_8sciparse5proto14dataplane_path8standard4viewNtB2_16StandardPathView19curr_info_field_idx
FN:272,_RNvMNtNtNtNtCsdVnVozic4xr_8sciparse5proto14dataplane_path8standard4viewNtB2_16StandardPathView8seg0_len
FN:272,_RNvMNtNtNtNtCsdVnVozic4xr_8sciparse5proto14dataplane_path8standard4viewNtB2_16StandardPathView8seg1_len
FN:272,_RNvMNtNtNtNtCsdVnVozic4xr_8sciparse5proto14dataplane_path8standard4viewNtB2_16StandardPathView8seg2_len
FN:292,_RNvMs0_NtNtNtNtCsdVnVozic4xr_8sciparse5proto7payload3udp4viewNtB5_15UdpDatagramView10set_length
FN:292,_RNvMs0_NtNtNtNtCsdVnVozic4xr_8sciparse5proto7payload3udp4viewNtB5_15UdpDatagramView12set_checksum
FN:292,_RNvMs0_NtNtNtNtCsdVnVozic4xr_8sciparse5proto7payload3udp4viewNtB5_15UdpDatagramView12set_dst_port
FN:292,_RNvMs0_NtNtNtNtCsdVnVozic4xr_8sciparse5proto7payload3udp4viewNtB5_15UdpDatagramView12set_src_port
FN:272,_RNvMs0_NtNtNtNtCsdVnVozic4xr_8sciparse5proto7payload3udp4viewNtB5_15UdpDatagramView6length
FN:272,_RNvMs0_NtNtNtNtCsdVnVozic4xr_8sciparse5proto7payload3udp4viewNtB5_15UdpDatagramView8checksum
FN:272,_RNvMs0_NtNtNtNtCsdVnVozic4xr_8sciparse5proto7payload3udp4viewNtB5_15UdpDatagramView8dst_port
FN:272,_RNvMs0_NtNtNtNtCsdVnVozic4xr_8sciparse5proto7payload3udp4viewNtB5_15UdpDatagramView8src_port
FN:272,_RNvMs0_NtNtNtNtCsdVnVozic4xr_8sciparse5proto7payload4scmp4viewNtB5_37ScmpDestinationUnreachableMessageView12message_type
FN:292,_RNvMs0_NtNtNtNtCsdVnVozic4xr_8sciparse5proto7payload4scmp4viewNtB5_37ScmpDestinationUnreachableMessageView12set_checksum
FN:292,_RNvMs0_NtNtNtNtCsdVnVozic4xr_8sciparse5proto7payload4scmp4viewNtB5_37ScmpDestinationUnreachableMessageView12set_reserved
FN:314,_RNvMs0_NtNtNtNtCsdVnVozic4xr_8sciparse5proto7payload4scmp4viewNtB5_37ScmpDestinationUnreachableMessageView16set_message_type
FN:272,_RNvMs0_NtNtNtNtCsdVnVozic4xr_8sciparse5proto7payload4scmp4viewNtB5_37ScmpDestinationUnreachableMessageView4code
FN:272,_RNvMs0_NtNtNtNtCsdVnVozic4xr_8sciparse5proto7payload4scmp4viewNtB5_37ScmpDestinationUnreachableMessageView8checksum
FN:272,_RNvMs0_NtNtNtNtCsdVnVozic4xr_8sciparse5proto7payload4scmp4viewNtB5_37ScmpDestinationUnreachableMessageView8reserved
FN:292,_RNvMs0_NtNtNtNtCsdVnVozic4xr_8sciparse5proto7payload4scmp4viewNtB5_37ScmpDestinationUnreachableMessageView8set_code
FN:272,_RNvMs1_NtNtNtNtCsdVnVozic4xr_8sciparse5proto7payload4scmp4viewNtB5_27ScmpPacketTooBigMessageView12message_type
FN:292,_RNvMs1_NtNtNtNtCsdVnVozic4xr_8sciparse5proto7payload4scmp4viewNtB5_27ScmpPacketTooBigMessageView12set_checksum
FN:292,_RNvMs1_NtNtNtNtCsdVnVozic4xr_8sciparse5proto7payload4scmp4viewNtB5_27ScmpPacketTooBigMessageView12set_reserved
FN:314,_RNvMs1_NtNtNtNtCsdVnVozic4xr_8sciparse5proto7payload4scmp4viewNtB5_27ScmpPacketTooBigMessageView16set_message_type
FN:272,_RNvMs1_NtNtNtNtCsdVnVozic4xr_8sciparse5proto7payload4scmp4viewNtB5_27ScmpPacketTooBigMessageView3mtu
FN:272,_RNvMs1_NtNtNtNtCsdVnVozic4xr_8sciparse5proto7payload4scmp4viewNtB5_27ScmpPacketTooBigMessageView4code
FN:292,_RNvMs1_NtNtNtNtCsdVnVozic4xr_8sciparse5proto7payload4scmp4viewNtB5_27ScmpPacketTooBigMessageView7set_mtu
FN:272,_RNvMs1_NtNtNtNtCsdVnVozic4xr_8sciparse5proto7payload4scmp4viewNtB5_27ScmpPacketTooBigMessageView8checksum
FN:272,_RNvMs1_NtNtNtNtCsdVnVozic4xr_8sciparse5proto7payload4scmp4viewNtB5_27ScmpPacketTooBigMessageView8reserved
FN:292,_RNvMs1_NtNtNtNtCsdVnVozic4xr_8sciparse5proto7payload4scmp4viewNtB5_27ScmpPacketTooBigMessageView8set_code
FN:292,_RNvMs2_NtNtNtNtCsdVnVozic4xr_8sciparse5proto7payload4scmp4viewNtB5_31ScmpParameterProblemMessageView11set_pointer
FN:272,_RNvMs2_NtNtNtNtCsdVnVozic4xr_8sciparse5proto7payload4scmp4viewNtB5_31ScmpParameterProblemMessageView12message_type
FN:292,_RNvMs2_NtNtNtNtCsdVnVozic4xr_8sciparse5proto7payload4scmp4viewNtB5_31ScmpParameterProblemMessageView12set_checksum
FN:292,_RNvMs2_NtNtNtNtCsdVnVozic4xr_8sciparse5proto7payload4scmp4viewNtB5_31ScmpParameterProblemMessageView12set_reserved
FN:314,_RNvMs2_NtNtNtNtCsdVnVozic4xr_8sciparse5proto7payload4scmp4viewNtB5_31ScmpParameterProblemMessageView16set_message_type
FN:272,_RNvMs2_NtNtNtNtCsdVnVozic4xr_8sciparse5proto7payload4scmp4viewNtB5_31ScmpParameterProblemMessageView4code
FN:272,_RNvMs2_NtNtNtNtCsdVnVozic4xr_8sciparse5proto7payload4scmp4viewNtB5_31ScmpParameterProblemMessageView7pointer
FN:272,_RNvMs2_NtNtNtNtCsdVnVozic4xr_8sciparse5proto7payload4scmp4viewNtB5_31ScmpParameterProblemMessageView8checksum
FN:272,_RNvMs2_NtNtNtNtCsdVnVozic4xr_8sciparse5proto7payload4scmp4viewNtB5_31ScmpParameterProblemMessageView8reserved
FN:292,_RNvMs2_NtNtNtNtCsdVnVozic4xr_8sciparse5proto7payload4scmp4viewNtB5_31ScmpParameterProblemMessageView8set_code
FN:292,_RNvMs3_NtNtNtNtCsdVnVozic4xr_8sciparse5proto7payload4scmp4viewNtB5_36ScmpExternalInterfaceDownMessageView11set_isd_asn
FN:272,_RNvMs3_NtNtNtNtCsdVnVozic4xr_8sciparse5proto7payload4scmp4viewNtB5_36ScmpExternalInterfaceDownMessageView12interface_id
FN:272,_RNvMs3_NtNtNtNtCsdVnVozic4xr_8sciparse5proto7payload4scmp4viewNtB5_36ScmpExternalInterfaceDownMessageView12message_type
FN:292,_RNvMs3_NtNtNtNtCsdVnVozic4xr_8sciparse5proto7payload4scmp4viewNtB5_36ScmpExternalInterfaceDownMessageView12set_checksum
FN:292,_RNvMs3_NtNtNtNtCsdVnVozic4xr_8sciparse5proto7payload4scmp4viewNtB5_36ScmpExternalInterfaceDownMessageView16set_interface_id
FN:314,_RNvMs3_NtNtNtNtCsdVnVozic4xr_8sciparse5proto7payload4scmp4viewNtB5_36ScmpExternalInterfaceDownMessageView16set_message_type
FN:272,_RNvMs3_NtNtNtNtCsdVnVozic4xr_8sciparse5proto7payload4scmp4viewNtB5_36ScmpExternalInterfaceDownMessageView4code
FN:272,_RNvMs3_NtNtNtNtCsdVnVozic4xr_8sciparse5proto7payload4scmp4viewNtB5_36ScmpExternalInterfaceDownMessageView7isd_asn
FN:272,_RNvMs3_NtNtNtNtCsdVnVozic4xr_8sciparse5proto7payload4scmp4viewNtB5_36ScmpExternalInterfaceDownMessageView8checksum
FN:292,_RNvMs3_NtNtNtNtCsdVnVozic4xr_8sciparse5proto7payload4scmp4viewNtB5_36ScmpExternalInterfaceDownMessageView8set_code
FN:292,_RNvMs4_NtNtNtNtCsdVnVozic4xr_8sciparse5proto7payload4scmp4viewNtB5_39ScmpInternalConnectivityDownMessageView11set_isd_asn
FN:272,_RNvMs4_NtNtNtNtCsdVnVozic4xr_8sciparse5proto7payload4scmp4viewNtB5_39ScmpInternalConnectivityDownMessageView12message_type
FN:292,_RNvMs4_NtNtNtNtCsdVnVozic4xr_8sciparse5proto7payload4scmp4viewNtB5_39ScmpInternalConnectivityDownMessageView12set_checksum
FN:314,_RNvMs4_NtNtNtNtCsdVnVozic4xr_8sciparse5proto7payload4scmp4viewNtB5_39ScmpInternalConnectivityDownMessageView16set_message_type
FN:272,_RNvMs4_NtNtNtNtCsdVnVozic4xr_8sciparse5proto7payload4scmp4viewNtB5_39ScmpInternalConnectivityDownMessageView19egress_interface_id
FN:272,_RNvMs4_NtNtNtNtCsdVnVozic4xr_8sciparse5proto7payload4scmp4viewNtB5_39ScmpInternalConnectivityDownMessageView20ingress_interface_id
FN:292,_RNvMs4_NtNtNtNtCsdVnVozic4xr_8sciparse5proto7payload4scmp4viewNtB5_39ScmpInternalConnectivityDownMessageView23set_egress_interface_id
FN:292,_RNvMs4_NtNtNtNtCsdVnVozic4xr_8sciparse5proto7payload4scmp4viewNtB5_39ScmpInternalConnectivityDownMessageView24set_ingress_interface_id
FN:272,_RNvMs4_NtNtNtNtCsdVnVozic4xr_8sciparse5proto7payload4scmp4viewNtB5_39ScmpInternalConnectivityDownMessageView4code
FN:272,_RNvMs4_NtNtNtNtCsdVnVozic4xr_8sciparse5proto7payload4scmp4viewNtB5_39ScmpInternalConnectivityDownMessageView7isd_asn
FN:272,_RNvMs4_NtNtNtNtCsdVnVozic4xr_8sciparse5proto7payload4scmp4viewNtB5_39ScmpInternalConnectivityDownMessageView8checksum
FN:292,_RNvMs4_NtNtNtNtCsdVnVozic4xr_8sciparse5proto7payload4scmp4viewNtB5_39ScmpInternalConnectivityDownMessageView8set_code
FN:272,_RNvMs5_NtNtNtNtCsdVnVozic4xr_8sciparse5proto7payload4scmp4viewNtB5_26ScmpEchoRequestMessageView10identifier
FN:272,_RNvMs5_NtNtNtNtCsdVnVozic4xr_8sciparse5proto7payload4scmp4viewNtB5_26ScmpEchoRequestMessageView12message_type
FN:292,_RNvMs5_NtNtNtNtCsdVnVozic4xr_8sciparse5proto7payload4scmp4viewNtB5_26ScmpEchoRequestMessageView12set_checksum
FN:292,_RNvMs5_NtNtNtNtCsdVnVozic4xr_8sciparse5proto7payload4scmp4viewNtB5_26ScmpEchoRequestMessageView14set_identifier
FN:272,_RNvMs5_NtNtNtNtCsdVnVozic4xr_8sciparse5proto7payload4scmp4viewNtB5_26ScmpEchoRequestMessageView15sequence_number
FN:314,_RNvMs5_NtNtNtNtCsdVnVozic4xr_8sciparse5proto7payload4scmp4viewNtB5_26ScmpEchoRequestMessageView16set_message_type
FN:292,_RNvMs5_NtNtNtNtCsdVnVozic4xr_8sciparse5proto7payload4scmp4viewNtB5_26ScmpEchoRequestMessageView19set_sequence_number
FN:272,_RNvMs5_NtNtNtNtCsdVnVozic4xr_8sciparse5proto7payload4scmp4viewNtB5_26ScmpEchoRequestMessageView4code
FN:272,_RNvMs5_NtNtNtNtCsdVnVozic4xr_8sciparse5proto7payload4scmp4viewNtB5_26ScmpEchoRequestMessageView8checksum
FN:292,_RNvMs5_NtNtNtNtCsdVnVozic4xr_8sciparse5proto7payload4scmp4viewNtB5_26ScmpEchoRequestMessageView8set_code
FN:272,_RNvMs6_NtNtNtNtCsdVnVozic4xr_8sciparse5proto7payload4scmp4viewNtB5_24ScmpEchoReplyMessageView10identifier
FN:272,_RNvMs6_NtNtNtNtCsdVnVozic4xr_8sciparse5proto7payload4scmp4viewNtB5_24ScmpEchoReplyMessageView12message_type
FN:292,_RNvMs6_NtNtNtNtCsdVnVozic4xr_8sciparse5proto7payload4scmp4viewNtB5_24ScmpEchoReplyMessageView12set_checksum
FN:292,_RNvMs6_NtNtNtNtCsdVnVozic4xr_8sciparse5proto7payload4scmp4viewNtB5_24ScmpEchoReplyMessageView14set_identifier
FN:272,_RNvMs6_NtNtNtNtCsdVnVozic4xr_8sciparse5proto7payload4scmp4viewNtB5_24ScmpEchoReplyMessageView15sequence_number
FN:314,_RNvMs6_NtNtNtNtCsdVnVozic4xr_8sciparse5proto7payload4scmp4viewNtB5_24ScmpEchoReplyMessageView16set_message_type
FN:292,_RNvMs6_NtNtNtNtCsdVnVozic4xr_8sciparse5proto7payload4scmp4viewNtB5_24ScmpEchoReplyMessageView19set_sequence_number
FN:272,_RNvMs6_NtNtNtNtCsdVnVozic4xr_8sciparse5proto7payload4scmp4viewNtB5_24ScmpEchoReplyMessageView4code
FN:272,_RNvMs6_NtNtNtNtCsdVnVozic4xr_8sciparse5proto7payload4scmp4viewNtB5_24ScmpEchoReplyMessageView8checksum
FN:292,_RNvMs6_NtNtNtNtCsdVnVozic4xr_8sciparse5proto7payload4scmp4viewNtB5_24ScmpEchoReplyMessageView8set_code
FN:272,_RNvMs7_NtNtNtNtCsdVnVozic4xr_8sciparse5proto7payload4scmp4viewNtB5_32ScmpTracerouteRequestMessageView10identifier
FN:292,_RNvMs7_NtNtNtNtCsdVnVozic4xr_8sciparse5proto7payload4scmp4viewNtB5_32ScmpTracerouteRequestMessageView11set_isd_asn
FN:272,_RNvMs7_NtNtNtNtCsdVnVozic4xr_8sciparse5proto7payload4scmp4viewNtB5_32ScmpTracerouteRequestMessageView12interface_id
FN:272,_RNvMs7_NtNtNtNtCsdVnVozic4xr_8sciparse5proto7payload4scmp4viewNtB5_32ScmpTracerouteRequestMessageView12message_type
FN:292,_RNvMs7_NtNtNtNtCsdVnVozic4xr_8sciparse5proto7payload4scmp4viewNtB5_32ScmpTracerouteRequestMessageView12set_checksum
FN:292,_RNvMs7_NtNtNtNtCsdVnVozic4xr_8sciparse5proto7payload4scmp4viewNtB5_32ScmpTracerouteRequestMessageView14set_identifier
FN:272,_RNvMs7_NtNtNtNtCsdVnVozic4xr_8sciparse5proto7payload4scmp4viewNtB5_32ScmpTracerouteRequestMessageView15sequence_number
FN:292,_RNvMs7_NtNtNtNtCsdVnVozic4xr_8sciparse5proto7payload4scmp4viewNtB5_32ScmpTracerouteRequestMessageView16set_interface_id
FN:314,_RNvMs7_NtNtNtNtCsdVnVozic4xr_8sciparse5proto7payload4scmp4viewNtB5_32ScmpTracerouteRequestMessageView16set_message_type
FN:292,_RNvMs7_NtNtNtNtCsdVnVozic4xr_8sciparse5proto7payload4scmp4viewNtB5_32ScmpTracerouteRequestMessageView19set_sequence_number
FN:272,_RNvMs7_NtNtNtNtCsdVnVozic4xr_8sciparse5proto7payload4scmp4viewNtB5_32ScmpTracerouteRequestMessageView4code
FN:272,_RNvMs7_NtNtNtNtCsdVnVozic4xr_8sciparse5proto7payload4scmp4viewNtB5_32ScmpTracerouteRequestMessageView7isd_asn
FN:272,_RNvMs7_NtNtNtNtCsdVnVozic4xr_8sciparse5proto7payload4scmp4viewNtB5_32ScmpTracerouteRequestMessageView8checksum
FN:292,_RNvMs7_NtNtNtNtCsdVnVozic4xr_8sciparse5proto7payload4scmp4viewNtB5_32ScmpTracerouteRequestMessageView8set_code
FN:272,_RNvMs8_NtNtNtNtCsdVnVozic4xr_8sciparse5proto14dataplane_path8standard4viewNtB5_13InfoFieldView10segment_id
FN:272,_RNvMs8_NtNtNtNtCsdVnVozic4xr_8sciparse5proto7payload4scmp4viewNtB5_30ScmpTracerouteReplyMessageView10identifier
FN:292,_RNvMs8_NtNtNtNtCsdVnVozic4xr_8sciparse5proto7payload4scmp4viewNtB5_30ScmpTracerouteReplyMessageView11set_isd_asn
FN:272,_RNvMs8_NtNtNtNtCsdVnVozic4xr_8sciparse5proto7payload4scmp4viewNtB5_30ScmpTracerouteReplyMessageView12interface_id
FN:272,_RNvMs8_NtNtNtNtCsdVnVozic4xr_8sciparse5proto7payload4scmp4viewNtB5_30ScmpTracerouteReplyMessageView12message_type
FN:292,_RNvMs8_NtNtNtNtCsdVnVozic4xr_8sciparse5proto7payload4scmp4viewNtB5_30ScmpTracerouteReplyMessageView12set_checksum
FN:292,_RNvMs8_NtNtNtNtCsdVnVozic4xr_8sciparse5proto7payload4scmp4viewNtB5_30ScmpTracerouteReplyMessageView14set_identifier
FN:272,_RNvMs8_NtNtNtNtCsdVnVozic4xr_8sciparse5proto7payload4scmp4viewNtB5_30ScmpTracerouteReplyMessageView15sequence_number
FN:292,_RNvMs8_NtNtNtNtCsdVnVozic4xr_8sciparse5proto7payload4scmp4viewNtB5_30ScmpTracerouteReplyMessageView16set_interface_id
FN:314,_RNvMs8_NtNtNtNtCsdVnVozic4xr_8sciparse5proto7payload4scmp4viewNtB5_30ScmpTracerouteReplyMessageView16set_message_type
FN:292,_RNvMs8_NtNtNtNtCsdVnVozic4xr_8sciparse5proto7payload4scmp4viewNtB5_30ScmpTracerouteReplyMessageView19set_sequence_number
FN:272,_RNvMs8_NtNtNtNtCsdVnVozic4xr_8sciparse5proto7payload4scmp4viewNtB5_30ScmpTracerouteReplyMessageView4code
FN:272,_RNvMs8_NtNtNtNtCsdVnVozic4xr_8sciparse5proto7payload4scmp4viewNtB5_30ScmpTracerouteReplyMessageView7isd_asn
FN:272,_RNvMs8_NtNtNtNtCsdVnVozic4xr_8sciparse5proto7payload4scmp4viewNtB5_30ScmpTracerouteReplyMessageView8checksum
FN:292,_RNvMs8_NtNtNtNtCsdVnVozic4xr_8sciparse5proto7payload4scmp4viewNtB5_30ScmpTracerouteReplyMessageView8set_code
FN:292,_RNvMs9_NtNtNtNtCsdVnVozic4xr_8sciparse5proto14dataplane_path8standard4viewNtB5_13InfoFieldView13set_timestamp
FN:292,_RNvMs9_NtNtNtNtCsdVnVozic4xr_8sciparse5proto14dataplane_path8standard4viewNtB5_13InfoFieldView14set_segment_id
FN:272,_RNvMs9_NtNtNtNtCsdVnVozic4xr_8sciparse5proto7payload4scmp4viewNtB5_22ScmpUnknownMessageView12message_type
FN:292,_RNvMs9_NtNtNtNtCsdVnVozic4xr_8sciparse5proto7payload4scmp4viewNtB5_22ScmpUnknownMessageView12set_checksum
FN:292,_RNvMs9_NtNtNtNtCsdVnVozic4xr_8sciparse5proto7payload4scmp4viewNtB5_22ScmpUnknownMessageView16set_message_type
FN:272,_RNvMs9_NtNtNtNtCsdVnVozic4xr_8sciparse5proto7payload4scmp4viewNtB5_22ScmpUnknownMessageView4code
FN:272,_RNvMs9_NtNtNtNtCsdVnVozic4xr_8sciparse5proto7payload4scmp4viewNtB5_22ScmpUnknownMessageView8checksum
FN:292,_RNvMs9_NtNtNtNtCsdVnVozic4xr_8sciparse5proto7payload4scmp4viewNtB5_22ScmpUnknownMessageView8set_code
FN:292,_RNvMs_NtNtNtCsdVnVozic4xr_8sciparse5proto6header4viewNtB4_15ScionHeaderView11set_flow_id
FN:292,_RNvMs_NtNtNtCsdVnVozic4xr_8sciparse5proto6header4viewNtB4_15ScionHeaderView11set_version
FN:292,_RNvMs_NtNtNtCsdVnVozic4xr_8sciparse5proto6header4viewNtB4_15ScionHeaderView15set_next_header
FN:314,_RNvMs_NtNtNtCsdVnVozic4xr_8sciparse5proto6header4viewNtB4_15ScionHeaderView15set_payload_len
FN:292,_RNvMs_NtNtNtCsdVnVozic4xr_8sciparse5proto6header4viewNtB4_15ScionHeaderView17set_traffic_class
FN:314,_RNvMs_NtNtNtNtCsdVnVozic4xr_8sciparse5proto14dataplane_path8standard4viewNtB4_16StandardPathView12set_seg0_len
FN:314,_RNvMs_NtNtNtNtCsdVnVozic4xr_8sciparse5proto14dataplane_path8standard4viewNtB4_16StandardPathView12set_seg1_len
FN:314,_RNvMs_NtNtNtNtCsdVnVozic4xr_8sciparse5proto14dataplane_path8standard4viewNtB4_16StandardPathView12set_seg2_len
FN:292,_RNvMs_NtNtNtNtCsdVnVozic4xr_8sciparse5proto14dataplane_path8standard4viewNtB4_16StandardPathView18set_curr_hop_field
FN:292,_RNvMs_NtNtNtNtCsdVnVozic4xr_8sciparse5proto14dataplane_path8standard4viewNtB4_16StandardPathView19set_curr_info_field
FN:272,_RNvMs_NtNtNtNtCsdVnVozic4xr_8sciparse5proto7payload4scmp4viewNtB4_15ScmpPayloadView12message_type
FN:292,_RNvMs_NtNtNtNtCsdVnVozic4xr_8sciparse5proto7payload4scmp4viewNtB4_15ScmpPayloadView12set_checksum
FN:314,_RNvMs_NtNtNtNtCsdVnVozic4xr_8sciparse5proto7payload4scmp4viewNtB4_15ScmpPayloadView16set_message_type
FN:272,_RNvMs_NtNtNtNtCsdVnVozic4xr_8sciparse5proto7payload4scmp4viewNtB4_15ScmpPayloadView4code
FN:272,_RNvMs_NtNtNtNtCsdVnVozic4xr_8sciparse5proto7payload4scmp4viewNtB4_15ScmpPayloadView8checksum
FN:292,_RNvMs_NtNtNtNtCsdVnVozic4xr_8sciparse5proto7payload4scmp4viewNtB4_15ScmpPayloadView8set_code
FN:272,_RNvMsc_NtNtNtNtCsdVnVozic4xr_8sciparse5proto14dataplane_path8standard4viewNtB5_12HopFieldView11cons_egress
FN:272,_RNvMsc_NtNtNtNtCsdVnVozic4xr_8sciparse5proto14dataplane_path8standard4viewNtB5_12HopFieldView12cons_ingress
FN:272,_RNvMsc_NtNtNtNtCsdVnVozic4xr_8sciparse5proto14dataplane_path8standard4viewNtB5_12HopFieldView8exp_time
FN:292,_RNvMsd_NtNtNtNtCsdVnVozic4xr_8sciparse5proto14dataplane_path8standard4viewNtB5_12HopFieldView12set_exp_time
FN:292,_RNvMsd_NtNtNtNtCsdVnVozic4xr_8sciparse5proto14dataplane_path8standard4viewNtB5_12HopFieldView15set_cons_egress
FN:292,_RNvMsd_NtNtNtNtCsdVnVozic4xr_8sciparse5proto14dataplane_path8standard4viewNtB5_12HopFieldView16set_cons_ingress
FN:325,_RNvXs4_NtNtNtCsdVnVozic4xr_8sciparse5proto6header4viewNtB5_15ScionHeaderViewNtNtNtBb_4core4view4View17has_required_size
FN:354,_RNvXs4_NtNtNtCsdVnVozic4xr_8sciparse5proto6header4viewNtB5_15ScionHeaderViewNtNtNtBb_4core4view4View20from_boxed_unchecked
FN:344,_RNvXs4_NtNtNtCsdVnVozic4xr_8sciparse5proto6header4viewNtB5_15ScionHeaderViewNtNtNtBb_4core4view4View20from_slice_unchecked
FN:349,_RNvXs4_NtNtNtCsdVnVozic4xr_8sciparse5proto6header4viewNtB5_15ScionHeaderViewNtNtNtBb_4core4view4View24from_mut_slice_unchecked
FN:331,_RNvXs4_NtNtNtCsdVnVozic4xr_8sciparse5proto6header4viewNtB5_15ScionHeaderViewNtNtNtBb_4core4view4View8as_bytes
FN:360,_RNvXs5_NtNtNtCsdVnVozic4xr_8sciparse5proto6header4viewINtNtCslL0sV90nkwC_5alloc5boxed3BoxNtB5_15ScionHeaderViewENtNtCs4eoa8Adtn6U_4core5clone5Clone5clone
FN:354,_RNvXsA_NtNtNtNtCsdVnVozic4xr_8sciparse5proto7payload4scmp4viewNtB5_32ScmpTracerouteRequestMessageViewNtNtNtBd_4core4view4View20from_boxed_unchecked
FN:344,_RNvXsA_NtNtNtNtCsdVnVozic4xr_8sciparse5proto7payload4scmp4viewNtB5_32ScmpTracerouteRequestMessageViewNtNtNtBd_4core4view4View20from_slice_unchecked
FN:349,_RNvXsA_NtNtNtNtCsdVnVozic4xr_8sciparse5proto7payload4scmp4viewNtB5_32ScmpTracerouteRequestMessageViewNtNtNtBd_4core4view4View24from_mut_slice_unchecked
FN:331,_RNvXsA_NtNtNtNtCsdVnVozic4xr_8sciparse5proto7payload4scmp4viewNtB5_32ScmpTracerouteRequestMessageViewNtNtNtBd_4core4view4View8as_bytes
FN:360,_RNvXsB_NtNtNtNtCsdVnVozic4xr_8sciparse5proto7payload4scmp4viewINtNtCslL0sV90nkwC_5alloc5boxed3BoxNtB5_32ScmpTracerouteRequestMessageViewENtNtCs4eoa8Adtn6U_4core5clone5Clone5clone
FN:354,_RNvXsC_NtNtNtNtCsdVnVozic4xr_8sciparse5proto7payload4scmp4viewNtB5_30ScmpTracerouteReplyMessageViewNtNtNtBd_4core4view4View20from_boxed_unchecked
FN:344,_RNvXsC_NtNtNtNtCsdVnVozic4xr_8sciparse5proto7payload4scmp4viewNtB5_30ScmpTracerouteReplyMessageViewNtNtNtBd_4core4view4View20from_slice_unchecked
FN:349,_RNvXsC_NtNtNtNtCsdVnVozic4xr_8sciparse5proto7payload4scmp4viewNtB5_30ScmpTracerouteReplyMessageViewNtNtNtBd_4core4view4View24from_mut_slice_unchecked
FN:331,_RNvXsC_NtNtNtNtCsdVnVozic4xr_8sciparse5proto7payload4scmp4viewNtB5_30ScmpTracerouteReplyMessageViewNtNtNtBd_4core4view4View8as_bytes
FN:360,_RNvXsD_NtNtNtNtCsdVnVozic4xr_8sciparse5proto7payload4scmp4viewINtNtCslL0sV90nkwC_5alloc5boxed3BoxNtB5_30ScmpTracerouteReplyMessageViewENtNtCs4eoa8Adtn6U_4core5clone5Clone5clone
FN:325,_RNvXsE_NtNtNtNtCsdVnVozic4xr_8sciparse5proto7payload4scmp4viewNtB5_22ScmpUnknownMessageViewNtNtNtBd_4core4view4View17has_required_size
FN:354,_RNvXsE_NtNtNtNtCsdVnVozic4xr_8sciparse5proto7payload4scmp4viewNtB5_22ScmpUnknownMessageViewNtNtNtBd_4core4view4View20from_boxed_unchecked
FN:344,_RNvXsE_NtNtNtNtCsdVnVozic4xr_8sciparse5proto7payload4scmp4viewNtB5_22ScmpUnknownMessageViewNtNtNtBd_4core4view4View20from_slice_unchecked
FN:349,_RNvXsE_NtNtNtNtCsdVnVozic4xr_8sciparse5proto7payload4scmp4viewNtB5_22ScmpUnknownMessageViewNtNtNtBd_4core4view4View24from_mut_slice_unchecked
FN:331,_RNvXsE_NtNtNtNtCsdVnVozic4xr_8sciparse5proto7payload4scmp4viewNtB5_22ScmpUnknownMessageViewNtNtNtBd_4core4view4View8as_bytes
FN:360,_RNvXsF_NtNtNtNtCsdVnVozic4xr_8sciparse5proto7payload4scmp4viewINtNtCslL0sV90nkwC_5alloc5boxed3BoxNtB5_22ScmpUnknownMessageViewENtNtCs4eoa8Adtn6U_4core5clone5Clone5clone
FN:325,_RNvXsa_NtNtNtNtCsdVnVozic4xr_8sciparse5proto7payload4scmp4viewNtB5_15ScmpPayloadViewNtNtNtBd_4core4view4View17has_required_size
FN:354,_RNvXsa_NtNtNtNtCsdVnVozic4xr_8sciparse5proto7payload4scmp4viewNtB5_15ScmpPayloadViewNtNtNtBd_4core4view4View20from_boxed_unchecked
FN:344,_RNvXsa_NtNtNtNtCsdVnVozic4xr_8sciparse5proto7payload4scmp4viewNtB5_15ScmpPayloadViewNtNtNtBd_4core4view4View20from_slice_unchecked
FN:331,_RNvXsa_NtNtNtNtCsdVnVozic4xr_8sciparse5proto7payload4scmp4viewNtB5_15ScmpPayloadViewNtNtNtBd_4core4view4View8as_bytes
FN:360,_RNvXsb_NtNtNtNtCsdVnVozic4xr_8sciparse5proto7payload4scmp4viewINtNtCslL0sV90nkwC_5alloc5boxed3BoxNtB5_15ScmpPayloadViewENtNtCs4eoa8Adtn6U_4core5clone5Clone5clone
FN:325,_RNvXsg_NtNtNtNtCsdVnVozic4xr_8sciparse5proto14dataplane_path8standard4viewNtB5_16StandardPathViewNtNtNtBd_4core4view4View17has_required_size
FN:354,_RNvXsg_NtNtNtNtCsdVnVozic4xr_8sciparse5proto14dataplane_path8standard4viewNtB5_16StandardPathViewNtNtNtBd_4core4view4View20from_boxed_unchecked
FN:344,_RNvXsg_NtNtNtNtCsdVnVozic4xr_8sciparse5proto14dataplane_path8standard4viewNtB5_16StandardPathViewNtNtNtBd_4core4view4View20from_slice_unchecked
FN:349,_RNvXsg_NtNtNtNtCsdVnVozic4xr_8sciparse5proto14dataplane_path8standard4viewNtB5_16StandardPathViewNtNtNtBd_4core4view4View24from_mut_slice_unchecked
FN:331,_RNvXsg_NtNtNtNtCsdVnVozic4xr_8sciparse5proto14dataplane_path8standard4viewNtB5_16StandardPathViewNtNtNtBd_4core4view4View8as_bytes
FN:360,_RNvXsh_NtNtNtNtCsdVnVozic4xr_8sciparse5proto14dataplane_path8standard4viewINtNtCslL0sV90nkwC_5alloc5boxed3BoxNtB5_16StandardPathViewENtNtCs4eoa8Adtn6U_4core5clone5Clone5clone
FN:354,_RNvXsm_NtNtNtNtCsdVnVozic4xr_8sciparse5proto7payload4scmp4viewNtB5_37ScmpDestinationUnreachableMessageViewNtNtNtBd_4core4view4View20from_boxed_unchecked
FN:344,_RNvXsm_NtNtNtNtCsdVnVozic4xr_8sciparse5proto7payload4scmp4viewNtB5_37ScmpDestinationUnreachableMessageViewNtNtNtBd_4core4view4View20from_slice_unchecked
FN:349,_RNvXsm_NtNtNtNtCsdVnVozic4xr_8sciparse5proto7payload4scmp4viewNtB5_37ScmpDestinationUnreachableMessageViewNtNtNtBd_4core4view4View24from_mut_slice_unchecked
FN:331,_RNvXsm_NtNtNtNtCsdVnVozic4xr_8sciparse5proto7payload4scmp4viewNtB5_37ScmpDestinationUnreachableMessageViewNtNtNtBd_4core4view4View8as_bytes
FN:360,_RNvXsn_NtNtNtNtCsdVnVozic4xr_8sciparse5proto7payload4scmp4viewINtNtCslL0sV90nkwC_5alloc5boxed3BoxNtB5_37ScmpDestinationUnreachableMessageViewENtNtCs4eoa8Adtn6U_4core5clone5Clone5clone
FN:354,_RNvXso_NtNtNtNtCsdVnVozic4xr_8sciparse5proto7payload4scmp4viewNtB5_27ScmpPacketTooBigMessageViewNtNtNtBd_4core4view4View20from_boxed_unchecked
FN:344,_RNvXso_NtNtNtNtCsdVnVozic4xr_8sciparse5proto7payload4scmp4viewNtB5_27ScmpPacketTooBigMessageViewNtNtNtBd_4core4view4View20from_slice_unchecked
FN:349,_RNvXso_NtNtNtNtCsdVnVozic4xr_8sciparse5proto7payload4scmp4viewNtB5_27ScmpPacketTooBigMessageViewNtNtNtBd_4core4view4View24from_mut_slice_unchecked
FN:331,_RNvXso_NtNtNtNtCsdVnVozic4xr_8sciparse5proto7payload4scmp4viewNtB5_27ScmpPacketTooBigMessageViewNtNtNtBd_4core4view4View8as_bytes
FN:360,_RNvXsp_NtNtNtNtCsdVnVozic4xr_8sciparse5proto7payload4scmp4viewINtNtCslL0sV90nkwC_5alloc5boxed3BoxNtB5_27ScmpPacketTooBigMessageViewENtNtCs4eoa8Adtn6U_4core5clone5Clone5clone
FN:354,_RNvXsq_NtNtNtNtCsdVnVozic4xr_8sciparse5proto7payload4scmp4viewNtB5_31ScmpParameterProblemMessageViewNtNtNtBd_4core4view4View20from_boxed_unchecked
FN:344,_RNvXsq_NtNtNtNtCsdVnVozic4xr_8sciparse5proto7payload4scmp4viewNtB5_31ScmpParameterProblemMessageViewNtNtNtBd_4core4view4View20from_slice_unchecked
FN:349,_RNvXsq_NtNtNtNtCsdVnVozic4xr_8sciparse5proto7payload4scmp4viewNtB5_31ScmpParameterProblemMessageViewNtNtNtBd_4core4view4View24from_mut_slice_unchecked
FN:331,_RNvXsq_NtNtNtNtCsdVnVozic4xr_8sciparse5proto7payload4scmp4viewNtB5_31ScmpParameterProblemMessageViewNtNtNtBd_4core4view4View8as_bytes
FN:360,_RNvXsr_NtNtNtNtCsdVnVozic4xr_8sciparse5proto7payload4scmp4viewINtNtCslL0sV90nkwC_5alloc5boxed3BoxNtB5_31ScmpParameterProblemMessageViewENtNtCs4eoa8Adtn6U_4core5clone5Clone5clone
FN:354,_RNvXss_NtNtNtNtCsdVnVozic4xr_8sciparse5proto7payload4scmp4viewNtB5_36ScmpExternalInterfaceDownMessageViewNtNtNtBd_4core4view4View20from_boxed_unchecked
FN:344,_RNvXss_NtNtNtNtCsdVnVozic4xr_8sciparse5proto7payload4scmp4viewNtB5_36ScmpExternalInterfaceDownMessageViewNtNtNtBd_4core4view4View20from_slice_unchecked
FN:349,_RNvXss_NtNtNtNtCsdVnVozic4xr_8sciparse5proto7payload4scmp4viewNtB5_36ScmpExternalInterfaceDownMessageViewNtNtNtBd_4core4view4View24from_mut_slice_unchecked
FN:331,_RNvXss_NtNtNtNtCsdVnVozic4xr_8sciparse5proto7payload4scmp4viewNtB5_36ScmpExternalInterfaceDownMessageViewNtNtNtBd_4core4view4View8as_bytes
FN:360,_RNvXst_NtNtNtNtCsdVnVozic4xr_8sciparse5proto7payload4scmp4viewINtNtCslL0sV90nkwC_5alloc5boxed3BoxNtB5_36ScmpExternalInterfaceDownMessageViewENtNtCs4eoa8Adtn6U_4core5clone5Clone5clone
FN:354,_RNvXsu_NtNtNtNtCsdVnVozic4xr_8sciparse5proto7payload4scmp4viewNtB5_39ScmpInternalConnectivityDownMessageViewNtNtNtBd_4core4view4View20from_boxed_unchecked
FN:344,_RNvXsu_NtNtNtNtCsdVnVozic4xr_8sciparse5proto7payload4scmp4viewNtB5_39ScmpInternalConnectivityDownMessageViewNtNtNtBd_4core4view4View20from_slice_unchecked
FN:349,_RNvXsu_NtNtNtNtCsdVnVozic4xr_8sciparse5proto7payload4scmp4viewNtB5_39ScmpInternalConnectivityDownMessageViewNtNtNtBd_4core4view4View24from_mut_slice_unchecked
FN:331,_RNvXsu_NtNtNtNtCsdVnVozic4xr_8sciparse5proto7payload4scmp4viewNtB5_39ScmpInternalConnectivityDownMessageViewNtNtNtBd_4core4view4View8as_bytes
FN:360,_RNvXsv_NtNtNtNtCsdVnVozic4xr_8sciparse5proto7payload4scmp4viewINtNtCslL0sV90nkwC_5alloc5boxed3BoxNtB5_39ScmpInternalConnectivityDownMessageViewENtNtCs4eoa8Adtn6U_4core5clone5Clone5clone
FN:354,_RNvXsw_NtNtNtNtCsdVnVozic4xr_8sciparse5proto7payload4scmp4viewNtB5_26ScmpEchoRequestMessageViewNtNtNtBd_4core4view4View20from_boxed_unchecked
FN:344,_RNvXsw_NtNtNtNtCsdVnVozic4xr_8sciparse5proto7payload4scmp4viewNtB5_26ScmpEchoRequestMessageViewNtNtNtBd_4core4view4View20from_slice_unchecked
FN:349,_RNvXsw_NtNtNtNtCsdVnVozic4xr_8sciparse5proto7payload4scmp4viewNtB5_26ScmpEchoRequestMessageViewNtNtNtBd_4core4view4View24from_mut_slice_unchecked
FN:331,_RNvXsw_NtNtNtNtCsdVnVozic4xr_8sciparse5proto7payload4scmp4viewNtB5_26ScmpEchoRequestMessageViewNtNtNtBd_4core4view4View8as_bytes
FN:360,_RNvXsx_NtNtNtNtCsdVnVozic4xr_8sciparse5proto7payload4scmp4viewINtNtCslL0sV90nkwC_5alloc5boxed3BoxNtB5_26ScmpEchoRequestMessageViewENtNtCs4eoa8Adtn6U_4core5clone5Clone5clone
FN:354,_RNvXsy_NtNtNtNtCsdVnVozic4xr_8sciparse5proto7payload4scmp4viewNtB5_24ScmpEchoReplyMessageViewNtNtNtBd_4core4view4View20from_boxed_unchecked
FN:344,_RNvXsy_NtNtNtNtCsdVnVozic4xr_8sciparse5proto7payload4scmp4viewNtB5_24ScmpEchoReplyMessageViewNtNtNtBd_4core4view4View20from_slice_unchecked
FN:349,_RNvXsy_NtNtNtNtCsdVnVozic4xr_8sciparse5proto7payload4scmp4viewNtB5_24ScmpEchoReplyMessageViewNtNtNtBd_4core4view4View24from_mut_slice_unchecked
FN:331,_RNvXsy_NtNtNtNtCsdVnVozic4xr_8sciparse5proto7payload4scmp4viewNtB5_24ScmpEchoReplyMessageViewNtNtNtBd_4core4view4View8as_bytes
FN:360,_RNvXsz_NtNtNtNtCsdVnVozic4xr_8sciparse5proto7payload4scmp4viewINtNtCslL0sV90nkwC_5alloc5boxed3BoxNtB5_24ScmpEchoReplyMessageViewENtNtCs4eoa8Adtn6U_4core5clone5Clone5clone
FN:121,_RNvYINtNtNtNtCsdVnVozic4xr_8sciparse5proto6packet4view15ScionPacketViewNtB5_3UdpENtNtNtBb_4core4view4View10from_boxedBb_
FN:89,_RNvYINtNtNtNtCsdVnVozic4xr_8sciparse5proto6packet4view15ScionPacketViewNtB5_3UdpENtNtNtBb_4core4view4View10from_sliceBb_
FN:105,_RNvYINtNtNtNtCsdVnVozic4xr_8sciparse5proto6packet4view15ScionPacketViewNtB5_3UdpENtNtNtBb_4core4view4View14from_mut_sliceBb_
FN:121,_RNvYINtNtNtNtCsdVnVozic4xr_8sciparse5proto6packet4view15ScionPacketViewNtB5_4ScmpENtNtNtBb_4core4view4View10from_boxedBb_
FN:89,_RNvYINtNtNtNtCsdVnVozic4xr_8sciparse5proto6packet4view15ScionPacketViewNtB5_4ScmpENtNtNtBb_4core4view4View10from_sliceBb_
FN:105,_RNvYINtNtNtNtCsdVnVozic4xr_8sciparse5proto6packet4view15ScionPacketViewNtB5_4ScmpENtNtNtBb_4core4view4View14from_mut_sliceBb_
FN:89,_RNvYNtNtNtNtCsdVnVozic4xr_8sciparse5proto6header4view15ScionHeaderViewNtNtNtBa_4core4view4View10from_sliceBa_
FN:148,_RNvYNtNtNtNtCsdVnVozic4xr_8sciparse5proto6header4view15ScionHeaderViewNtNtNtBa_4core4view4View8to_boxedBa_
FN:89,_RNvYNtNtNtNtCsdVnVozic4xr_8sciparse5proto6packet4view15ScionPacketViewNtNtNtBa_4core4view4View10from_sliceBa_
FN:89,_RNvYNtNtNtNtNtCsdVnVozic4xr_8sciparse5proto14dataplane_path8standard4view16StandardPathViewNtNtNtBc_4core4view4View10from_sliceBc_
FN:148,_RNvYNtNtNtNtNtCsdVnVozic4xr_8sciparse5proto14dataplane_path8standard4view16StandardPathViewNtNtNtBc_4core4view4View8to_boxedBc_
FN:89,_RNvYNtNtNtNtNtCsdVnVozic4xr_8sciparse5proto7payload3udp4view15UdpDatagramViewNtNtNtBc_4core4view4View10from_sliceBc_
FN:89,_RNvYNtNtNtNtNtCsdVnVozic4xr_8sciparse5proto7payload4scmp4view15ScmpPayloadViewNtNtNtBc_4core4view4View10from_sliceBc_
FN:148,_RNvYNtNtNtNtNtCsdVnVozic4xr_8sciparse5proto7payload4scmp4view15ScmpPayloadViewNtNtNtBc_4core4view4View8to_boxedBc_
FN:89,_RNvYNtNtNtNtNtCsdVnVozic4xr_8sciparse5proto7payload4scmp4view22ScmpUnknownMessageViewNtNtNtBc_4core4view4View10from_sliceBc_
FN:148,_RNvYNtNtNtNtNtCsdVnVozic4xr_8sciparse5proto7payload4scmp4view22ScmpUnknownMessageViewNtNtNtBc_4core4view4View8to_boxedBc_
FN:148,_RNvYNtNtNtNtNtCsdVnVozic4xr_8sciparse5proto7payload4scmp4view24ScmpEchoReplyMessageViewNtNtNtBc_4core4view4View8to_boxedBc_
FN:148,_RNvYNtNtNtNtNtCsdVnVozic4xr_8sciparse5proto7payload4scmp4view26ScmpEchoRequestMessageViewNtNtNtBc_4core4view4View8to_boxedBc_
FN:148,_RNvYNtNtNtNtNtCsdVnVozic4xr_8sciparse5proto7payload4scmp4view27ScmpPacketTooBigMessageViewNtNtNtBc_4core4view4View8to_boxedBc_
FN:148,_RNvYNtNtNtNtNtCsdVnVozic4xr_8sciparse5proto7payload4scmp4view30ScmpTracerouteReplyMessageViewNtNtNtBc_4core4view4View8to_boxedBc_
FN:148,_RNvYNtNtNtNtNtCsdVnVozic4xr_8sciparse5proto7payload4scmp4view31ScmpParameterProblemMessageViewNtNtNtBc_4core4view4View8to_boxedBc_
FN:148,_RNvYNtNtNtNtNtCsdVnVozic4xr_8sciparse5proto7payload4scmp4view32ScmpTracerouteRequestMessageViewNtNtNtBc_4core4view4View8to_boxedBc_
FN:148,_RNvYNtNtNtNtNtCsdVnVozic4xr_8sciparse5proto7payload4scmp4view36ScmpExternalInterfaceDownMessageViewNtNtNtBc_4core4view4View8to_boxedBc_
FN:148,_RNvYNtNtNtNtNtCsdVnVozic4xr_8sciparse5proto7payload4scmp4view37ScmpDestinationUnreachableMessageViewNtNtNtBc_4core4view4View8to_boxedBc_
FN:148,_RNvYNtNtNtNtNtCsdVnVozic4xr_8sciparse5proto7payload4scmp4view39ScmpInternalConnectivityDownMessageViewNtNtNtBc_4core4view4View8to_boxedBc_
FN:335,_RNvXs4_NtNtNtCsdVnVozic4xr_8sciparse5proto6header4viewNtB5_15ScionHeaderViewNtNtNtBb_4core4view4View12as_bytes_mut
FN:339,_RNvXs4_NtNtNtCsdVnVozic4xr_8sciparse5proto6header4viewNtB5_15ScionHeaderViewNtNtNtBb_4core4view4View14as_bytes_boxed
FN:335,_RNvXsA_NtNtNtNtCsdVnVozic4xr_8sciparse5proto7payload4scmp4viewNtB5_32ScmpTracerouteRequestMessageViewNtNtNtBd_4core4view4View12as_bytes_mut
FN:339,_RNvXsA_NtNtNtNtCsdVnVozic4xr_8sciparse5proto7payload4scmp4viewNtB5_32ScmpTracerouteRequestMessageViewNtNtNtBd_4core4view4View14as_bytes_boxed
FN:325,_RNvXsA_NtNtNtNtCsdVnVozic4xr_8sciparse5proto7payload4scmp4viewNtB5_32ScmpTracerouteRequestMessageViewNtNtNtBd_4core4view4View17has_required_size
FN:335,_RNvXsC_NtNtNtNtCsdVnVozic4xr_8sciparse5proto7payload4scmp4viewNtB5_30ScmpTracerouteReplyMessageViewNtNtNtBd_4core4view4View12as_bytes_mut
FN:339,_RNvXsC_NtNtNtNtCsdVnVozic4xr_8sciparse5proto7payload4scmp4viewNtB5_30ScmpTracerouteReplyMessageViewNtNtNtBd_4core4view4View14as_bytes_boxed
FN:325,_RNvXsC_NtNtNtNtCsdVnVozic4xr_8sciparse5proto7payload4scmp4viewNtB5_30ScmpTracerouteReplyMessageViewNtNtNtBd_4core4view4View17has_required_size
FN:335,_RNvXsE_NtNtNtNtCsdVnVozic4xr_8sciparse5proto7payload4scmp4viewNtB5_22ScmpUnknownMessageViewNtNtNtBd_4core4view4View12as_bytes_mut
FN:339,_RNvXsE_NtNtNtNtCsdVnVozic4xr_8sciparse5proto7payload4scmp4viewNtB5_22ScmpUnknownMessageViewNtNtNtBd_4core4view4View14as_bytes_boxed
FN:335,_RNvXsa_NtNtNtNtCsdVnVozic4xr_8sciparse5proto7payload4scmp4viewNtB5_15ScmpPayloadViewNtNtNtBd_4core4view4View12as_bytes_mut
FN:339,_RNvXsa_NtNtNtNtCsdVnVozic4xr_8sciparse5proto7payload4scmp4viewNtB5_15ScmpPayloadViewNtNtNtBd_4core4view4View14as_bytes_boxed
FN:349,_RNvXsa_NtNtNtNtCsdVnVozic4xr_8sciparse5proto7payload4scmp4viewNtB5_15ScmpPayloadViewNtNtNtBd_4core4view4View24from_mut_slice_unchecked
FN:335,_RNvXsg_NtNtNtNtCsdVnVozic4xr_8sciparse5proto14dataplane_path8standard4viewNtB5_16StandardPathViewNtNtNtBd_4core4view4View12as_bytes_mut
FN:339,_RNvXsg_NtNtNtNtCsdVnVozic4xr_8sciparse5proto14dataplane_path8standard4viewNtB5_16StandardPathViewNtNtNtBd_4core4view4View14as_bytes_boxed
FN:335,_RNvXsm_NtNtNtNtCsdVnVozic4xr_8sciparse5proto7payload4scmp4viewNtB5_37ScmpDestinationUnreachableMessageViewNtNtNtBd_4core4view4View12as_bytes_mut
FN:339,_RNvXsm_NtNtNtNtCsdVnVozic4xr_8sciparse5proto7payload4scmp4viewNtB5_37ScmpDestinationUnreachableMessageViewNtNtNtBd_4core4view4View14as_bytes_boxed
FN:325,_RNvXsm_NtNtNtNtCsdVnVozic4xr_8sciparse5proto7payload4scmp4viewNtB5_37ScmpDestinationUnreachableMessageViewNtNtNtBd_4core4view4View17has_required_size
FN:335,_RNvXso_NtNtNtNtCsdVnVozic4xr_8sciparse5proto7payload4scmp4viewNtB5_27ScmpPacketTooBigMessageViewNtNtNtBd_4core4view4View12as_bytes_mut
FN:339,_RNvXso_NtNtNtNtCsdVnVozic4xr_8sciparse5proto7payload4scmp4viewNtB5_27ScmpPacketTooBigMessageViewNtNtNtBd_4core4view4View14as_bytes_boxed
FN:325,_RNvXso_NtNtNtNtCsdVnVozic4xr_8sciparse5proto7payload4scmp4viewNtB5_27ScmpPacketTooBigMessageViewNtNtNtBd_4core4view4View17has_required_size
FN:335,_RNvXsq_NtNtNtNtCsdVnVozic4xr_8sciparse5proto7payload4scmp4viewNtB5_31ScmpParameterProblemMessageViewNtNtNtBd_4core4view4View12as_bytes_mut
FN:339,_RNvXsq_NtNtNtNtCsdVnVozic4xr_8sciparse5proto7payload4scmp4viewNtB5_31ScmpParameterProblemMessageViewNtNtNtBd_4core4view4View14as_bytes_boxed
FN:325,_RNvXsq_NtNtNtNtCsdVnVozic4xr_8sciparse5proto7payload4scmp4viewNtB5_31ScmpParameterProblemMessageViewNtNtNtBd_4core4view4View17has_required_size
FN:335,_RNvXss_NtNtNtNtCsdVnVozic4xr_8sciparse5proto7payload4scmp4viewNtB5_36ScmpExternalInterfaceDownMessageViewNtNtNtBd_4core4view4View12as_bytes_mut
FN:339,_RNvXss_NtNtNtNtCsdVnVozic4xr_8sciparse5proto7payload4scmp4viewNtB5_36ScmpExternalInterfaceDownMessageViewNtNtNtBd_4core4view4View14as_bytes_boxed
FN:325,_RNvXss_NtNtNtNtCsdVnVozic4xr_8sciparse5proto7payload4scmp4viewNtB5_36ScmpExternalInterfaceDownMessageViewNtNtNtBd_4core4view4View17has_required_size
FN:335,_RNvXsu_NtNtNtNtCsdVnVozic4xr_8sciparse5proto7payload4scmp4viewNtB5_39ScmpInternalConnectivityDownMessageViewNtNtNtBd_4core4view4View12as_bytes_mut
FN:339,_RNvXsu_NtNtNtNtCsdVnVozic4xr_8sciparse5proto7payload4scmp4viewNtB5_39ScmpInternalConnectivityDownMessageViewNtNtNtBd_4core4view4View14as_bytes_boxed
FN:325,_RNvXsu_NtNtNtNtCsdVnVozic4xr_8sciparse5proto7payload4scmp4viewNtB5_39ScmpInternalConnectivityDownMessageViewNtNtNtBd_4core4view4View17has_required_size
FN:335,_RNvXsw_NtNtNtNtCsdVnVozic4xr_8sciparse5proto7payload4scmp4viewNtB5_26ScmpEchoRequestMessageViewNtNtNtBd_4core4view4View12as_bytes_mut
FN:339,_RNvXsw_NtNtNtNtCsdVnVozic4xr_8sciparse5proto7payload4scmp4viewNtB5_26ScmpEchoRequestMessageViewNtNtNtBd_4core4view4View14as_bytes_boxed
FN:325,_RNvXsw_NtNtNtNtCsdVnVozic4xr_8sciparse5proto7payload4scmp4viewNtB5_26ScmpEchoRequestMessageViewNtNtNtBd_4core4view4View17has_required_size
FN:335,_RNvXsy_NtNtNtNtCsdVnVozic4xr_8sciparse5proto7payload4scmp4viewNtB5_24ScmpEchoReplyMessageViewNtNtNtBd_4core4view4View12as_bytes_mut
FN:339,_RNvXsy_NtNtNtNtCsdVnVozic4xr_8sciparse5proto7payload4scmp4viewNtB5_24ScmpEchoReplyMessageViewNtNtNtBd_4core4view4View14as_bytes_boxed
FN:325,_RNvXsy_NtNtNtNtCsdVnVozic4xr_8sciparse5proto7payload4scmp4viewNtB5_24ScmpEchoReplyMessageViewNtNtNtBd_4core4view4View17has_required_size
FN:180,_RNvYpNtNtNtCsdVnVozic4xr_8sciparse4core4view4View13copy_to_sliceB9_
FNDA:341,_RNvXNtNtCsdVnVozic4xr_8sciparse4core4viewNtB2_19ViewConversionErrorINtNtCs4eoa8Adtn6U_4core7convert4FromNtNtB4_6layout16LayoutParseErrorE4from
FNDA:308,_RNvYNtNtNtNtCsdVnVozic4xr_8sciparse5proto6packet4view15ScionPacketViewNtNtNtBa_4core4view4View14from_mut_sliceCs4VSkSJkd95A_14packet_parsing
FNDA:1727,_RNvMNtNtNtCsdVnVozic4xr_8sciparse5proto6header4viewNtB2_15ScionHeaderView11next_header
FNDA:8279,_RNvMNtNtNtCsdVnVozic4xr_8sciparse5proto6header4viewNtB2_15ScionHeaderView11payload_len
FNDA:1256,_RNvMNtNtNtCsdVnVozic4xr_8sciparse5proto6header4viewNtB2_15ScionHeaderView13traffic_class
FNDA:1256,_RNvMNtNtNtCsdVnVozic4xr_8sciparse5proto6header4viewNtB2_15ScionHeaderView7flow_id
FNDA:3251,_RNvMNtNtNtCsdVnVozic4xr_8sciparse5proto6header4viewNtB2_15ScionHeaderView7version
FNDA:225,_RNvMNtNtNtNtCsdVnVozic4xr_8sciparse5proto14dataplane_path8standard4viewNtB2_16StandardPathView18curr_hop_field_idx
FNDA:225,_RNvMNtNtNtNtCsdVnVozic4xr_8sciparse5proto14dataplane_path8standard4viewNtB2_16StandardPathView19curr_info_field_idx
FNDA:16857,_RNvMNtNtNtNtCsdVnVozic4xr_8sciparse5proto14dataplane_path8standard4viewNtB2_16StandardPathView8seg0_len
FNDA:16857,_RNvMNtNtNtNtCsdVnVozic4xr_8sciparse5proto14dataplane_path8standard4viewNtB2_16StandardPathView8seg1_len
FNDA:16857,_RNvMNtNtNtNtCsdVnVozic4xr_8sciparse5proto14dataplane_path8standard4viewNtB2_16StandardPathView8seg2_len
FNDA:0,_RNvMs0_NtNtNtNtCsdVnVozic4xr_8sciparse5proto7payload3udp4viewNtB5_15UdpDatagramView10set_length
FNDA:0,_RNvMs0_NtNtNtNtCsdVnVozic4xr_8sciparse5proto7payload3udp4viewNtB5_15UdpDatagramView12set_checksum
FNDA:0,_RNvMs0_NtNtNtNtCsdVnVozic4xr_8sciparse5proto7payload3udp4viewNtB5_15UdpDatagramView12set_dst_port
FNDA:0,_RNvMs0_NtNtNtNtCsdVnVozic4xr_8sciparse5proto7payload3udp4viewNtB5_15UdpDatagramView12set_src_port
FNDA:455,_RNvMs0_NtNtNtNtCsdVnVozic4xr_8sciparse5proto7payload3udp4viewNtB5_15UdpDatagramView6length
FNDA:455,_RNvMs0_NtNtNtNtCsdVnVozic4xr_8sciparse5proto7payload3udp4viewNtB5_15UdpDatagramView8checksum
FNDA:466,_RNvMs0_NtNtNtNtCsdVnVozic4xr_8sciparse5proto7payload3udp4viewNtB5_15UdpDatagramView8dst_port
FNDA:546,_RNvMs0_NtNtNtNtCsdVnVozic4xr_8sciparse5proto7payload3udp4viewNtB5_15UdpDatagramView8src_port
FNDA:0,_RNvMs0_NtNtNtNtCsdVnVozic4xr_8sciparse5proto7payload4scmp4viewNtB5_37ScmpDestinationUnreachableMessageView12message_type
FNDA:0,_RNvMs0_NtNtNtNtCsdVnVozic4xr_8sciparse5proto7payload4scmp4viewNtB5_37ScmpDestinationUnreachableMessageView12set_checksum
FNDA:0,_RNvMs0_NtNtNtNtCsdVnVozic4xr_8sciparse5proto7payload4scmp4viewNtB5_37ScmpDestinationUnreachableMessageView12set_reserved
FNDA:0,_RNvMs0_NtNtNtNtCsdVnVozic4xr_8sciparse5proto7payload4scmp4viewNtB5_37ScmpDestinationUnreachableMessageView16set_message_type
FNDA:0,_RNvMs0_NtNtNtNtCsdVnVozic4xr_8sciparse5proto7payload4scmp4viewNtB5_37ScmpDestinationUnreachableMessageView4code
FNDA:0,_RNvMs0_NtNtNtNtCsdVnVozic4xr_8sciparse5proto7payload4scmp4viewNtB5_37ScmpDestinationUnreachableMessageView8checksum
FNDA:0,_RNvMs0_NtNtNtNtCsdVnVozic4xr_8sciparse5proto7payload4scmp4viewNtB5_37ScmpDestinationUnreachableMessageView8reserved
FNDA:0,_RNvMs0_NtNtNtNtCsdVnVozic4xr_8sciparse5proto7payload4scmp4viewNtB5_37ScmpDestinationUnreachableMessageView8set_code
FNDA:0,_RNvMs1_NtNtNtNtCsdVnVozic4xr_8sciparse5proto7payload4scmp4viewNtB5_27ScmpPacketTooBigMessageView12message_type
FNDA:0,_RNvMs1_NtNtNtNtCsdVnVozic4xr_8sciparse5proto7payload4scmp4viewNtB5_27ScmpPacketTooBigMessageView12set_checksum
FNDA:0,_RNvMs1_NtNtNtNtCsdVnVozic4xr_8sciparse5proto7payload4scmp4viewNtB5_27ScmpPacketTooBigMessageView12set_reserved
FNDA:0,_RNvMs1_NtNtNtNtCsdVnVozic4xr_8sciparse5proto7payload4scmp4viewNtB5_27ScmpPacketTooBigMessageView16set_message_type
FNDA:0,_RNvMs1_NtNtNtNtCsdVnVozic4xr_8sciparse5proto7payload4scmp4viewNtB5_27ScmpPacketTooBigMessageView3mtu
FNDA:0,_RNvMs1_NtNtNtNtCsdVnVozic4xr_8sciparse5proto7payload4scmp4viewNtB5_27ScmpPacketTooBigMessageView4code
FNDA:0,_RNvMs1_NtNtNtNtCsdVnVozic4xr_8sciparse5proto7payload4scmp4viewNtB5_27ScmpPacketTooBigMessageView7set_mtu
FNDA:0,_RNvMs1_NtNtNtNtCsdVnVozic4xr_8sciparse5proto7payload4scmp4viewNtB5_27ScmpPacketTooBigMessageView8checksum
FNDA:0,_RNvMs1_NtNtNtNtCsdVnVozic4xr_8sciparse5proto7payload4scmp4viewNtB5_27ScmpPacketTooBigMessageView8reserved
FNDA:0,_RNvMs1_NtNtNtNtCsdVnVozic4xr_8sciparse5proto7payload4scmp4viewNtB5_27ScmpPacketTooBigMessageView8set_code
FNDA:0,_RNvMs2_NtNtNtNtCsdVnVozic4xr_8sciparse5proto7payload4scmp4viewNtB5_31ScmpParameterProblemMessageView11set_pointer
FNDA:0,_RNvMs2_NtNtNtNtCsdVnVozic4xr_8sciparse5proto7payload4scmp4viewNtB5_31ScmpParameterProblemMessageView12message_type
FNDA:0,_RNvMs2_NtNtNtNtCsdVnVozic4xr_8sciparse5proto7payload4scmp4viewNtB5_31ScmpParameterProblemMessageView12set_checksum
FNDA:0,_RNvMs2_NtNtNtNtCsdVnVozic4xr_8sciparse5proto7payload4scmp4viewNtB5_31ScmpParameterProblemMessageView12set_reserved
FNDA:0,_RNvMs2_NtNtNtNtCsdVnVozic4xr_8sciparse5proto7payload4scmp4viewNtB5_31ScmpParameterProblemMessageView16set_message_type
FNDA:0,_RNvMs2_NtNtNtNtCsdVnVozic4xr_8sciparse5proto7payload4scmp4viewNtB5_31ScmpParameterProblemMessageView4code
FNDA:0,_RNvMs2_NtNtNtNtCsdVnVozic4xr_8sciparse5proto7payload4scmp4viewNtB5_31ScmpParameterProblemMessageView7pointer
FNDA:0,_RNvMs2_NtNtNtNtCsdVnVozic4xr_8sciparse5proto7payload4scmp4viewNtB5_31ScmpParameterProblemMessageView8checksum
FNDA:0,_RNvMs2_NtNtNtNtCsdVnVozic4xr_8sciparse5proto7payload4scmp4viewNtB5_31ScmpParameterProblemMessageView8reserved
FNDA:0,_RNvMs2_NtNtNtNtCsdVnVozic4xr_8sciparse5proto7payload4scmp4viewNtB5_31ScmpParameterProblemMessageView8set_code
FNDA:0,_RNvMs3_NtNtNtNtCsdVnVozic4xr_8sciparse5proto7payload4scmp4viewNtB5_36ScmpExternalInterfaceDownMessageView11set_isd_asn
FNDA:0,_RNvMs3_NtNtNtNtCsdVnVozic4xr_8sciparse5proto7payload4scmp4viewNtB5_36ScmpExternalInterfaceDownMessageView12interface_id
FNDA:0,_RNvMs3_NtNtNtNtCsdVnVozic4xr_8sciparse5proto7payload4scmp4viewNtB5_36ScmpExternalInterfaceDownMessageView12message_type
FNDA:0,_RNvMs3_NtNtNtNtCsdVnVozic4xr_8sciparse5proto7payload4scmp4viewNtB5_36ScmpExternalInterfaceDownMessageView12set_checksum
FNDA:0,_RNvMs3_NtNtNtNtCsdVnVozic4xr_8sciparse5proto7payload4scmp4viewNtB5_36ScmpExternalInterfaceDownMessageView16set_interface_id
FNDA:0,_RNvMs3_NtNtNtNtCsdVnVozic4xr_8sciparse5proto7payload4scmp4viewNtB5_36ScmpExternalInterfaceDownMessageView16set_message_type
FNDA:0,_RNvMs3_NtNtNtNtCsdVnVozic4xr_8sciparse5proto7payload4scmp4viewNtB5_36ScmpExternalInterfaceDownMessageView4code
FNDA:0,_RNvMs3_NtNtNtNtCsdVnVozic4xr_8sciparse5proto7payload4scmp4viewNtB5_36ScmpExternalInterfaceDownMessageView7isd_asn
FNDA:0,_RNvMs3_NtNtNtNtCsdVnVozic4xr_8sciparse5proto7payload4scmp4viewNtB5_36ScmpExternalInterfaceDownMessageView8checksum
FNDA:0,_RNvMs3_NtNtNtNtCsdVnVozic4xr_8sciparse5proto7payload4scmp4viewNtB5_36ScmpExternalInterfaceDownMessageView8set_code
FNDA:0,_RNvMs4_NtNtNtNtCsdVnVozic4xr_8sciparse5proto7payload4scmp4viewNtB5_39ScmpInternalConnectivityDownMessageView11set_isd_asn
FNDA:0,_RNvMs4_NtNtNtNtCsdVnVozic4xr_8sciparse5proto7payload4scmp4viewNtB5_39ScmpInternalConnectivityDownMessageView12message_type
FNDA:0,_RNvMs4_NtNtNtNtCsdVnVozic4xr_8sciparse5proto7payload4scmp4viewNtB5_39ScmpInternalConnectivityDownMessageView12set_checksum
FNDA:0,_RNvMs4_NtNtNtNtCsdVnVozic4xr_8sciparse5proto7payload4scmp4viewNtB5_39ScmpInternalConnectivityDownMessageView16set_message_type
FNDA:0,_RNvMs4_NtNtNtNtCsdVnVozic4xr_8sciparse5proto7payload4scmp4viewNtB5_39ScmpInternalConnectivityDownMessageView19egress_interface_id
FNDA:0,_RNvMs4_NtNtNtNtCsdVnVozic4xr_8sciparse5proto7payload4scmp4viewNtB5_39ScmpInternalConnectivityDownMessageView20ingress_interface_id
FNDA:0,_RNvMs4_NtNtNtNtCsdVnVozic4xr_8sciparse5proto7payload4scmp4viewNtB5_39ScmpInternalConnectivityDownMessageView23set_egress_interface_id
FNDA:0,_RNvMs4_NtNtNtNtCsdVnVozic4xr_8sciparse5proto7payload4scmp4viewNtB5_39ScmpInternalConnectivityDownMessageView24set_ingress_interface_id
FNDA:0,_RNvMs4_NtNtNtNtCsdVnVozic4xr_8sciparse5proto7payload4scmp4viewNtB5_39ScmpInternalConnectivityDownMessageView4code
FNDA:0,_RNvMs4_NtNtNtNtCsdVnVozic4xr_8sciparse5proto7payload4scmp4viewNtB5_39ScmpInternalConnectivityDownMessageView7isd_asn
FNDA:0,_RNvMs4_NtNtNtNtCsdVnVozic4xr_8sciparse5proto7payload4scmp4viewNtB5_39ScmpInternalConnectivityDownMessageView8checksum
FNDA:0,_RNvMs4_NtNtNtNtCsdVnVozic4xr_8sciparse5proto7payload4scmp4viewNtB5_39ScmpInternalConnectivityDownMessageView8set_code
FNDA:31,_RNvMs5_NtNtNtNtCsdVnVozic4xr_8sciparse5proto7payload4scmp4viewNtB5_26ScmpEchoRequestMessageView10identifier
FNDA:0,_RNvMs5_NtNtNtNtCsdVnVozic4xr_8sciparse5proto7payload4scmp4viewNtB5_26ScmpEchoRequestMessageView12message_type
FNDA:0,_RNvMs5_NtNtNtNtCsdVnVozic4xr_8sciparse5proto7payload4scmp4viewNtB5_26ScmpEchoRequestMessageView12set_checksum
FNDA:0,_RNvMs5_NtNtNtNtCsdVnVozic4xr_8sciparse5proto7payload4scmp4viewNtB5_26ScmpEchoRequestMessageView14set_identifier
FNDA:0,_RNvMs5_NtNtNtNtCsdVnVozic4xr_8sciparse5proto7payload4scmp4viewNtB5_26ScmpEchoRequestMessageView15sequence_number
FNDA:0,_RNvMs5_NtNtNtNtCsdVnVozic4xr_8sciparse5proto7payload4scmp4viewNtB5_26ScmpEchoRequestMessageView16set_message_type
FNDA:0,_RNvMs5_NtNtNtNtCsdVnVozic4xr_8sciparse5proto7payload4scmp4viewNtB5_26ScmpEchoRequestMessageView19set_sequence_number
FNDA:0,_RNvMs5_NtNtNtNtCsdVnVozic4xr_8sciparse5proto7payload4scmp4viewNtB5_26ScmpEchoRequestMessageView4code
FNDA:0,_RNvMs5_NtNtNtNtCsdVnVozic4xr_8sciparse5proto7payload4scmp4viewNtB5_26ScmpEchoRequestMessageView8checksum
FNDA:0,_RNvMs5_NtNtNtNtCsdVnVozic4xr_8sciparse5proto7payload4scmp4viewNtB5_26ScmpEchoRequestMessageView8set_code
FNDA:31,_RNvMs6_NtNtNtNtCsdVnVozic4xr_8sciparse5proto7payload4scmp4viewNtB5_24ScmpEchoReplyMessageView10identifier
FNDA:0,_RNvMs6_NtNtNtNtCsdVnVozic4xr_8sciparse5proto7payload4scmp4viewNtB5_24ScmpEchoReplyMessageView12message_type
FNDA:0,_RNvMs6_NtNtNtNtCsdVnVozic4xr_8sciparse5proto7payload4scmp4viewNtB5_24ScmpEchoReplyMessageView12set_checksum
FNDA:0,_RNvMs6_NtNtNtNtCsdVnVozic4xr_8sciparse5proto7payload4scmp4viewNtB5_24ScmpEchoReplyMessageView14set_identifier
FNDA:0,_RNvMs6_NtNtNtNtCsdVnVozic4xr_8sciparse5proto7payload4scmp4viewNtB5_24ScmpEchoReplyMessageView15sequence_number
FNDA:0,_RNvMs6_NtNtNtNtCsdVnVozic4xr_8sciparse5proto7payload4scmp4viewNtB5_24ScmpEchoReplyMessageView16set_message_type
FNDA:0,_RNvMs6_NtNtNtNtCsdVnVozic4xr_8sciparse5proto7payload4scmp4viewNtB5_24ScmpEchoReplyMessageView19set_sequence_number
FNDA:0,_RNvMs6_NtNtNtNtCsdVnVozic4xr_8sciparse5proto7payload4scmp4viewNtB5_24ScmpEchoReplyMessageView4code
FNDA:0,_RNvMs6_NtNtNtNtCsdVnVozic4xr_8sciparse5proto7payload4scmp4viewNtB5_24ScmpEchoReplyMessageView8checksum
FNDA:0,_RNvMs6_NtNtNtNtCsdVnVozic4xr_8sciparse5proto7payload4scmp4viewNtB5_24ScmpEchoReplyMessageView8set_code
FNDA:13,_RNvMs7_NtNtNtNtCsdVnVozic4xr_8sciparse5proto7payload4scmp4viewNtB5_32ScmpTracerouteRequestMessageView10identifier
FNDA:0,_RNvMs7_NtNtNtNtCsdVnVozic4xr_8sciparse5proto7payload4scmp4viewNtB5_32ScmpTracerouteRequestMessageView11set_isd_asn
FNDA:0,_RNvMs7_NtNtNtNtCsdVnVozic4xr_8sciparse5proto7payload4scmp4viewNtB5_32ScmpTracerouteRequestMessageView12interface_id
FNDA:0,_RNvMs7_NtNtNtNtCsdVnVozic4xr_8sciparse5proto7payload4scmp4viewNtB5_32ScmpTracerouteRequestMessageView12message_type
FNDA:0,_RNvMs7_NtNtNtNtCsdVnVozic4xr_8sciparse5proto7payload4scmp4viewNtB5_32ScmpTracerouteRequestMessageView12set_checksum
FNDA:0,_RNvMs7_NtNtNtNtCsdVnVozic4xr_8sciparse5proto7payload4scmp4viewNtB5_32ScmpTracerouteRequestMessageView14set_identifier
FNDA:0,_RNvMs7_NtNtNtNtCsdVnVozic4xr_8sciparse5proto7payload4scmp4viewNtB5_32ScmpTracerouteRequestMessageView15sequence_number
FNDA:0,_RNvMs7_NtNtNtNtCsdVnVozic4xr_8sciparse5proto7payload4scmp4viewNtB5_32ScmpTracerouteRequestMessageView16set_interface_id
FNDA:0,_RNvMs7_NtNtNtNtCsdVnVozic4xr_8sciparse5proto7payload4scmp4viewNtB5_32ScmpTracerouteRequestMessageView16set_message_type
FNDA:0,_RNvMs7_NtNtNtNtCsdVnVozic4xr_8sciparse5proto7payload4scmp4viewNtB5_32ScmpTracerouteRequestMessageView19set_sequence_number
FNDA:0,_RNvMs7_NtNtNtNtCsdVnVozic4xr_8sciparse5proto7payload4scmp4viewNtB5_32ScmpTracerouteRequestMessageView4code
FNDA:0,_RNvMs7_NtNtNtNtCsdVnVozic4xr_8sciparse5proto7payload4scmp4viewNtB5_32ScmpTracerouteRequestMessageView7isd_asn
FNDA:0,_RNvMs7_NtNtNtNtCsdVnVozic4xr_8sciparse5proto7payload4scmp4viewNtB5_32ScmpTracerouteRequestMessageView8checksum
FNDA:0,_RNvMs7_NtNtNtNtCsdVnVozic4xr_8sciparse5proto7payload4scmp4viewNtB5_32ScmpTracerouteRequestMessageView8set_code
FNDA:982,_RNvMs8_NtNtNtNtCsdVnVozic4xr_8sciparse5proto14dataplane_path8standard4viewNtB5_13InfoFieldView10segment_id
FNDA:8,_RNvMs8_NtNtNtNtCsdVnVozic4xr_8sciparse5proto7payload4scmp4viewNtB5_30ScmpTracerouteReplyMessageView10identifier
FNDA:0,_RNvMs8_NtNtNtNtCsdVnVozic4xr_8sciparse5proto7payload4scmp4viewNtB5_30ScmpTracerouteReplyMessageView11set_isd_asn
FNDA:0,_RNvMs8_NtNtNtNtCsdVnVozic4xr_8sciparse5proto7payload4scmp4viewNtB5_30ScmpTracerouteReplyMessageView12interface_id
FNDA:0,_RNvMs8_NtNtNtNtCsdVnVozic4xr_8sciparse5proto7payload4scmp4viewNtB5_30ScmpTracerouteReplyMessageView12message_type
FNDA:0,_RNvMs8_NtNtNtNtCsdVnVozic4xr_8sciparse5proto7payload4scmp4viewNtB5_30ScmpTracerouteReplyMessageView12set_checksum
FNDA:0,_RNvMs8_NtNtNtNtCsdVnVozic4xr_8sciparse5proto7payload4scmp4viewNtB5_30ScmpTracerouteReplyMessageView14set_identifier
FNDA:0,_RNvMs8_NtNtNtNtCsdVnVozic4xr_8sciparse5proto7payload4scmp4viewNtB5_30ScmpTracerouteReplyMessageView15sequence_number
FNDA:0,_RNvMs8_NtNtNtNtCsdVnVozic4xr_8sciparse5proto7payload4scmp4viewNtB5_30ScmpTracerouteReplyMessageView16set_interface_id
FNDA:0,_RNvMs8_NtNtNtNtCsdVnVozic4xr_8sciparse5proto7payload4scmp4viewNtB5_30ScmpTracerouteReplyMessageView16set_message_type
FNDA:0,_RNvMs8_NtNtNtNtCsdVnVozic4xr_8sciparse5proto7payload4scmp4viewNtB5_30ScmpTracerouteReplyMessageView19set_sequence_number
FNDA:0,_RNvMs8_NtNtNtNtCsdVnVozic4xr_8sciparse5proto7payload4scmp4viewNtB5_30ScmpTracerouteReplyMessageView4code
FNDA:0,_RNvMs8_NtNtNtNtCsdVnVozic4xr_8sciparse5proto7payload4scmp4viewNtB5_30ScmpTracerouteReplyMessageView7isd_asn
FNDA:0,_RNvMs8_NtNtNtNtCsdVnVozic4xr_8sciparse5proto7payload4scmp4viewNtB5_30ScmpTracerouteReplyMessageView8checksum
FNDA:0,_RNvMs8_NtNtNtNtCsdVnVozic4xr_8sciparse5proto7payload4scmp4viewNtB5_30ScmpTracerouteReplyMessageView8set_code
FNDA:237,_RNvMs9_NtNtNtNtCsdVnVozic4xr_8sciparse5proto14dataplane_path8standard4viewNtB5_13InfoFieldView13set_timestamp
FNDA:237,_RNvMs9_NtNtNtNtCsdVnVozic4xr_8sciparse5proto14dataplane_path8standard4viewNtB5_13InfoFieldView14set_segment_id
FNDA:1275,_RNvMs9_NtNtNtNtCsdVnVozic4xr_8sciparse5proto7payload4scmp4viewNtB5_22ScmpUnknownMessageView12message_type
FNDA:0,_RNvMs9_NtNtNtNtCsdVnVozic4xr_8sciparse5proto7payload4scmp4viewNtB5_22ScmpUnknownMessageView12set_checksum
FNDA:0,_RNvMs9_NtNtNtNtCsdVnVozic4xr_8sciparse5proto7payload4scmp4viewNtB5_22ScmpUnknownMessageView16set_message_type
FNDA:0,_RNvMs9_NtNtNtNtCsdVnVozic4xr_8sciparse5proto7payload4scmp4viewNtB5_22ScmpUnknownMessageView4code
FNDA:0,_RNvMs9_NtNtNtNtCsdVnVozic4xr_8sciparse5proto7payload4scmp4viewNtB5_22ScmpUnknownMessageView8checksum
FNDA:0,_RNvMs9_NtNtNtNtCsdVnVozic4xr_8sciparse5proto7payload4scmp4viewNtB5_22ScmpUnknownMessageView8set_code
FNDA:628,_RNvMs_NtNtNtCsdVnVozic4xr_8sciparse5proto6header4viewNtB4_15ScionHeaderView11set_flow_id
FNDA:628,_RNvMs_NtNtNtCsdVnVozic4xr_8sciparse5proto6header4viewNtB4_15ScionHeaderView11set_version
FNDA:628,_RNvMs_NtNtNtCsdVnVozic4xr_8sciparse5proto6header4viewNtB4_15ScionHeaderView15set_next_header
FNDA:628,_RNvMs_NtNtNtCsdVnVozic4xr_8sciparse5proto6header4viewNtB4_15ScionHeaderView15set_payload_len
FNDA:628,_RNvMs_NtNtNtCsdVnVozic4xr_8sciparse5proto6header4viewNtB4_15ScionHeaderView17set_traffic_class
FNDA:75,_RNvMs_NtNtNtNtCsdVnVozic4xr_8sciparse5proto14dataplane_path8standard4viewNtB4_16StandardPathView12set_seg0_len
FNDA:75,_RNvMs_NtNtNtNtCsdVnVozic4xr_8sciparse5proto14dataplane_path8standard4viewNtB4_16StandardPathView12set_seg1_len
FNDA:75,_RNvMs_NtNtNtNtCsdVnVozic4xr_8sciparse5proto14dataplane_path8standard4viewNtB4_16StandardPathView12set_seg2_len
FNDA:75,_RNvMs_NtNtNtNtCsdVnVozic4xr_8sciparse5proto14dataplane_path8standard4viewNtB4_16StandardPathView18set_curr_hop_field
FNDA:75,_RNvMs_NtNtNtNtCsdVnVozic4xr_8sciparse5proto14dataplane_path8standard4viewNtB4_16StandardPathView19set_curr_info_field
FNDA:2019,_RNvMs_NtNtNtNtCsdVnVozic4xr_8sciparse5proto7payload4scmp4viewNtB4_15ScmpPayloadView12message_type
FNDA:0,_RNvMs_NtNtNtNtCsdVnVozic4xr_8sciparse5proto7payload4scmp4viewNtB4_15ScmpPayloadView12set_checksum
FNDA:0,_RNvMs_NtNtNtNtCsdVnVozic4xr_8sciparse5proto7payload4scmp4viewNtB4_15ScmpPayloadView16set_message_type
FNDA:648,_RNvMs_NtNtNtNtCsdVnVozic4xr_8sciparse5proto7payload4scmp4viewNtB4_15ScmpPayloadView4code
FNDA:648,_RNvMs_NtNtNtNtCsdVnVozic4xr_8sciparse5proto7payload4scmp4viewNtB4_15ScmpPayloadView8checksum
FNDA:0,_RNvMs_NtNtNtNtCsdVnVozic4xr_8sciparse5proto7payload4scmp4viewNtB4_15ScmpPayloadView8set_code
FNDA:10678,_RNvMsc_NtNtNtNtCsdVnVozic4xr_8sciparse5proto14dataplane_path8standard4viewNtB5_12HopFieldView11cons_egress
FNDA:10695,_RNvMsc_NtNtNtNtCsdVnVozic4xr_8sciparse5proto14dataplane_path8standard4viewNtB5_12HopFieldView12cons_ingress
FNDA:8556,_RNvMsc_NtNtNtNtCsdVnVozic4xr_8sciparse5proto14dataplane_path8standard4viewNtB5_12HopFieldView8exp_time
FNDA:2156,_RNvMsd_NtNtNtNtCsdVnVozic4xr_8sciparse5proto14dataplane_path8standard4viewNtB5_12HopFieldView12set_exp_time
FNDA:2156,_RNvMsd_NtNtNtNtCsdVnVozic4xr_8sciparse5proto14dataplane_path8standard4viewNtB5_12HopFieldView15set_cons_egress
FNDA:2224,_RNvMsd_NtNtNtNtCsdVnVozic4xr_8sciparse5proto14dataplane_path8standard4viewNtB5_12HopFieldView16set_cons_ingress
FNDA:0,_RNvXs4_NtNtNtCsdVnVozic4xr_8sciparse5proto6header4viewNtB5_15ScionHeaderViewNtNtNtBb_4core4view4View17has_required_size
FNDA:0,_RNvXs4_NtNtNtCsdVnVozic4xr_8sciparse5proto6header4viewNtB5_15ScionHeaderViewNtNtNtBb_4core4view4View20from_boxed_unchecked
FNDA:17471,_RNvXs4_NtNtNtCsdVnVozic4xr_8sciparse5proto6header4viewNtB5_15ScionHeaderViewNtNtNtBb_4core4view4View20from_slice_unchecked
FNDA:628,_RNvXs4_NtNtNtCsdVnVozic4xr_8sciparse5proto6header4viewNtB5_15ScionHeaderViewNtNtNtBb_4core4view4View24from_mut_slice_unchecked
FNDA:0,_RNvXs4_NtNtNtCsdVnVozic4xr_8sciparse5proto6header4viewNtB5_15ScionHeaderViewNtNtNtBb_4core4view4View8as_bytes
FNDA:0,_RNvXs5_NtNtNtCsdVnVozic4xr_8sciparse5proto6header4viewINtNtCslL0sV90nkwC_5alloc5boxed3BoxNtB5_15ScionHeaderViewENtNtCs4eoa8Adtn6U_4core5clone5Clone5clone
FNDA:0,_RNvXsA_NtNtNtNtCsdVnVozic4xr_8sciparse5proto7payload4scmp4viewNtB5_32ScmpTracerouteRequestMessageViewNtNtNtBd_4core4view4View20from_boxed_unchecked
FNDA:24,_RNvXsA_NtNtNtNtCsdVnVozic4xr_8sciparse5proto7payload4scmp4viewNtB5_32ScmpTracerouteRequestMessageViewNtNtNtBd_4core4view4View20from_slice_unchecked
FNDA:0,_RNvXsA_NtNtNtNtCsdVnVozic4xr_8sciparse5proto7payload4scmp4viewNtB5_32ScmpTracerouteRequestMessageViewNtNtNtBd_4core4view4View24from_mut_slice_unchecked
FNDA:0,_RNvXsA_NtNtNtNtCsdVnVozic4xr_8sciparse5proto7payload4scmp4viewNtB5_32ScmpTracerouteRequestMessageViewNtNtNtBd_4core4view4View8as_bytes
FNDA:0,_RNvXsB_NtNtNtNtCsdVnVozic4xr_8sciparse5proto7payload4scmp4viewINtNtCslL0sV90nkwC_5alloc5boxed3BoxNtB5_32ScmpTracerouteRequestMessageViewENtNtCs4eoa8Adtn6U_4core5clone5Clone5clone
FNDA:0,_RNvXsC_NtNtNtNtCsdVnVozic4xr_8sciparse5proto7payload4scmp4viewNtB5_30ScmpTracerouteReplyMessageViewNtNtNtBd_4core4view4View20from_boxed_unchecked
FNDA:15,_RNvXsC_NtNtNtNtCsdVnVozic4xr_8sciparse5proto7payload4scmp4viewNtB5_30ScmpTracerouteReplyMessageViewNtNtNtBd_4core4view4View20from_slice_unchecked
FNDA:0,_RNvXsC_NtNtNtNtCsdVnVozic4xr_8sciparse5proto7payload4scmp4viewNtB5_30ScmpTracerouteReplyMessageViewNtNtNtBd_4core4view4View24from_mut_slice_unchecked
FNDA:0,_RNvXsC_NtNtNtNtCsdVnVozic4xr_8sciparse5proto7payload4scmp4viewNtB5_30ScmpTracerouteReplyMessageViewNtNtNtBd_4core4view4View8as_bytes
FNDA:0,_RNvXsD_NtNtNtNtCsdVnVozic4xr_8sciparse5proto7payload4scmp4viewINtNtCslL0sV90nkwC_5alloc5boxed3BoxNtB5_30ScmpTracerouteReplyMessageViewENtNtCs4eoa8Adtn6U_4core5clone5Clone5clone
FNDA:1410,_RNvXsE_NtNtNtNtCsdVnVozic4xr_8sciparse5proto7payload4scmp4viewNtB5_22ScmpUnknownMessageViewNtNtNtBd_4core4view4View17has_required_size
FNDA:0,_RNvXsE_NtNtNtNtCsdVnVozic4xr_8sciparse5proto7payload4scmp4viewNtB5_22ScmpUnknownMessageViewNtNtNtBd_4core4view4View20from_boxed_unchecked
FNDA:1542,_RNvXsE_NtNtNtNtCsdVnVozic4xr_8sciparse5proto7payload4scmp4viewNtB5_22ScmpUnknownMessageViewNtNtNtBd_4core4view4View20from_slice_unchecked
FNDA:0,_RNvXsE_NtNtNtNtCsdVnVozic4xr_8sciparse5proto7payload4scmp4viewNtB5_22ScmpUnknownMessageViewNtNtNtBd_4core4view4View24from_mut_slice_unchecked
FNDA:0,_RNvXsE_NtNtNtNtCsdVnVozic4xr_8sciparse5proto7payload4scmp4viewNtB5_22ScmpUnknownMessageViewNtNtNtBd_4core4view4View8as_bytes
FNDA:0,_RNvXsF_NtNtNtNtCsdVnVozic4xr_8sciparse5proto7payload4scmp4viewINtNtCslL0sV90nkwC_5alloc5boxed3BoxNtB5_22ScmpUnknownMessageViewENtNtCs4eoa8Adtn6U_4core5clone5Clone5clone
FNDA:1410,_RNvXsa_NtNtNtNtCsdVnVozic4xr_8sciparse5proto7payload4scmp4viewNtB5_15ScmpPayloadViewNtNtNtBd_4core4view4View17has_required_size
FNDA:0,_RNvXsa_NtNtNtNtCsdVnVozic4xr_8sciparse5proto7payload4scmp4viewNtB5_15ScmpPayloadViewNtNtNtBd_4core4view4View20from_boxed_unchecked
FNDA:723,_RNvXsa_NtNtNtNtCsdVnVozic4xr_8sciparse5proto7payload4scmp4viewNtB5_15ScmpPayloadViewNtNtNtBd_4core4view4View20from_slice_unchecked
FNDA:457,_RNvXsa_NtNtNtNtCsdVnVozic4xr_8sciparse5proto7payload4scmp4viewNtB5_15ScmpPayloadViewNtNtNtBd_4core4view4View8as_bytes
FNDA:0,_RNvXsb_NtNtNtNtCsdVnVozic4xr_8sciparse5proto7payload4scmp4viewINtNtCslL0sV90nkwC_5alloc5boxed3BoxNtB5_15ScmpPayloadViewENtNtCs4eoa8Adtn6U_4core5clone5Clone5clone
FNDA:0,_RNvXsg_NtNtNtNtCsdVnVozic4xr_8sciparse5proto14dataplane_path8standard4viewNtB5_16StandardPathViewNtNtNtBd_4core4view4View17has_required_size
FNDA:0,_RNvXsg_NtNtNtNtCsdVnVozic4xr_8sciparse5proto14dataplane_path8standard4viewNtB5_16StandardPathViewNtNtNtBd_4core4view4View20from_boxed_unchecked
FNDA:305,_RNvXsg_NtNtNtNtCsdVnVozic4xr_8sciparse5proto14dataplane_path8standard4viewNtB5_16StandardPathViewNtNtNtBd_4core4view4View20from_slice_unchecked
FNDA:75,_RNvXsg_NtNtNtNtCsdVnVozic4xr_8sciparse5proto14dataplane_path8standard4viewNtB5_16StandardPathViewNtNtNtBd_4core4view4View24from_mut_slice_unchecked
FNDA:150,_RNvXsg_NtNtNtNtCsdVnVozic4xr_8sciparse5proto14dataplane_path8standard4viewNtB5_16StandardPathViewNtNtNtBd_4core4view4View8as_bytes
FNDA:0,_RNvXsh_NtNtNtNtCsdVnVozic4xr_8sciparse5proto14dataplane_path8standard4viewINtNtCslL0sV90nkwC_5alloc5boxed3BoxNtB5_16StandardPathViewENtNtCs4eoa8Adtn6U_4core5clone5Clone5clone
FNDA:0,_RNvXsm_NtNtNtNtCsdVnVozic4xr_8sciparse5proto7payload4scmp4viewNtB5_37ScmpDestinationUnreachableMessageViewNtNtNtBd_4core4view4View20from_boxed_unchecked
FNDA:492,_RNvXsm_NtNtNtNtCsdVnVozic4xr_8sciparse5proto7payload4scmp4viewNtB5_37ScmpDestinationUnreachableMessageViewNtNtNtBd_4core4view4View20from_slice_unchecked
FNDA:0,_RNvXsm_NtNtNtNtCsdVnVozic4xr_8sciparse5proto7payload4scmp4viewNtB5_37ScmpDestinationUnreachableMessageViewNtNtNtBd_4core4view4View24from_mut_slice_unchecked
FNDA:0,_RNvXsm_NtNtNtNtCsdVnVozic4xr_8sciparse5proto7payload4scmp4viewNtB5_37ScmpDestinationUnreachableMessageViewNtNtNtBd_4core4view4View8as_bytes
FNDA:0,_RNvXsn_NtNtNtNtCsdVnVozic4xr_8sciparse5proto7payload4scmp4viewINtNtCslL0sV90nkwC_5alloc5boxed3BoxNtB5_37ScmpDestinationUnreachableMessageViewENtNtCs4eoa8Adtn6U_4core5clone5Clone5clone
FNDA:0,_RNvXso_NtNtNtNtCsdVnVozic4xr_8sciparse5proto7payload4scmp4viewNtB5_27ScmpPacketTooBigMessageViewNtNtNtBd_4core4view4View20from_boxed_unchecked
FNDA:189,_RNvXso_NtNtNtNtCsdVnVozic4xr_8sciparse5proto7payload4scmp4viewNtB5_27ScmpPacketTooBigMessageViewNtNtNtBd_4core4view4View20from_slice_unchecked
FNDA:0,_RNvXso_NtNtNtNtCsdVnVozic4xr_8sciparse5proto7payload4scmp4viewNtB5_27ScmpPacketTooBigMessageViewNtNtNtBd_4core4view4View24from_mut_slice_unchecked
FNDA:0,_RNvXso_NtNtNtNtCsdVnVozic4xr_8sciparse5proto7payload4scmp4viewNtB5_27ScmpPacketTooBigMessageViewNtNtNtBd_4core4view4View8as_bytes
FNDA:0,_RNvXsp_NtNtNtNtCsdVnVozic4xr_8sciparse5proto7payload4scmp4viewINtNtCslL0sV90nkwC_5alloc5boxed3BoxNtB5_27ScmpPacketTooBigMessageViewENtNtCs4eoa8Adtn6U_4core5clone5Clone5clone
FNDA:0,_RNvXsq_NtNtNtNtCsdVnVozic4xr_8sciparse5proto7payload4scmp4viewNtB5_31ScmpParameterProblemMessageViewNtNtNtBd_4core4view4View20from_boxed_unchecked
FNDA:186,_RNvXsq_NtNtNtNtCsdVnVozic4xr_8sciparse5proto7payload4scmp4viewNtB5_31ScmpParameterProblemMessageViewNtNtNtBd_4core4view4View20from_slice_unchecked
FNDA:0,_RNvXsq_NtNtNtNtCsdVnVozic4xr_8sciparse5proto7payload4scmp4viewNtB5_31ScmpParameterProblemMessageViewNtNtNtBd_4core4view4View24from_mut_slice_unchecked
FNDA:0,_RNvXsq_NtNtNtNtCsdVnVozic4xr_8sciparse5proto7payload4scmp4viewNtB5_31ScmpParameterProblemMessageViewNtNtNtBd_4core4view4View8as_bytes
FNDA:0,_RNvXsr_NtNtNtNtCsdVnVozic4xr_8sciparse5proto7payload4scmp4viewINtNtCslL0sV90nkwC_5alloc5boxed3BoxNtB5_31ScmpParameterProblemMessageViewENtNtCs4eoa8Adtn6U_4core5clone5Clone5clone
FNDA:0,_RNvXss_NtNtNtNtCsdVnVozic4xr_8sciparse5proto7payload4scmp4viewNtB5_36ScmpExternalInterfaceDownMessageViewNtNtNtBd_4core4view4View20from_boxed_unchecked
FNDA:69,_RNvXss_NtNtNtNtCsdVnVozic4xr_8sciparse5proto7payload4scmp4viewNtB5_36ScmpExternalInterfaceDownMessageViewNtNtNtBd_4core4view4View20from_slice_unchecked
FNDA:0,_RNvXss_NtNtNtNtCsdVnVozic4xr_8sciparse5proto7payload4scmp4viewNtB5_36ScmpExternalInterfaceDownMessageViewNtNtNtBd_4core4view4View24from_mut_slice_unchecked
FNDA:0,_RNvXss_NtNtNtNtCsdVnVozic4xr_8sciparse5proto7payload4scmp4viewNtB5_36ScmpExternalInterfaceDownMessageViewNtNtNtBd_4core4view4View8as_bytes
FNDA:0,_RNvXst_NtNtNtNtCsdVnVozic4xr_8sciparse5proto7payload4scmp4viewINtNtCslL0sV90nkwC_5alloc5boxed3BoxNtB5_36ScmpExternalInterfaceDownMessageViewENtNtCs4eoa8Adtn6U_4core5clone5Clone5clone
FNDA:0,_RNvXsu_NtNtNtNtCsdVnVozic4xr_8sciparse5proto7payload4scmp4viewNtB5_39ScmpInternalConnectivityDownMessageViewNtNtNtBd_4core4view4View20from_boxed_unchecked
FNDA:15,_RNvXsu_NtNtNtNtCsdVnVozic4xr_8sciparse5proto7payload4scmp4viewNtB5_39ScmpInternalConnectivityDownMessageViewNtNtNtBd_4core4view4View20from_slice_unchecked
FNDA:0,_RNvXsu_NtNtNtNtCsdVnVozic4xr_8sciparse5proto7payload4scmp4viewNtB5_39ScmpInternalConnectivityDownMessageViewNtNtNtBd_4core4view4View24from_mut_slice_unchecked
FNDA:0,_RNvXsu_NtNtNtNtCsdVnVozic4xr_8sciparse5proto7payload4scmp4viewNtB5_39ScmpInternalConnectivityDownMessageViewNtNtNtBd_4core4view4View8as_bytes
FNDA:0,_RNvXsv_NtNtNtNtCsdVnVozic4xr_8sciparse5proto7payload4scmp4viewINtNtCslL0sV90nkwC_5alloc5boxed3BoxNtB5_39ScmpInternalConnectivityDownMessageViewENtNtCs4eoa8Adtn6U_4core5clone5Clone5clone
FNDA:0,_RNvXsw_NtNtNtNtCsdVnVozic4xr_8sciparse5proto7payload4scmp4viewNtB5_26ScmpEchoRequestMessageViewNtNtNtBd_4core4view4View20from_boxed_unchecked
FNDA:57,_RNvXsw_NtNtNtNtCsdVnVozic4xr_8sciparse5proto7payload4scmp4viewNtB5_26ScmpEchoRequestMessageViewNtNtNtBd_4core4view4View20from_slice_unchecked
FNDA:0,_RNvXsw_NtNtNtNtCsdVnVozic4xr_8sciparse5proto7payload4scmp4viewNtB5_26ScmpEchoRequestMessageViewNtNtNtBd_4core4view4View24from_mut_slice_unchecked
FNDA:0,_RNvXsw_NtNtNtNtCsdVnVozic4xr_8sciparse5proto7payload4scmp4viewNtB5_26ScmpEchoRequestMessageViewNtNtNtBd_4core4view4View8as_bytes
FNDA:0,_RNvXsx_NtNtNtNtCsdVnVozic4xr_8sciparse5proto7payload4scmp4viewINtNtCslL0sV90nkwC_5alloc5boxed3BoxNtB5_26ScmpEchoRequestMessageViewENtNtCs4eoa8Adtn6U_4core5clone5Clone5clone
FNDA:0,_RNvXsy_NtNtNtNtCsdVnVozic4xr_8sciparse5proto7payload4scmp4viewNtB5_24ScmpEchoReplyMessageViewNtNtNtBd_4core4view4View20from_boxed_unchecked
FNDA:57,_RNvXsy_NtNtNtNtCsdVnVozic4xr_8sciparse5proto7payload4scmp4viewNtB5_24ScmpEchoReplyMessageViewNtNtNtBd_4core4view4View20from_slice_unchecked
FNDA:0,_RNvXsy_NtNtNtNtCsdVnVozic4xr_8sciparse5proto7payload4scmp4viewNtB5_24ScmpEchoReplyMessageViewNtNtNtBd_4core4view4View24from_mut_slice_unchecked
FNDA:0,_RNvXsy_NtNtNtNtCsdVnVozic4xr_8sciparse5proto7payload4scmp4viewNtB5_24ScmpEchoReplyMessageViewNtNtNtBd_4core4view4View8as_bytes
FNDA:0,_RNvXsz_NtNtNtNtCsdVnVozic4xr_8sciparse5proto7payload4scmp4viewINtNtCslL0sV90nkwC_5alloc5boxed3BoxNtB5_24ScmpEchoReplyMessageViewENtNtCs4eoa8Adtn6U_4core5clone5Clone5clone
FNDA:0,_RNvYINtNtNtNtCsdVnVozic4xr_8sciparse5proto6packet4view15ScionPacketViewNtB5_3UdpENtNtNtBb_4core4view4View10from_boxedBb_
FNDA:323,_RNvYINtNtNtNtCsdVnVozic4xr_8sciparse5proto6packet4view15ScionPacketViewNtB5_3UdpENtNtNtBb_4core4view4View10from_sliceBb_
FNDA:289,_RNvYINtNtNtNtCsdVnVozic4xr_8sciparse5proto6packet4view15ScionPacketViewNtB5_3UdpENtNtNtBb_4core4view4View14from_mut_sliceBb_
FNDA:0,_RNvYINtNtNtNtCsdVnVozic4xr_8sciparse5proto6packet4view15ScionPacketViewNtB5_4ScmpENtNtNtBb_4core4view4View10from_boxedBb_
FNDA:398,_RNvYINtNtNtNtCsdVnVozic4xr_8sciparse5proto6packet4view15ScionPacketViewNtB5_4ScmpENtNtNtBb_4core4view4View10from_sliceBb_
FNDA:289,_RNvYINtNtNtNtCsdVnVozic4xr_8sciparse5proto6packet4view15ScionPacketViewNtB5_4ScmpENtNtNtBb_4core4view4View14from_mut_sliceBb_
FNDA:0,_RNvYNtNtNtNtCsdVnVozic4xr_8sciparse5proto6header4view15ScionHeaderViewNtNtNtBa_4core4view4View10from_sliceBa_
FNDA:0,_RNvYNtNtNtNtCsdVnVozic4xr_8sciparse5proto6header4view15ScionHeaderViewNtNtNtBa_4core4view4View8to_boxedBa_
FNDA:504,_RNvYNtNtNtNtCsdVnVozic4xr_8sciparse5proto6packet4view15ScionPacketViewNtNtNtBa_4core4view4View10from_sliceBa_
FNDA:0,_RNvYNtNtNtNtNtCsdVnVozic4xr_8sciparse5proto14dataplane_path8standard4view16StandardPathViewNtNtNtBc_4core4view4View10from_sliceBc_
FNDA:0,_RNvYNtNtNtNtNtCsdVnVozic4xr_8sciparse5proto14dataplane_path8standard4view16StandardPathViewNtNtNtBc_4core4view4View8to_boxedBc_
FNDA:605,_RNvYNtNtNtNtNtCsdVnVozic4xr_8sciparse5proto7payload3udp4view15UdpDatagramViewNtNtNtBc_4core4view4View10from_sliceBc_
FNDA:723,_RNvYNtNtNtNtNtCsdVnVozic4xr_8sciparse5proto7payload4scmp4view15ScmpPayloadViewNtNtNtBc_4core4view4View10from_sliceBc_
FNDA:0,_RNvYNtNtNtNtNtCsdVnVozic4xr_8sciparse5proto7payload4scmp4view15ScmpPayloadViewNtNtNtBc_4core4view4View8to_boxedBc_
FNDA:1410,_RNvYNtNtNtNtNtCsdVnVozic4xr_8sciparse5proto7payload4scmp4view22ScmpUnknownMessageViewNtNtNtBc_4core4view4View10from_sliceBc_
FNDA:0,_RNvYNtNtNtNtNtCsdVnVozic4xr_8sciparse5proto7payload4scmp4view22ScmpUnknownMessageViewNtNtNtBc_4core4view4View8to_boxedBc_
FNDA:0,_RNvYNtNtNtNtNtCsdVnVozic4xr_8sciparse5proto7payload4scmp4view24ScmpEchoReplyMessageViewNtNtNtBc_4core4view4View8to_boxedBc_
FNDA:0,_RNvYNtNtNtNtNtCsdVnVozic4xr_8sciparse5proto7payload4scmp4view26ScmpEchoRequestMessageViewNtNtNtBc_4core4view4View8to_boxedBc_
FNDA:0,_RNvYNtNtNtNtNtCsdVnVozic4xr_8sciparse5proto7payload4scmp4view27ScmpPacketTooBigMessageViewNtNtNtBc_4core4view4View8to_boxedBc_
FNDA:0,_RNvYNtNtNtNtNtCsdVnVozic4xr_8sciparse5proto7payload4scmp4view30ScmpTracerouteReplyMessageViewNtNtNtBc_4core4view4View8to_boxedBc_
FNDA:0,_RNvYNtNtNtNtNtCsdVnVozic4xr_8sciparse5proto7payload4scmp4view31ScmpParameterProblemMessageViewNtNtNtBc_4core4view4View8to_boxedBc_
FNDA:0,_RNvYNtNtNtNtNtCsdVnVozic4xr_8sciparse5proto7payload4scmp4view32ScmpTracerouteRequestMessageViewNtNtNtBc_4core4view4View8to_boxedBc_
FNDA:0,_RNvYNtNtNtNtNtCsdVnVozic4xr_8sciparse5proto7payload4scmp4view36ScmpExternalInterfaceDownMessageViewNtNtNtBc_4core4view4View8to_boxedBc_
FNDA:0,_RNvYNtNtNtNtNtCsdVnVozic4xr_8sciparse5proto7payload4scmp4view37ScmpDestinationUnreachableMessageViewNtNtNtBc_4core4view4View8to_boxedBc_
FNDA:0,_RNvYNtNtNtNtNtCsdVnVozic4xr_8sciparse5proto7payload4scmp4view39ScmpInternalConnectivityDownMessageViewNtNtNtBc_4core4view4View8to_boxedBc_
FNDA:0,_RNvXs4_NtNtNtCsdVnVozic4xr_8sciparse5proto6header4viewNtB5_15ScionHeaderViewNtNtNtBb_4core4view4View12as_bytes_mut
FNDA:0,_RNvXs4_NtNtNtCsdVnVozic4xr_8sciparse5proto6header4viewNtB5_15ScionHeaderViewNtNtNtBb_4core4view4View14as_bytes_boxed
FNDA:0,_RNvXsA_NtNtNtNtCsdVnVozic4xr_8sciparse5proto7payload4scmp4viewNtB5_32ScmpTracerouteRequestMessageViewNtNtNtBd_4core4view4View12as_bytes_mut
FNDA:0,_RNvXsA_NtNtNtNtCsdVnVozic4xr_8sciparse5proto7payload4scmp4viewNtB5_32ScmpTracerouteRequestMessageViewNtNtNtBd_4core4view4View14as_bytes_boxed
FNDA:0,_RNvXsA_NtNtNtNtCsdVnVozic4xr_8sciparse5proto7payload4scmp4viewNtB5_32ScmpTracerouteRequestMessageViewNtNtNtBd_4core4view4View17has_required_size
FNDA:0,_RNvXsC_NtNtNtNtCsdVnVozic4xr_8sciparse5proto7payload4scmp4viewNtB5_30ScmpTracerouteReplyMessageViewNtNtNtBd_4core4view4View12as_bytes_mut
FNDA:0,_RNvXsC_NtNtNtNtCsdVnVozic4xr_8sciparse5proto7payload4scmp4viewNtB5_30ScmpTracerouteReplyMessageViewNtNtNtBd_4core4view4View14as_bytes_boxed
FNDA:0,_RNvXsC_NtNtNtNtCsdVnVozic4xr_8sciparse5proto7payload4scmp4viewNtB5_30ScmpTracerouteReplyMessageViewNtNtNtBd_4core4view4View17has_required_size
FNDA:0,_RNvXsE_NtNtNtNtCsdVnVozic4xr_8sciparse5proto7payload4scmp4viewNtB5_22ScmpUnknownMessageViewNtNtNtBd_4core4view4View12as_bytes_mut
FNDA:0,_RNvXsE_NtNtNtNtCsdVnVozic4xr_8sciparse5proto7payload4scmp4viewNtB5_22ScmpUnknownMessageViewNtNtNtBd_4core4view4View14as_bytes_boxed
FNDA:0,_RNvXsa_NtNtNtNtCsdVnVozic4xr_8sciparse5proto7payload4scmp4viewNtB5_15ScmpPayloadViewNtNtNtBd_4core4view4View12as_bytes_mut
FNDA:0,_RNvXsa_NtNtNtNtCsdVnVozic4xr_8sciparse5proto7payload4scmp4viewNtB5_15ScmpPayloadViewNtNtNtBd_4core4view4View14as_bytes_boxed
FNDA:0,_RNvXsa_NtNtNtNtCsdVnVozic4xr_8sciparse5proto7payload4scmp4viewNtB5_15ScmpPayloadViewNtNtNtBd_4core4view4View24from_mut_slice_unchecked
FNDA:0,_RNvXsg_NtNtNtNtCsdVnVozic4xr_8sciparse5proto14dataplane_path8standard4viewNtB5_16StandardPathViewNtNtNtBd_4core4view4View12as_bytes_mut
FNDA:0,_RNvXsg_NtNtNtNtCsdVnVozic4xr_8sciparse5proto14dataplane_path8standard4viewNtB5_16StandardPathViewNtNtNtBd_4core4view4View14as_bytes_boxed
FNDA:0,_RNvXsm_NtNtNtNtCsdVnVozic4xr_8sciparse5proto7payload4scmp4viewNtB5_37ScmpDestinationUnreachableMessageViewNtNtNtBd_4core4view4View12as_bytes_mut
FNDA:0,_RNvXsm_NtNtNtNtCsdVnVozic4xr_8sciparse5proto7payload4scmp4viewNtB5_37ScmpDestinationUnreachableMessageViewNtNtNtBd_4core4view4View14as_bytes_boxed
FNDA:0,_RNvXsm_NtNtNtNtCsdVnVozic4xr_8sciparse5proto7payload4scmp4viewNtB5_37ScmpDestinationUnreachableMessageViewNtNtNtBd_4core4view4View17has_required_size
FNDA:0,_RNvXso_NtNtNtNtCsdVnVozic4xr_8sciparse5proto7payload4scmp4viewNtB5_27ScmpPacketTooBigMessageViewNtNtNtBd_4core4view4View12as_bytes_mut
FNDA:0,_RNvXso_NtNtNtNtCsdVnVozic4xr_8sciparse5proto7payload4scmp4viewNtB5_27ScmpPacketTooBigMessageViewNtNtNtBd_4core4view4View14as_bytes_boxed
FNDA:0,_RNvXso_NtNtNtNtCsdVnVozic4xr_8sciparse5proto7payload4scmp4viewNtB5_27ScmpPacketTooBigMessageViewNtNtNtBd_4core4view4View17has_required_size
FNDA:0,_RNvXsq_NtNtNtNtCsdVnVozic4xr_8sciparse5proto7payload4scmp4viewNtB5_31ScmpParameterProblemMessageViewNtNtNtBd_4core4view4View12as_bytes_mut
FNDA:0,_RNvXsq_NtNtNtNtCsdVnVozic4xr_8sciparse5proto7payload4scmp4viewNtB5_31ScmpParameterProblemMessageViewNtNtNtBd_4core4view4View14as_bytes_boxed
FNDA:0,_RNvXsq_NtNtNtNtCsdVnVozic4xr_8sciparse5proto7payload4scmp4viewNtB5_31ScmpParameterProblemMessageViewNtNtNtBd_4core4view4View17has_required_size
FNDA:0,_RNvXss_NtNtNtNtCsdVnVozic4xr_8sciparse5proto7payload4scmp4viewNtB5_36ScmpExternalInterfaceDownMessageViewNtNtNtBd_4core4view4View12as_bytes_mut
FNDA:0,_RNvXss_NtNtNtNtCsdVnVozic4xr_8sciparse5proto7payload4scmp4viewNtB5_36ScmpExternalInterfaceDownMessageViewNtNtNtBd_4core4view4View14as_bytes_boxed
FNDA:0,_RNvXss_NtNtNtNtCsdVnVozic4xr_8sciparse5proto7payload4scmp4viewNtB5_36ScmpExternalInterfaceDownMessageViewNtNtNtBd_4core4view4View17has_required_size
FNDA:0,_RNvXsu_NtNtNtNtCsdVnVozic4xr_8sciparse5proto7payload4scmp4viewNtB5_39ScmpInternalConnectivityDownMessageViewNtNtNtBd_4core4view4View12as_bytes_mut
FNDA:0,_RNvXsu_NtNtNtNtCsdVnVozic4xr_8sciparse5proto7payload4scmp4viewNtB5_39ScmpInternalConnectivityDownMessageViewNtNtNtBd_4core4view4View14as_bytes_boxed
FNDA:0,_RNvXsu_NtNtNtNtCsdVnVozic4xr_8sciparse5proto7payload4scmp4viewNtB5_39ScmpInternalConnectivityDownMessageViewNtNtNtBd_4core4view4View17has_required_size
FNDA:0,_RNvXsw_NtNtNtNtCsdVnVozic4xr_8sciparse5proto7payload4scmp4viewNtB5_26ScmpEchoRequestMessageViewNtNtNtBd_4core4view4View12as_bytes_mut
FNDA:0,_RNvXsw_NtNtNtNtCsdVnVozic4xr_8sciparse5proto7payload4scmp4viewNtB5_26ScmpEchoRequestMessageViewNtNtNtBd_4core4view4View14as_bytes_boxed
FNDA:0,_RNvXsw_NtNtNtNtCsdVnVozic4xr_8sciparse5proto7payload4scmp4viewNtB5_26ScmpEchoRequestMessageViewNtNtNtBd_4core4view4View17has_required_size
FNDA:0,_RNvXsy_NtNtNtNtCsdVnVozic4xr_8sciparse5proto7payload4scmp4viewNtB5_24ScmpEchoReplyMessageViewNtNtNtBd_4core4view4View12as_bytes_mut
FNDA:0,_RNvXsy_NtNtNtNtCsdVnVozic4xr_8sciparse5proto7payload4scmp4viewNtB5_24ScmpEchoReplyMessageViewNtNtNtBd_4core4view4View14as_bytes_boxed
FNDA:0,_RNvXsy_NtNtNtNtCsdVnVozic4xr_8sciparse5proto7payload4scmp4viewNtB5_24ScmpEchoReplyMessageViewNtNtNtBd_4core4view4View17has_required_size
FNDA:0,_RNvYpNtNtNtCsdVnVozic4xr_8sciparse4core4view4View13copy_to_sliceB9_
FNF:17
FNH:10
DA:89,3963
DA:90,3963
DA:92,3162
DA:95,3162
DA:96,3162
DA:98,3162
DA:99,3963
DA:105,886
DA:106,886
DA:108,628
DA:111,628
DA:112,628
DA:114,628
DA:115,886
DA:121,0
DA:122,0
DA:124,0
DA:125,0
DA:126,0
DA:127,0
DA:128,0
DA:130,0
DA:131,0
DA:148,0
DA:149,0
DA:150,0
DA:180,0
DA:181,0
DA:182,0
DA:183,0
DA:184,0
DA:185,0
DA:186,0
DA:187,0
DA:188,0
DA:189,0
DA:190,0
DA:191,0
DA:193,0
DA:194,0
DA:197,0
DA:199,0
DA:200,0
DA:221,341
DA:222,341
DA:224,285
DA:225,285
DA:226,285
DA:228,285
DA:229,285
DA:230,285
DA:231,285
DA:232,285
DA:235,12
DA:238,44
DA:241,341
DA:272,104296
DA:274,104296
DA:275,104296
DA:292,9672
DA:294,9672
DA:295,9672
DA:314,853
DA:316,853
DA:317,853
DA:325,2820
DA:327,2820
DA:328,2455
DA:329,2820
DA:331,607
DA:332,607
DA:333,607
DA:335,0
DA:336,0
DA:337,0
DA:339,0
DA:341,0
DA:342,0
DA:344,21145
DA:346,21145
DA:347,21145
DA:349,703
DA:351,703
DA:352,703
DA:354,0
DA:356,0
DA:357,0
DA:360,0
DA:361,0
DA:362,0
BRF:0
BRH:0
LF:90
LH:49
end_of_record
SF:/home/akelbsch/projects/scion/endhost/public/scion-proto/sciparse/src/core/write.rs
FN:54,_RINvNtNtCsdVnVozic4xr_8sciparse4core5write28unchecked_bit_range_be_writeNtNtNtNtB6_5scion10identifier7isd_asn6IsdAsnEB6_
FN:54,_RINvNtNtCsdVnVozic4xr_8sciparse4core5write28unchecked_bit_range_be_writeNtNtNtNtNtB6_5proto7payload4scmp5types15ScmpMessageTypeEB6_
FN:54,_RINvNtNtCsdVnVozic4xr_8sciparse4core5write28unchecked_bit_range_be_writeNtNtNtNtNtB6_5proto7payload4scmp5types24ScmpParameterProblemCodeEB6_
FN:54,_RINvNtNtCsdVnVozic4xr_8sciparse4core5write28unchecked_bit_range_be_writeNtNtNtNtNtB6_5proto7payload4scmp5types30ScmpDestinationUnreachableCodeEB6_
FN:54,_RINvNtNtCsdVnVozic4xr_8sciparse4core5write28unchecked_bit_range_be_writehEB6_
FN:54,_RINvNtNtCsdVnVozic4xr_8sciparse4core5write28unchecked_bit_range_be_writemEB6_
FN:54,_RINvNtNtCsdVnVozic4xr_8sciparse4core5write28unchecked_bit_range_be_writetEB6_
FN:54,_RINvNtNtCsdVnVozic4xr_8sciparse4core5write28unchecked_bit_range_be_writeyEB6_
FN:29,_RNvXNtNtCsdVnVozic4xr_8sciparse4core5writehNtB2_18IntoUnalignedWrite16into_write_value
FN:29,_RNvXs0_NtNtCsdVnVozic4xr_8sciparse4core5writemNtB5_18IntoUnalignedWrite16into_write_value
FN:29,_RNvXs1_NtNtCsdVnVozic4xr_8sciparse4core5writeyNtB5_18IntoUnalignedWrite16into_write_value
FN:29,_RNvXs_NtNtCsdVnVozic4xr_8sciparse4core5writetNtB4_18IntoUnalignedWrite16into_write_value
FNDA:0,_RINvNtNtCsdVnVozic4xr_8sciparse4core5write28unchecked_bit_range_be_writeNtNtNtNtB6_5scion10identifier7isd_asn6IsdAsnEB6_
FNDA:0,_RINvNtNtCsdVnVozic4xr_8sciparse4core5write28unchecked_bit_range_be_writeNtNtNtNtNtB6_5proto7payload4scmp5types15ScmpMessageTypeEB6_
FNDA:0,_RINvNtNtCsdVnVozic4xr_8sciparse4core5write28unchecked_bit_range_be_writeNtNtNtNtNtB6_5proto7payload4scmp5types24ScmpParameterProblemCodeEB6_
FNDA:0,_RINvNtNtCsdVnVozic4xr_8sciparse4core5write28unchecked_bit_range_be_writeNtNtNtNtNtB6_5proto7payload4scmp5types30ScmpDestinationUnreachableCodeEB6_
FNDA:9286,_RINvNtNtCsdVnVozic4xr_8sciparse4core5write28unchecked_bit_range_be_writehEB6_
FNDA:865,_RINvNtNtCsdVnVozic4xr_8sciparse4core5write28unchecked_bit_range_be_writemEB6_
FNDA:6501,_RINvNtNtCsdVnVozic4xr_8sciparse4core5write28unchecked_bit_range_be_writetEB6_
FNDA:1256,_RINvNtNtCsdVnVozic4xr_8sciparse4core5write28unchecked_bit_range_be_writeyEB6_
FNDA:9286,_RNvXNtNtCsdVnVozic4xr_8sciparse4core5writehNtB2_18IntoUnalignedWrite16into_write_value
FNDA:865,_RNvXs0_NtNtCsdVnVozic4xr_8sciparse4core5writemNtB5_18IntoUnalignedWrite16into_write_value
FNDA:1256,_RNvXs1_NtNtCsdVnVozic4xr_8sciparse4core5writeyNtB5_18IntoUnalignedWrite16into_write_value
FNDA:6501,_RNvXs_NtNtCsdVnVozic4xr_8sciparse4core5writetNtB4_18IntoUnalignedWrite16into_write_value
FNF:2
FNH:2
DA:29,17908
DA:30,17908
DA:31,17908
DA:54,17908
DA:55,17908
DA:56,17908
DA:61,17908
DA:62,17908
DA:63,17908
DA:64,17908
DA:66,17908
DA:67,17908
DA:68,0
DA:70,17908
DA:72,17908
DA:75,17908
DA:76,17908
DA:77,17908
DA:78,17908
DA:79,17908
DA:80,17908
DA:81,17908
DA:83,17908
DA:91,17908
DA:92,17908
DA:95,17908
DA:96,17908
DA:97,17908
DA:100,17908
DA:101,17908
DA:104,17908
DA:107,17908
DA:108,17908
DA:109,17908
DA:110,17908
DA:111,17908
DA:112,17908
DA:113,17908
DA:114,17908
DA:115,17908
BRF:0
BRH:0
LF:40
LH:39
end_of_record
SF:/home/akelbsch/projects/scion/endhost/public/scion-proto/sciparse/src/proto/dataplane_path/layout.rs
FN:66,_RNvMNtNtNtCsdVnVozic4xr_8sciparse5proto14dataplane_path6layoutNtB2_21ScionHeaderPathLayout11annotations
FN:87,_RNvXs_NtNtNtCsdVnVozic4xr_8sciparse5proto14dataplane_path6layoutNtB4_21ScionHeaderPathLayoutNtNtNtBa_4core6layout6Layout10size_bytes
FN:56,_RNvMNtNtNtCsdVnVozic4xr_8sciparse5proto14dataplane_path6layoutNtB2_21ScionHeaderPathLayout9path_type
FN:99,_RNvXs0_NtNtNtCsdVnVozic4xr_8sciparse5proto14dataplane_path6layoutNtB5_21ScionHeaderPathLayoutINtNtCs4eoa8Adtn6U_4core7convert4FromNtNtNtB7_8standard6layout17StdPathDataLayoutE4from
FNDA:0,_RNvMNtNtNtCsdVnVozic4xr_8sciparse5proto14dataplane_path6layoutNtB2_21ScionHeaderPathLayout11annotations
FNDA:1819,_RNvXs_NtNtNtCsdVnVozic4xr_8sciparse5proto14dataplane_path6layoutNtB4_21ScionHeaderPathLayoutNtNtNtBa_4core6layout6Layout10size_bytes
FNDA:0,_RNvMNtNtNtCsdVnVozic4xr_8sciparse5proto14dataplane_path6layoutNtB2_21ScionHeaderPathLayout9path_type
FNDA:0,_RNvXs0_NtNtNtCsdVnVozic4xr_8sciparse5proto14dataplane_path6layoutNtB5_21ScionHeaderPathLayoutINtNtCs4eoa8Adtn6U_4core7convert4FromNtNtNtB7_8standard6layout17StdPathDataLayoutE4from
FNF:4
FNH:1
DA:56,0
DA:57,0
DA:58,0
DA:59,0
DA:60,0
DA:61,0
DA:63,0
DA:66,0
DA:67,0
DA:68,0
DA:69,0
DA:70,0
DA:71,0
DA:72,0
DA:73,0
DA:74,0
DA:75,0
DA:76,0
DA:77,0
DA:78,0
DA:82,0
DA:83,0
DA:87,1819
DA:88,1819
DA:89,230
DA:90,230
DA:92,60
DA:93,65
DA:94,1464
DA:96,1819
DA:99,0
DA:100,0
DA:101,0
BRF:0
BRH:0
LF:33
LH:8
end_of_record
SF:/home/akelbsch/projects/scion/endhost/public/scion-proto/sciparse/src/proto/dataplane_path/model.rs
FN:212,_RNCNvXs_NtNtNtNtCsdVnVozic4xr_8sciparse5proto14dataplane_path5model5ptestNtB8_6DpPathNtNtNtCskZahNybV1yu_8proptest9arbitrary6traits9Arbitrary14arbitrary_with0Be_
FN:51,_RNvMNtNtNtCsdVnVozic4xr_8sciparse5proto14dataplane_path5modelNtB2_6DpPath9from_view
FN:94,_RNvMs_NtNtNtCsdVnVozic4xr_8sciparse5proto14dataplane_path5modelNtB4_6DpPath11try_reverse
FN:74,_RNvMs_NtNtNtCsdVnVozic4xr_8sciparse5proto14dataplane_path5modelNtB4_6DpPath9path_type
FN:118,_RNvXs0_NtNtNtCsdVnVozic4xr_8sciparse5proto14dataplane_path5modelNtB5_6DpPathNtNtNtBb_4core6encode10WireEncode10wire_valid
FN:109,_RNvXs0_NtNtNtCsdVnVozic4xr_8sciparse5proto14dataplane_path5modelNtB5_6DpPathNtNtNtBb_4core6encode10WireEncode13required_size
FN:137,_RNvXs0_NtNtNtCsdVnVozic4xr_8sciparse5proto14dataplane_path5modelNtB5_6DpPathNtNtNtBb_4core6encode10WireEncode16encode_unchecked
FN:201,_RNvXs_NtNtNtNtCsdVnVozic4xr_8sciparse5proto14dataplane_path5model5ptestNtB6_6DpPathNtNtNtCskZahNybV1yu_8proptest9arbitrary6traits9Arbitrary14arbitrary_with
FN:84,_RNvMs_NtNtNtCsdVnVozic4xr_8sciparse5proto14dataplane_path5modelNtB4_6DpPath8standard
FN:185,_RNvXNtNtNtNtCsdVnVozic4xr_8sciparse5proto14dataplane_path5model5ptestNtB2_19ArbitraryPathParamsNtNtCs4eoa8Adtn6U_4core7default7Default7default
FNDA:0,_RNCNvXs_NtNtNtNtCsdVnVozic4xr_8sciparse5proto14dataplane_path5model5ptestNtB8_6DpPathNtNtNtCskZahNybV1yu_8proptest9arbitrary6traits9Arbitrary14arbitrary_with0Be_
FNDA:0,_RNvMNtNtNtCsdVnVozic4xr_8sciparse5proto14dataplane_path5modelNtB2_6DpPath9from_view
FNDA:0,_RNvMs_NtNtNtCsdVnVozic4xr_8sciparse5proto14dataplane_path5modelNtB4_6DpPath11try_reverse
FNDA:0,_RNvMs_NtNtNtCsdVnVozic4xr_8sciparse5proto14dataplane_path5modelNtB4_6DpPath9path_type
FNDA:0,_RNvXs0_NtNtNtCsdVnVozic4xr_8sciparse5proto14dataplane_path5modelNtB5_6DpPathNtNtNtBb_4core6encode10WireEncode10wire_valid
FNDA:0,_RNvXs0_NtNtNtCsdVnVozic4xr_8sciparse5proto14dataplane_path5modelNtB5_6DpPathNtNtNtBb_4core6encode10WireEncode13required_size
FNDA:0,_RNvXs0_NtNtNtCsdVnVozic4xr_8sciparse5proto14dataplane_path5modelNtB5_6DpPathNtNtNtBb_4core6encode10WireEncode16encode_unchecked
FNDA:0,_RNvXs_NtNtNtNtCsdVnVozic4xr_8sciparse5proto14dataplane_path5model5ptestNtB6_6DpPathNtNtNtCskZahNybV1yu_8proptest9arbitrary6traits9Arbitrary14arbitrary_with
FNDA:0,_RNvMs_NtNtNtCsdVnVozic4xr_8sciparse5proto14dataplane_path5modelNtB4_6DpPath8standard
FNDA:0,_RNvXNtNtNtNtCsdVnVozic4xr_8sciparse5proto14dataplane_path5model5ptestNtB2_19ArbitraryPathParamsNtNtCs4eoa8Adtn6U_4core7default7Default7default
FNF:10
FNH:0
DA:51,0
DA:52,0
DA:53,0
DA:54,0
DA:56,0
DA:57,0
DA:59,0
DA:61,0
DA:62,0
DA:64,0
DA:65,0
DA:66,0
DA:67,0
DA:70,0
DA:74,0
DA:75,0
DA:76,0
DA:77,0
DA:78,0
DA:79,0
DA:81,0
DA:84,0
DA:85,0
DA:86,0
DA:87,0
DA:89,0
DA:94,0
DA:95,0
DA:96,0
DA:97,0
DA:98,0
DA:100,0
DA:101,0
DA:102,0
DA:105,0
DA:109,0
DA:110,0
DA:111,0
DA:112,0
DA:113,0
DA:114,0
DA:116,0
DA:118,0
DA:119,0
DA:120,0
DA:121,0
DA:123,0
DA:124,0
DA:125,0
DA:126,0
DA:127,0
DA:128,0
DA:129,0
DA:130,0
DA:134,0
DA:135,0
DA:137,0
DA:138,0
DA:139,0
DA:140,0
DA:141,0
DA:142,0
DA:143,0
DA:145,0
DA:146,0
DA:147,0
DA:149,0
DA:152,0
DA:185,0
DA:186,0
DA:187,0
DA:188,0
DA:189,0
DA:190,0
DA:191,0
DA:192,0
DA:193,0
DA:194,0
DA:201,0
DA:202,0
DA:203,0
DA:204,0
DA:205,0
DA:206,0
DA:207,0
DA:208,0
DA:209,0
DA:210,0
DA:211,0
DA:212,0
DA:214,0
DA:215,0
DA:216,0
DA:219,0
DA:220,0
DA:221,0
DA:222,0
DA:223,0
DA:224,0
DA:225,0
DA:227,0
DA:228,0
BRF:0
BRH:0
LF:103
LH:0
end_of_record
SF:/home/akelbsch/projects/scion/endhost/public/scion-proto/sciparse/src/proto/dataplane_path/onehop/layout.rs
FN:55,_RNvMs_NtNtNtNtCsdVnVozic4xr_8sciparse5proto14dataplane_path6onehop6layoutNtB4_16OneHopPathLayout11annotations
FN:65,_RNvXs0_NtNtNtNtCsdVnVozic4xr_8sciparse5proto14dataplane_path6onehop6layoutNtB5_16OneHopPathLayoutNtNtNtBd_4core6layout6Layout10size_bytes
FN:71,_RNvXs1_NtNtNtNtCsdVnVozic4xr_8sciparse5proto14dataplane_path6onehop6layoutNtB5_16OneHopPathLayoutINtNtCs4eoa8Adtn6U_4core7convert7TryFromRShE8try_from
FNDA:0,_RNvMs_NtNtNtNtCsdVnVozic4xr_8sciparse5proto14dataplane_path6onehop6layoutNtB4_16OneHopPathLayout11annotations
FNDA:60,_RNvXs0_NtNtNtNtCsdVnVozic4xr_8sciparse5proto14dataplane_path6onehop6layoutNtB5_16OneHopPathLayoutNtNtNtBd_4core6layout6Layout10size_bytes
FNDA:0,_RNvXs1_NtNtNtNtCsdVnVozic4xr_8sciparse5proto14dataplane_path6onehop6layoutNtB5_16OneHopPathLayoutINtNtCs4eoa8Adtn6U_4core7convert7TryFromRShE8try_from
FNF:3
FNH:1
DA:55,0
DA:56,0
DA:57,0
DA:58,0
DA:59,0
DA:60,0
DA:61,0
DA:65,60
DA:66,60
DA:67,60
DA:71,0
DA:72,0
DA:73,0
DA:74,0
DA:75,0
DA:76,0
DA:77,0
DA:78,0
DA:80,0
DA:81,0
BRF:0
BRH:0
LF:20
LH:3
end_of_record
SF:/home/akelbsch/projects/scion/endhost/public/scion-proto/sciparse/src/proto/dataplane_path/onehop/model.rs
FN:228,_RNCNvXNtNtNtNtNtCsdVnVozic4xr_8sciparse5proto14dataplane_path6onehop5model5ptestNtB6_10OneHopPathNtNtNtCskZahNybV1yu_8proptest9arbitrary6traits9Arbitrary14arbitrary_with0Be_
FN:153,_RNvMNtNtNtNtCsdVnVozic4xr_8sciparse5proto14dataplane_path6onehop5modelNtB2_10OneHopPath11try_reverse
FN:89,_RNvMNtNtNtNtCsdVnVozic4xr_8sciparse5proto14dataplane_path6onehop5modelNtB2_10OneHopPath14set_second_hop
FN:122,_RNvMNtNtNtNtCsdVnVozic4xr_8sciparse5proto14dataplane_path6onehop5modelNtB2_10OneHopPath27into_reversed_standard_path
FN:49,_RNvMNtNtNtNtCsdVnVozic4xr_8sciparse5proto14dataplane_path6onehop5modelNtB2_10OneHopPath3new
FN:168,_RNvMs_NtNtNtNtCsdVnVozic4xr_8sciparse5proto14dataplane_path6onehop5modelNtB4_10OneHopPath9from_view
FN:220,_RNvXNtNtNtNtNtCsdVnVozic4xr_8sciparse5proto14dataplane_path6onehop5model5ptestNtB4_10OneHopPathNtNtNtCskZahNybV1yu_8proptest9arbitrary6traits9Arbitrary14arbitrary_with
FN:181,_RNvXs0_NtNtNtNtCsdVnVozic4xr_8sciparse5proto14dataplane_path6onehop5modelNtB5_10OneHopPathNtNtNtBd_4core6encode10WireEncode10wire_valid
FN:177,_RNvXs0_NtNtNtNtCsdVnVozic4xr_8sciparse5proto14dataplane_path6onehop5modelNtB5_10OneHopPathNtNtNtBd_4core6encode10WireEncode13required_size
FN:186,_RNvXs0_NtNtNtNtCsdVnVozic4xr_8sciparse5proto14dataplane_path6onehop5modelNtB5_10OneHopPathNtNtNtBd_4core6encode10WireEncode16encode_unchecked
FN:44,_RNvMNtNtNtNtCsdVnVozic4xr_8sciparse5proto14dataplane_path6onehop5modelNtB2_10OneHopPath14new_from_parts
FNDA:0,_RNCNvXNtNtNtNtNtCsdVnVozic4xr_8sciparse5proto14dataplane_path6onehop5model5ptestNtB6_10OneHopPathNtNtNtCskZahNybV1yu_8proptest9arbitrary6traits9Arbitrary14arbitrary_with0Be_
FNDA:0,_RNvMNtNtNtNtCsdVnVozic4xr_8sciparse5proto14dataplane_path6onehop5modelNtB2_10OneHopPath11try_reverse
FNDA:0,_RNvMNtNtNtNtCsdVnVozic4xr_8sciparse5proto14dataplane_path6onehop5modelNtB2_10OneHopPath14set_second_hop
FNDA:0,_RNvMNtNtNtNtCsdVnVozic4xr_8sciparse5proto14dataplane_path6onehop5modelNtB2_10OneHopPath27into_reversed_standard_path
FNDA:0,_RNvMNtNtNtNtCsdVnVozic4xr_8sciparse5proto14dataplane_path6onehop5modelNtB2_10OneHopPath3new
FNDA:0,_RNvMs_NtNtNtNtCsdVnVozic4xr_8sciparse5proto14dataplane_path6onehop5modelNtB4_10OneHopPath9from_view
FNDA:0,_RNvXNtNtNtNtNtCsdVnVozic4xr_8sciparse5proto14dataplane_path6onehop5model5ptestNtB4_10OneHopPathNtNtNtCskZahNybV1yu_8proptest9arbitrary6traits9Arbitrary14arbitrary_with
FNDA:0,_RNvXs0_NtNtNtNtCsdVnVozic4xr_8sciparse5proto14dataplane_path6onehop5modelNtB5_10OneHopPathNtNtNtBd_4core6encode10WireEncode10wire_valid
FNDA:0,_RNvXs0_NtNtNtNtCsdVnVozic4xr_8sciparse5proto14dataplane_path6onehop5modelNtB5_10OneHopPathNtNtNtBd_4core6encode10WireEncode13required_size
FNDA:0,_RNvXs0_NtNtNtNtCsdVnVozic4xr_8sciparse5proto14dataplane_path6onehop5modelNtB5_10OneHopPathNtNtNtBd_4core6encode10WireEncode16encode_unchecked
FNDA:0,_RNvMNtNtNtNtCsdVnVozic4xr_8sciparse5proto14dataplane_path6onehop5modelNtB2_10OneHopPath14new_from_parts
FNF:11
FNH:0
DA:44,0
DA:45,0
DA:46,0
DA:49,0
DA:50,0
DA:51,0
DA:52,0
DA:53,0
DA:54,0
DA:55,0
DA:56,0
DA:57,0
DA:58,0
DA:59,0
DA:60,0
DA:62,0
DA:63,0
DA:64,0
DA:65,0
DA:66,0
DA:67,0
DA:68,0
DA:69,0
DA:73,0
DA:75,0
DA:76,0
DA:77,0
DA:78,0
DA:79,0
DA:89,0
DA:90,0
DA:91,0
DA:92,0
DA:93,0
DA:94,0
DA:95,0
DA:96,0
DA:98,0
DA:101,0
DA:102,0
DA:103,0
DA:104,0
DA:105,0
DA:106,0
DA:107,0
DA:108,0
DA:109,0
DA:122,0
DA:123,0
DA:125,0
DA:126,0
DA:129,0
DA:130,0
DA:131,0
DA:135,0
DA:137,0
DA:140,0
DA:141,0
DA:142,0
DA:146,0
DA:147,0
DA:153,0
DA:154,0
DA:155,0
DA:156,0
DA:157,0
DA:158,0
DA:160,0
DA:161,0
DA:163,0
DA:164,0
DA:168,0
DA:169,0
DA:170,0
DA:171,0
DA:173,0
DA:174,0
DA:177,0
DA:178,0
DA:179,0
DA:181,0
DA:183,0
DA:184,0
DA:186,0
DA:190,0
DA:191,0
DA:194,0
DA:195,0
DA:198,0
DA:199,0
DA:220,0
DA:223,0
DA:224,0
DA:225,0
DA:226,0
DA:227,0
DA:228,0
DA:229,0
DA:230,0
DA:231,0
DA:232,0
DA:233,0
DA:234,0
DA:235,0
BRF:0
BRH:0
LF:105
LH:0
end_of_record
SF:/home/akelbsch/projects/scion/endhost/public/scion-proto/sciparse/src/proto/dataplane_path/onehop/view.rs
FN:157,_RNCNvMs0_NtNtNtNtCsdVnVozic4xr_8sciparse5proto14dataplane_path6onehop4viewNtB7_14OneHopPathView10expiration0Bf_
FN:59,_RNvMNtNtNtNtCsdVnVozic4xr_8sciparse5proto14dataplane_path6onehop4viewNtB2_14OneHopPathView10hop_fields
FN:39,_RNvMNtNtNtNtCsdVnVozic4xr_8sciparse5proto14dataplane_path6onehop4viewNtB2_14OneHopPathView10info_field
FN:49,_RNvMNtNtNtNtCsdVnVozic4xr_8sciparse5proto14dataplane_path6onehop4viewNtB2_14OneHopPathView14info_field_mut
FN:74,_RNvMNtNtNtNtCsdVnVozic4xr_8sciparse5proto14dataplane_path6onehop4viewNtB2_14OneHopPathView14mut_hop_fields
FN:151,_RNvMs0_NtNtNtNtCsdVnVozic4xr_8sciparse5proto14dataplane_path6onehop4viewNtB5_14OneHopPathView10expiration
FN:131,_RNvMs_NtNtNtNtCsdVnVozic4xr_8sciparse5proto14dataplane_path6onehop4viewNtB4_14OneHopPathView11try_reverse
FN:99,_RNvMs_NtNtNtNtCsdVnVozic4xr_8sciparse5proto14dataplane_path6onehop4viewNtB4_14OneHopPathView14set_second_hop
FN:166,_RNvXs1_NtNtNtNtCsdVnVozic4xr_8sciparse5proto14dataplane_path6onehop4viewNtB5_14OneHopPathViewNtNtCs4eoa8Adtn6U_4core3fmt5Debug3fmt
FN:209,_RNvXs2_NtNtNtNtCsdVnVozic4xr_8sciparse5proto14dataplane_path6onehop4viewNtB5_14OneHopPathViewNtNtNtBd_4core4view4View20from_boxed_unchecked
FN:195,_RNvXs2_NtNtNtNtCsdVnVozic4xr_8sciparse5proto14dataplane_path6onehop4viewNtB5_14OneHopPathViewNtNtNtBd_4core4view4View20from_slice_unchecked
FN:202,_RNvXs2_NtNtNtNtCsdVnVozic4xr_8sciparse5proto14dataplane_path6onehop4viewNtB5_14OneHopPathViewNtNtNtBd_4core4view4View24from_mut_slice_unchecked
FN:181,_RNvXs2_NtNtNtNtCsdVnVozic4xr_8sciparse5proto14dataplane_path6onehop4viewNtB5_14OneHopPathViewNtNtNtBd_4core4view4View8as_bytes
FN:185,_RNvXs2_NtNtNtNtCsdVnVozic4xr_8sciparse5proto14dataplane_path6onehop4viewNtB5_14OneHopPathViewNtNtNtBd_4core4view4View12as_bytes_mut
FN:189,_RNvXs2_NtNtNtNtCsdVnVozic4xr_8sciparse5proto14dataplane_path6onehop4viewNtB5_14OneHopPathViewNtNtNtBd_4core4view4View14as_bytes_boxed
FN:175,_RNvXs2_NtNtNtNtCsdVnVozic4xr_8sciparse5proto14dataplane_path6onehop4viewNtB5_14OneHopPathViewNtNtNtBd_4core4view4View17has_required_size
FNDA:0,_RNCNvMs0_NtNtNtNtCsdVnVozic4xr_8sciparse5proto14dataplane_path6onehop4viewNtB7_14OneHopPathView10expiration0Bf_
FNDA:68,_RNvMNtNtNtNtCsdVnVozic4xr_8sciparse5proto14dataplane_path6onehop4viewNtB2_14OneHopPathView10hop_fields
FNDA:68,_RNvMNtNtNtNtCsdVnVozic4xr_8sciparse5proto14dataplane_path6onehop4viewNtB2_14OneHopPathView10info_field
FNDA:17,_RNvMNtNtNtNtCsdVnVozic4xr_8sciparse5proto14dataplane_path6onehop4viewNtB2_14OneHopPathView14info_field_mut
FNDA:68,_RNvMNtNtNtNtCsdVnVozic4xr_8sciparse5proto14dataplane_path6onehop4viewNtB2_14OneHopPathView14mut_hop_fields
FNDA:0,_RNvMs0_NtNtNtNtCsdVnVozic4xr_8sciparse5proto14dataplane_path6onehop4viewNtB5_14OneHopPathView10expiration
FNDA:0,_RNvMs_NtNtNtNtCsdVnVozic4xr_8sciparse5proto14dataplane_path6onehop4viewNtB4_14OneHopPathView11try_reverse
FNDA:34,_RNvMs_NtNtNtNtCsdVnVozic4xr_8sciparse5proto14dataplane_path6onehop4viewNtB4_14OneHopPathView14set_second_hop
FNDA:0,_RNvXs1_NtNtNtNtCsdVnVozic4xr_8sciparse5proto14dataplane_path6onehop4viewNtB5_14OneHopPathViewNtNtCs4eoa8Adtn6U_4core3fmt5Debug3fmt
FNDA:0,_RNvXs2_NtNtNtNtCsdVnVozic4xr_8sciparse5proto14dataplane_path6onehop4viewNtB5_14OneHopPathViewNtNtNtBd_4core4view4View20from_boxed_unchecked
FNDA:17,_RNvXs2_NtNtNtNtCsdVnVozic4xr_8sciparse5proto14dataplane_path6onehop4viewNtB5_14OneHopPathViewNtNtNtBd_4core4view4View20from_slice_unchecked
FNDA:17,_RNvXs2_NtNtNtNtCsdVnVozic4xr_8sciparse5proto14dataplane_path6onehop4viewNtB5_14OneHopPathViewNtNtNtBd_4core4view4View24from_mut_slice_unchecked
FNDA:34,_RNvXs2_NtNtNtNtCsdVnVozic4xr_8sciparse5proto14dataplane_path6onehop4viewNtB5_14OneHopPathViewNtNtNtBd_4core4view4View8as_bytes
FNDA:0,_RNvXs2_NtNtNtNtCsdVnVozic4xr_8sciparse5proto14dataplane_path6onehop4viewNtB5_14OneHopPathViewNtNtNtBd_4core4view4View12as_bytes_mut
FNDA:0,_RNvXs2_NtNtNtNtCsdVnVozic4xr_8sciparse5proto14dataplane_path6onehop4viewNtB5_14OneHopPathViewNtNtNtBd_4core4view4View14as_bytes_boxed
FNDA:0,_RNvXs2_NtNtNtNtCsdVnVozic4xr_8sciparse5proto14dataplane_path6onehop4viewNtB5_14OneHopPathViewNtNtNtBd_4core4view4View17has_required_size
FNF:16
FNH:8
DA:39,68
DA:41,68
DA:42,68
DA:43,68
DA:45,68
DA:49,17
DA:50,17
DA:51,17
DA:52,17
DA:53,17
DA:54,17
DA:55,17
DA:59,68
DA:61,68
DA:62,68
DA:63,68
DA:64,68
DA:65,68
DA:66,68
DA:67,68
DA:68,68
DA:70,68
DA:74,68
DA:76,68
DA:77,68
DA:78,68
DA:79,68
DA:81,68
DA:82,68
DA:83,68
DA:84,68
DA:86,68
DA:99,34
DA:100,34
DA:101,34
DA:102,34
DA:103,34
DA:104,34
DA:105,34
DA:106,34
DA:107,34
DA:108,17
DA:110,17
DA:113,34
DA:116,34
DA:117,34
DA:118,34
DA:119,34
DA:120,34
DA:121,34
DA:123,34
DA:124,34
DA:125,34
DA:131,0
DA:132,0
DA:133,0
DA:134,0
DA:135,0
DA:136,0
DA:138,0
DA:139,0
DA:141,0
DA:142,0
DA:143,0
DA:145,0
DA:146,0
DA:151,0
DA:152,0
DA:154,0
DA:155,0
DA:156,0
DA:157,0
DA:158,0
DA:159,0
DA:161,0
DA:162,0
DA:166,0
DA:167,0
DA:168,0
DA:169,0
DA:170,0
DA:171,0
DA:175,0
DA:177,0
DA:178,0
DA:179,0
DA:181,34
DA:182,34
DA:183,34
DA:185,0
DA:186,0
DA:187,0
DA:189,0
DA:191,0
DA:192,0
DA:193,0
DA:195,17
DA:197,17
DA:198,17
DA:199,17
DA:200,17
DA:202,17
DA:204,17
DA:205,17
DA:206,17
DA:207,17
DA:209,0
DA:211,0
DA:212,0
DA:213,0
DA:214,0
BRF:0
BRH:0
LF:112
LH:66
end_of_record
SF:/home/akelbsch/projects/scion/endhost/public/scion-proto/sciparse/src/proto/dataplane_path/standard/layout.rs
FN:45,_RNCNvMNtNtNtNtCsdVnVozic4xr_8sciparse5proto14dataplane_path8standard6layoutNtB4_13StdPathLayout10from_slice0Bc_
FN:43,_RNvMNtNtNtNtCsdVnVozic4xr_8sciparse5proto14dataplane_path8standard6layoutNtB2_13StdPathLayout10from_slice
FN:118,_RNvMs2_NtNtNtNtCsdVnVozic4xr_8sciparse5proto14dataplane_path8standard6layoutNtB5_17StdPathMetaLayout11annotations
FN:176,_RNvMs4_NtNtNtNtCsdVnVozic4xr_8sciparse5proto14dataplane_path8standard6layoutNtB5_17StdPathDataLayout15hop_field_count
FN:190,_RNvMs4_NtNtNtNtCsdVnVozic4xr_8sciparse5proto14dataplane_path8standard6layoutNtB5_17StdPathDataLayout15hop_field_range
FN:207,_RNvMs4_NtNtNtNtCsdVnVozic4xr_8sciparse5proto14dataplane_path8standard6layoutNtB5_17StdPathDataLayout16hop_fields_range
FN:168,_RNvMs4_NtNtNtNtCsdVnVozic4xr_8sciparse5proto14dataplane_path8standard6layoutNtB5_17StdPathDataLayout16info_field_count
FN:184,_RNvMs4_NtNtNtNtCsdVnVozic4xr_8sciparse5proto14dataplane_path8standard6layoutNtB5_17StdPathDataLayout16info_field_range
FN:197,_RNvMs4_NtNtNtNtCsdVnVozic4xr_8sciparse5proto14dataplane_path8standard6layoutNtB5_17StdPathDataLayout17info_fields_range
FN:160,_RNvMs4_NtNtNtNtCsdVnVozic4xr_8sciparse5proto14dataplane_path8standard6layoutNtB5_17StdPathDataLayout3new
FN:218,_RNvMs5_NtNtNtNtCsdVnVozic4xr_8sciparse5proto14dataplane_path8standard6layoutNtB5_17StdPathDataLayout11annotations
FN:263,_RNvMs8_NtNtNtNtCsdVnVozic4xr_8sciparse5proto14dataplane_path8standard6layoutNtB5_15InfoFieldLayout11annotations
FN:305,_RNvMsb_NtNtNtNtCsdVnVozic4xr_8sciparse5proto14dataplane_path8standard6layoutNtB5_14HopFieldLayout11annotations
FN:84,_RNvXs0_NtNtNtNtCsdVnVozic4xr_8sciparse5proto14dataplane_path8standard6layoutNtB5_13StdPathLayoutINtNtCs4eoa8Adtn6U_4core7convert7TryFromRShE8try_from
FN:133,_RNvXs3_NtNtNtNtCsdVnVozic4xr_8sciparse5proto14dataplane_path8standard6layoutNtB5_17StdPathMetaLayoutNtNtNtBd_4core6layout6Layout10size_bytes
FN:234,_RNvXs6_NtNtNtNtCsdVnVozic4xr_8sciparse5proto14dataplane_path8standard6layoutNtB5_17StdPathDataLayoutNtNtNtBd_4core6layout6Layout10size_bytes
FN:275,_RNvXs9_NtNtNtNtCsdVnVozic4xr_8sciparse5proto14dataplane_path8standard6layoutNtB5_15InfoFieldLayoutNtNtNtBd_4core6layout6Layout10size_bytes
FN:78,_RNvXs_NtNtNtNtCsdVnVozic4xr_8sciparse5proto14dataplane_path8standard6layoutNtB4_13StdPathLayoutNtNtNtBc_4core6layout6Layout10size_bytes
FN:319,_RNvXsc_NtNtNtNtCsdVnVozic4xr_8sciparse5proto14dataplane_path8standard6layoutNtB5_14HopFieldLayoutNtNtNtBd_4core6layout6Layout10size_bytes
FNDA:0,_RNCNvMNtNtNtNtCsdVnVozic4xr_8sciparse5proto14dataplane_path8standard6layoutNtB4_13StdPathLayout10from_slice0Bc_
FNDA:0,_RNvMNtNtNtNtCsdVnVozic4xr_8sciparse5proto14dataplane_path8standard6layoutNtB2_13StdPathLayout10from_slice
FNDA:0,_RNvMs2_NtNtNtNtCsdVnVozic4xr_8sciparse5proto14dataplane_path8standard6layoutNtB5_17StdPathMetaLayout11annotations
FNDA:1277,_RNvMs4_NtNtNtNtCsdVnVozic4xr_8sciparse5proto14dataplane_path8standard6layoutNtB5_17StdPathDataLayout15hop_field_count
FNDA:5294,_RNvMs4_NtNtNtNtCsdVnVozic4xr_8sciparse5proto14dataplane_path8standard6layoutNtB5_17StdPathDataLayout15hop_field_range
FNDA:349,_RNvMs4_NtNtNtNtCsdVnVozic4xr_8sciparse5proto14dataplane_path8standard6layoutNtB5_17StdPathDataLayout16hop_fields_range
FNDA:6998,_RNvMs4_NtNtNtNtCsdVnVozic4xr_8sciparse5proto14dataplane_path8standard6layoutNtB5_17StdPathDataLayout16info_field_count
FNDA:426,_RNvMs4_NtNtNtNtCsdVnVozic4xr_8sciparse5proto14dataplane_path8standard6layoutNtB5_17StdPathDataLayout16info_field_range
FNDA:6018,_RNvMs4_NtNtNtNtCsdVnVozic4xr_8sciparse5proto14dataplane_path8standard6layoutNtB5_17StdPathDataLayout17info_fields_range
FNDA:6674,_RNvMs4_NtNtNtNtCsdVnVozic4xr_8sciparse5proto14dataplane_path8standard6layoutNtB5_17StdPathDataLayout3new
FNDA:0,_RNvMs5_NtNtNtNtCsdVnVozic4xr_8sciparse5proto14dataplane_path8standard6layoutNtB5_17StdPathDataLayout11annotations
FNDA:0,_RNvMs8_NtNtNtNtCsdVnVozic4xr_8sciparse5proto14dataplane_path8standard6layoutNtB5_15InfoFieldLayout11annotations
FNDA:0,_RNvMsb_NtNtNtNtCsdVnVozic4xr_8sciparse5proto14dataplane_path8standard6layoutNtB5_14HopFieldLayout11annotations
FNDA:0,_RNvXs0_NtNtNtNtCsdVnVozic4xr_8sciparse5proto14dataplane_path8standard6layoutNtB5_13StdPathLayoutINtNtCs4eoa8Adtn6U_4core7convert7TryFromRShE8try_from
FNDA:524,_RNvXs3_NtNtNtNtCsdVnVozic4xr_8sciparse5proto14dataplane_path8standard6layoutNtB5_17StdPathMetaLayoutNtNtNtBd_4core6layout6Layout10size_bytes
FNDA:230,_RNvXs6_NtNtNtNtCsdVnVozic4xr_8sciparse5proto14dataplane_path8standard6layoutNtB5_17StdPathDataLayoutNtNtNtBd_4core6layout6Layout10size_bytes
FNDA:6674,_RNvXs9_NtNtNtNtCsdVnVozic4xr_8sciparse5proto14dataplane_path8standard6layoutNtB5_15InfoFieldLayoutNtNtNtBd_4core6layout6Layout10size_bytes
FNDA:0,_RNvXs_NtNtNtNtCsdVnVozic4xr_8sciparse5proto14dataplane_path8standard6layoutNtB4_13StdPathLayoutNtNtNtBc_4core6layout6Layout10size_bytes
FNDA:5873,_RNvXsc_NtNtNtNtCsdVnVozic4xr_8sciparse5proto14dataplane_path8standard6layoutNtB5_14HopFieldLayoutNtNtNtBd_4core6layout6Layout10size_bytes
FNF:19
FNH:11
DA:43,0
DA:45,0
DA:46,0
DA:47,0
DA:48,0
DA:49,0
DA:50,0
DA:51,0
DA:53,0
DA:54,0
DA:55,0
DA:56,0
DA:59,0
DA:60,0
DA:62,0
DA:63,0
DA:64,0
DA:65,0
DA:66,0
DA:67,0
DA:68,0
DA:70,0
DA:71,0
DA:72,0
DA:73,0
DA:74,0
DA:78,0
DA:79,0
DA:80,0
DA:84,0
DA:85,0
DA:86,0
DA:118,0
DA:119,0
DA:120,0
DA:121,0
DA:122,0
DA:123,0
DA:124,0
DA:125,0
DA:128,0
DA:129,0
DA:133,524
DA:134,524
DA:135,524
DA:160,6674
DA:161,6674
DA:162,6674
DA:163,6674
DA:164,6674
DA:168,6998
DA:169,6998
DA:170,6998
DA:171,6998
DA:172,6998
DA:176,1277
DA:177,1277
DA:178,1277
DA:179,1277
DA:180,1277
DA:184,426
DA:185,426
DA:186,426
DA:190,5294
DA:191,5294
DA:192,5294
DA:193,5294
DA:197,6018
DA:198,6018
DA:199,6018
DA:200,6018
DA:201,6018
DA:202,6018
DA:203,6018
DA:207,349
DA:208,349
DA:209,349
DA:210,349
DA:211,349
DA:212,349
DA:213,349
DA:214,349
DA:218,0
DA:219,0
DA:221,0
DA:222,0
DA:223,0
DA:225,0
DA:226,0
DA:227,0
DA:229,0
DA:230,0
DA:234,230
DA:235,230
DA:236,230
DA:237,230
DA:238,230
DA:263,0
DA:264,0
DA:265,0
DA:266,0
DA:267,0
DA:268,0
DA:271,0
DA:272,0
DA:275,6674
DA:276,6674
DA:277,6674
DA:305,0
DA:306,0
DA:307,0
DA:308,0
DA:309,0
DA:310,0
DA:311,0
DA:314,0
DA:315,0
DA:319,5873
DA:320,5873
DA:321,5873
BRF:0
BRH:0
LF:122
LH:51
end_of_record
SF:/home/akelbsch/projects/scion/endhost/public/scion-proto/sciparse/src/proto/dataplane_path/standard/mac.rs
FN:143,_RINvNtNtNtNtNtCsdVnVozic4xr_8sciparse5proto14dataplane_path8standard3mac4algo17mac_chaining_betaINtNtNtNtCs4eoa8Adtn6U_4core4iter8adapters3map3MapINtNtB1B_10take_while9TakeWhileINtNtNtB1F_5slice4iter4IterNtNtNtBc_5scion7segment13SignedAsEntryENCINvMs6_B3i_NtB3i_7AsEntry11update_macsB3g_E0ENCB3V_s_0EEBc_
FN:143,_RINvNtNtNtNtNtCsdVnVozic4xr_8sciparse5proto14dataplane_path8standard3mac4algo17mac_chaining_betaINtNtNtNtCs4eoa8Adtn6U_4core4iter8adapters3map3MapINtNtB1B_10take_while9TakeWhileINtNtNtB1F_5slice4iter4IterNtNtNtBc_5scion7segment7AsEntryENCINvMs6_B3i_B3g_11update_macsB3g_E0ENCB3O_s_0EEBc_
FN:157,_RNvNtNtNtNtNtCsdVnVozic4xr_8sciparse5proto14dataplane_path8standard3mac4algo13mac_beta_step
FN:91,_RNvNtNtNtNtNtCsdVnVozic4xr_8sciparse5proto14dataplane_path8standard3mac4algo17calculate_hop_mac
FN:52,_RNvXNtNtNtNtCsdVnVozic4xr_8sciparse5proto14dataplane_path8standard3macNtNtB4_4view12HopFieldViewNtB2_15HopMacCalculate13calculate_macBa_
FN:52,_RNvXNtNtNtNtCsdVnVozic4xr_8sciparse5proto14dataplane_path8standard3macNtNtB4_5model8HopFieldNtB2_15HopMacCalculate13calculate_macBa_
FN:52,_RNvXNtNtNtNtCsdVnVozic4xr_8sciparse5proto14dataplane_path8standard3macNtNtNtBa_5scion7segment15SegmentHopFieldNtB2_15HopMacCalculate13calculate_macBa_
FNDA:0,_RINvNtNtNtNtNtCsdVnVozic4xr_8sciparse5proto14dataplane_path8standard3mac4algo17mac_chaining_betaINtNtNtNtCs4eoa8Adtn6U_4core4iter8adapters3map3MapINtNtB1B_10take_while9TakeWhileINtNtNtB1F_5slice4iter4IterNtNtNtBc_5scion7segment13SignedAsEntryENCINvMs6_B3i_NtB3i_7AsEntry11update_macsB3g_E0ENCB3V_s_0EEBc_
FNDA:0,_RINvNtNtNtNtNtCsdVnVozic4xr_8sciparse5proto14dataplane_path8standard3mac4algo17mac_chaining_betaINtNtNtNtCs4eoa8Adtn6U_4core4iter8adapters3map3MapINtNtB1B_10take_while9TakeWhileINtNtNtB1F_5slice4iter4IterNtNtNtBc_5scion7segment7AsEntryENCINvMs6_B3i_B3g_11update_macsB3g_E0ENCB3O_s_0EEBc_
FNDA:17,_RNvNtNtNtNtNtCsdVnVozic4xr_8sciparse5proto14dataplane_path8standard3mac4algo13mac_beta_step
FNDA:34,_RNvNtNtNtNtNtCsdVnVozic4xr_8sciparse5proto14dataplane_path8standard3mac4algo17calculate_hop_mac
FNDA:34,_RNvXNtNtNtNtCsdVnVozic4xr_8sciparse5proto14dataplane_path8standard3macNtNtB4_4view12HopFieldViewNtB2_15HopMacCalculate13calculate_macBa_
FNDA:0,_RNvXNtNtNtNtCsdVnVozic4xr_8sciparse5proto14dataplane_path8standard3macNtNtB4_5model8HopFieldNtB2_15HopMacCalculate13calculate_macBa_
FNDA:0,_RNvXNtNtNtNtCsdVnVozic4xr_8sciparse5proto14dataplane_path8standard3macNtNtNtBa_5scion7segment15SegmentHopFieldNtB2_15HopMacCalculate13calculate_macBa_
FNF:4
FNH:3
DA:52,34
DA:53,34
DA:54,34
DA:55,34
DA:56,34
DA:57,34
DA:59,34
DA:60,34
DA:61,34
DA:62,34
DA:64,34
DA:65,34
DA:66,34
DA:67,34
DA:68,34
DA:69,34
DA:70,34
DA:73,34
DA:74,34
DA:91,34
DA:92,34
DA:93,34
DA:94,34
DA:95,34
DA:96,34
DA:97,34
DA:98,34
DA:115,34
DA:117,34
DA:118,34
DA:120,34
DA:121,34
DA:122,34
DA:125,34
DA:127,34
DA:129,34
DA:131,34
DA:132,34
DA:134,34
DA:135,34
DA:143,0
DA:144,0
DA:146,0
DA:147,0
DA:148,0
DA:150,0
DA:151,0
DA:157,17
DA:158,17
DA:159,17
DA:160,17
BRF:0
BRH:0
LF:51
LH:44
end_of_record
SF:/home/akelbsch/projects/scion/endhost/public/scion-proto/sciparse/src/proto/dataplane_path/standard/model.rs
FN:645,_RNCNCNCNCNvXs0_NtNtNtNtNtCsdVnVozic4xr_8sciparse5proto14dataplane_path8standard5model5ptestNtBf_12StandardPathNtNtNtCskZahNybV1yu_8proptest9arbitrary6traits9Arbitrary14arbitrary_with0000Bn_
FN:637,_RNCNCNCNvXs0_NtNtNtNtNtCsdVnVozic4xr_8sciparse5proto14dataplane_path8standard5model5ptestNtBd_12StandardPathNtNtNtCskZahNybV1yu_8proptest9arbitrary6traits9Arbitrary14arbitrary_with000Bl_
FN:582,_RNCNCNvNtNtNtNtNtCsdVnVozic4xr_8sciparse5proto14dataplane_path8standard5model5ptest14gen_hop_counts00Bf_
FN:586,_RNCNCNvNtNtNtNtNtCsdVnVozic4xr_8sciparse5proto14dataplane_path8standard5model5ptest14gen_hop_counts0s_0Bf_
FN:628,_RNCNCNvXs0_NtNtNtNtNtCsdVnVozic4xr_8sciparse5proto14dataplane_path8standard5model5ptestNtBb_12StandardPathNtNtNtCskZahNybV1yu_8proptest9arbitrary6traits9Arbitrary14arbitrary_with00Bj_
FN:657,_RNCNCNvXs0_NtNtNtNtNtCsdVnVozic4xr_8sciparse5proto14dataplane_path8standard5model5ptestNtBb_12StandardPathNtNtNtCskZahNybV1yu_8proptest9arbitrary6traits9Arbitrary14arbitrary_withs_00Bj_
FN:133,_RNCNvMs0_NtNtNtNtCsdVnVozic4xr_8sciparse5proto14dataplane_path8standard5modelNtB7_12StandardPath13segment_sizes0Bf_
FN:135,_RNCNvMs0_NtNtNtNtCsdVnVozic4xr_8sciparse5proto14dataplane_path8standard5modelNtB7_12StandardPath13segment_sizess0_0Bf_
FN:134,_RNCNvMs0_NtNtNtNtCsdVnVozic4xr_8sciparse5proto14dataplane_path8standard5modelNtB7_12StandardPath13segment_sizess_0Bf_
FN:102,_RNCNvMs0_NtNtNtNtCsdVnVozic4xr_8sciparse5proto14dataplane_path8standard5modelNtB7_12StandardPath15hop_field_count0Bf_
FN:123,_RNCNvMs0_NtNtNtNtCsdVnVozic4xr_8sciparse5proto14dataplane_path8standard5modelNtB7_12StandardPath15iter_hop_fields0Bf_
FN:113,_RNCNvMs0_NtNtNtNtCsdVnVozic4xr_8sciparse5proto14dataplane_path8standard5modelNtB7_12StandardPath15segment_lengths0Bf_
FN:115,_RNCNvMs0_NtNtNtNtCsdVnVozic4xr_8sciparse5proto14dataplane_path8standard5modelNtB7_12StandardPath15segment_lengthss0_0Bf_
FN:114,_RNCNvMs0_NtNtNtNtCsdVnVozic4xr_8sciparse5proto14dataplane_path8standard5modelNtB7_12StandardPath15segment_lengthss_0Bf_
FN:576,_RNCNvNtNtNtNtNtCsdVnVozic4xr_8sciparse5proto14dataplane_path8standard5model5ptest14gen_hop_counts0Bd_
FN:622,_RNCNvXs0_NtNtNtNtNtCsdVnVozic4xr_8sciparse5proto14dataplane_path8standard5model5ptestNtB9_12StandardPathNtNtNtCskZahNybV1yu_8proptest9arbitrary6traits9Arbitrary14arbitrary_with0Bh_
FN:661,_RNCNvXs0_NtNtNtNtNtCsdVnVozic4xr_8sciparse5proto14dataplane_path8standard5model5ptestNtB9_12StandardPathNtNtNtCskZahNybV1yu_8proptest9arbitrary6traits9Arbitrary14arbitrary_withs0_0Bh_
FN:656,_RNCNvXs0_NtNtNtNtNtCsdVnVozic4xr_8sciparse5proto14dataplane_path8standard5model5ptestNtB9_12StandardPathNtNtNtCskZahNybV1yu_8proptest9arbitrary6traits9Arbitrary14arbitrary_withs_0Bh_
FN:750,_RNCNvXs2_NtNtNtNtNtCsdVnVozic4xr_8sciparse5proto14dataplane_path8standard5model5ptestNtB9_7SegmentNtNtNtCskZahNybV1yu_8proptest9arbitrary6traits9Arbitrary14arbitrary_with0Bh_
FN:819,_RNCNvXs3_NtNtNtNtNtCsdVnVozic4xr_8sciparse5proto14dataplane_path8standard5model5ptestNtB9_9InfoFieldNtNtNtCskZahNybV1yu_8proptest9arbitrary6traits9Arbitrary14arbitrary_with0Bh_
FN:858,_RNCNvXs4_NtNtNtNtNtCsdVnVozic4xr_8sciparse5proto14dataplane_path8standard5model5ptestNtB9_8HopFieldNtNtNtCskZahNybV1yu_8proptest9arbitrary6traits9Arbitrary14arbitrary_with0Bh_
FN:49,_RNvMNtNtNtNtCsdVnVozic4xr_8sciparse5proto14dataplane_path8standard5modelNtB2_12StandardPath9new_empty
FN:142,_RNvMs0_NtNtNtNtCsdVnVozic4xr_8sciparse5proto14dataplane_path8standard5modelNtB5_12StandardPath10expiration
FN:171,_RNvMs0_NtNtNtNtCsdVnVozic4xr_8sciparse5proto14dataplane_path8standard5modelNtB5_12StandardPath11try_reverse
FN:132,_RNvMs0_NtNtNtNtCsdVnVozic4xr_8sciparse5proto14dataplane_path8standard5modelNtB5_12StandardPath13segment_sizes
FN:99,_RNvMs0_NtNtNtNtCsdVnVozic4xr_8sciparse5proto14dataplane_path8standard5modelNtB5_12StandardPath15hop_field_count
FN:120,_RNvMs0_NtNtNtNtCsdVnVozic4xr_8sciparse5proto14dataplane_path8standard5modelNtB5_12StandardPath15iter_hop_fields
FN:112,_RNvMs0_NtNtNtNtCsdVnVozic4xr_8sciparse5proto14dataplane_path8standard5modelNtB5_12StandardPath15segment_lengths
FN:107,_RNvMs0_NtNtNtNtCsdVnVozic4xr_8sciparse5proto14dataplane_path8standard5modelNtB5_12StandardPath16info_field_count
FN:127,_RNvMs0_NtNtNtNtCsdVnVozic4xr_8sciparse5proto14dataplane_path8standard5modelNtB5_12StandardPath16iter_info_fields
FN:345,_RNvMs3_NtNtNtNtCsdVnVozic4xr_8sciparse5proto14dataplane_path8standard5modelNtB5_9InfoField9from_view
FN:431,_RNvMs6_NtNtNtNtCsdVnVozic4xr_8sciparse5proto14dataplane_path8standard5modelNtB5_8HopField9from_view
FN:443,_RNvMs7_NtNtNtNtCsdVnVozic4xr_8sciparse5proto14dataplane_path8standard5modelNtB5_8HopField5empty
FN:458,_RNvMs8_NtNtNtNtCsdVnVozic4xr_8sciparse5proto14dataplane_path8standard5modelNtB5_8HopField19with_calculated_mac
FN:90,_RNvMs_NtNtNtNtCsdVnVozic4xr_8sciparse5proto14dataplane_path8standard5modelNtB4_12StandardPath10from_slice
FN:60,_RNvMs_NtNtNtNtCsdVnVozic4xr_8sciparse5proto14dataplane_path8standard5modelNtB4_12StandardPath9from_view
FN:569,_RNvNtNtNtNtNtCsdVnVozic4xr_8sciparse5proto14dataplane_path8standard5model5ptest14gen_hop_counts
FN:612,_RNvXs0_NtNtNtNtNtCsdVnVozic4xr_8sciparse5proto14dataplane_path8standard5model5ptestNtB7_12StandardPathNtNtNtCskZahNybV1yu_8proptest9arbitrary6traits9Arbitrary14arbitrary_with
FN:220,_RNvXs1_NtNtNtNtCsdVnVozic4xr_8sciparse5proto14dataplane_path8standard5modelNtB5_12StandardPathNtNtNtBd_4core6encode10WireEncode10wire_valid
FN:215,_RNvXs1_NtNtNtNtCsdVnVozic4xr_8sciparse5proto14dataplane_path8standard5modelNtB5_12StandardPathNtNtNtBd_4core6encode10WireEncode13required_size
FN:262,_RNvXs1_NtNtNtNtCsdVnVozic4xr_8sciparse5proto14dataplane_path8standard5modelNtB5_12StandardPathNtNtNtBd_4core6encode10WireEncode16encode_unchecked
FN:314,_RNvXs2_NtNtNtNtCsdVnVozic4xr_8sciparse5proto14dataplane_path8standard5modelNtB5_7SegmentNtNtCs4eoa8Adtn6U_4core7default7Default7default
FN:744,_RNvXs2_NtNtNtNtNtCsdVnVozic4xr_8sciparse5proto14dataplane_path8standard5model5ptestNtB7_7SegmentNtNtNtCskZahNybV1yu_8proptest9arbitrary6traits9Arbitrary14arbitrary_with
FN:817,_RNvXs3_NtNtNtNtNtCsdVnVozic4xr_8sciparse5proto14dataplane_path8standard5model5ptestNtB7_9InfoFieldNtNtNtCskZahNybV1yu_8proptest9arbitrary6traits9Arbitrary14arbitrary_with
FN:358,_RNvXs4_NtNtNtNtCsdVnVozic4xr_8sciparse5proto14dataplane_path8standard5modelNtB5_9InfoFieldNtNtNtBd_4core6encode10WireEncode10wire_valid
FN:354,_RNvXs4_NtNtNtNtCsdVnVozic4xr_8sciparse5proto14dataplane_path8standard5modelNtB5_9InfoFieldNtNtNtBd_4core6encode10WireEncode13required_size
FN:363,_RNvXs4_NtNtNtNtCsdVnVozic4xr_8sciparse5proto14dataplane_path8standard5modelNtB5_9InfoFieldNtNtNtBd_4core6encode10WireEncode16encode_unchecked
FN:843,_RNvXs4_NtNtNtNtNtCsdVnVozic4xr_8sciparse5proto14dataplane_path8standard5model5ptestNtB7_8HopFieldNtNtNtCskZahNybV1yu_8proptest9arbitrary6traits9Arbitrary14arbitrary_with
FN:419,_RNvXs5_NtNtNtNtCsdVnVozic4xr_8sciparse5proto14dataplane_path8standard5modelNtB5_8HopFieldNtNtCs4eoa8Adtn6U_4core7default7Default7default
FN:473,_RNvXs9_NtNtNtNtCsdVnVozic4xr_8sciparse5proto14dataplane_path8standard5modelNtB5_8HopFieldNtNtB7_3mac17HopMacInputSource13get_mac_input
FN:556,_RNvXs_NtNtNtNtNtCsdVnVozic4xr_8sciparse5proto14dataplane_path8standard5model5ptestNtB4_20ArbitraryPathContextNtNtCs4eoa8Adtn6U_4core3fmt5Debug3fmt
FN:486,_RNvXsa_NtNtNtNtCsdVnVozic4xr_8sciparse5proto14dataplane_path8standard5modelNtB5_8HopFieldNtNtNtBd_4core6encode10WireEncode10wire_valid
FN:482,_RNvXsa_NtNtNtNtCsdVnVozic4xr_8sciparse5proto14dataplane_path8standard5modelNtB5_8HopFieldNtNtNtBd_4core6encode10WireEncode13required_size
FN:491,_RNvXsa_NtNtNtNtCsdVnVozic4xr_8sciparse5proto14dataplane_path8standard5modelNtB5_8HopFieldNtNtNtBd_4core6encode10WireEncode16encode_unchecked
FN:547,_RNvXNtNtNtNtNtCsdVnVozic4xr_8sciparse5proto14dataplane_path8standard5model5ptestNtB2_20ArbitraryPathContextNtNtCs4eoa8Adtn6U_4core7default7Default7default
FN:731,_RNvXs1_NtNtNtNtNtCsdVnVozic4xr_8sciparse5proto14dataplane_path8standard5model5ptestNtB5_23ArbitrarySegmentContextNtNtCs4eoa8Adtn6U_4core7default7Default7default
FNDA:0,_RNCNCNCNCNvXs0_NtNtNtNtNtCsdVnVozic4xr_8sciparse5proto14dataplane_path8standard5model5ptestNtBf_12StandardPathNtNtNtCskZahNybV1yu_8proptest9arbitrary6traits9Arbitrary14arbitrary_with0000Bn_
FNDA:0,_RNCNCNCNvXs0_NtNtNtNtNtCsdVnVozic4xr_8sciparse5proto14dataplane_path8standard5model5ptestNtBd_12StandardPathNtNtNtCskZahNybV1yu_8proptest9arbitrary6traits9Arbitrary14arbitrary_with000Bl_
FNDA:0,_RNCNCNvNtNtNtNtNtCsdVnVozic4xr_8sciparse5proto14dataplane_path8standard5model5ptest14gen_hop_counts00Bf_
FNDA:0,_RNCNCNvNtNtNtNtNtCsdVnVozic4xr_8sciparse5proto14dataplane_path8standard5model5ptest14gen_hop_counts0s_0Bf_
FNDA:0,_RNCNCNvXs0_NtNtNtNtNtCsdVnVozic4xr_8sciparse5proto14dataplane_path8standard5model5ptestNtBb_12StandardPathNtNtNtCskZahNybV1yu_8proptest9arbitrary6traits9Arbitrary14arbitrary_with00Bj_
FNDA:0,_RNCNCNvXs0_NtNtNtNtNtCsdVnVozic4xr_8sciparse5proto14dataplane_path8standard5model5ptestNtBb_12StandardPathNtNtNtCskZahNybV1yu_8proptest9arbitrary6traits9Arbitrary14arbitrary_withs_00Bj_
FNDA:0,_RNCNvMs0_NtNtNtNtCsdVnVozic4xr_8sciparse5proto14dataplane_path8standard5modelNtB7_12StandardPath13segment_sizes0Bf_
FNDA:0,_RNCNvMs0_NtNtNtNtCsdVnVozic4xr_8sciparse5proto14dataplane_path8standard5modelNtB7_12StandardPath13segment_sizess0_0Bf_
FNDA:0,_RNCNvMs0_NtNtNtNtCsdVnVozic4xr_8sciparse5proto14dataplane_path8standard5modelNtB7_12StandardPath13segment_sizess_0Bf_
FNDA:0,_RNCNvMs0_NtNtNtNtCsdVnVozic4xr_8sciparse5proto14dataplane_path8standard5modelNtB7_12StandardPath15hop_field_count0Bf_
FNDA:0,_RNCNvMs0_NtNtNtNtCsdVnVozic4xr_8sciparse5proto14dataplane_path8standard5modelNtB7_12StandardPath15iter_hop_fields0Bf_
FNDA:0,_RNCNvMs0_NtNtNtNtCsdVnVozic4xr_8sciparse5proto14dataplane_path8standard5modelNtB7_12StandardPath15segment_lengths0Bf_
FNDA:0,_RNCNvMs0_NtNtNtNtCsdVnVozic4xr_8sciparse5proto14dataplane_path8standard5modelNtB7_12StandardPath15segment_lengthss0_0Bf_
FNDA:0,_RNCNvMs0_NtNtNtNtCsdVnVozic4xr_8sciparse5proto14dataplane_path8standard5modelNtB7_12StandardPath15segment_lengthss_0Bf_
FNDA:0,_RNCNvNtNtNtNtNtCsdVnVozic4xr_8sciparse5proto14dataplane_path8standard5model5ptest14gen_hop_counts0Bd_
FNDA:0,_RNCNvXs0_NtNtNtNtNtCsdVnVozic4xr_8sciparse5proto14dataplane_path8standard5model5ptestNtB9_12StandardPathNtNtNtCskZahNybV1yu_8proptest9arbitrary6traits9Arbitrary14arbitrary_with0Bh_
FNDA:0,_RNCNvXs0_NtNtNtNtNtCsdVnVozic4xr_8sciparse5proto14dataplane_path8standard5model5ptestNtB9_12StandardPathNtNtNtCskZahNybV1yu_8proptest9arbitrary6traits9Arbitrary14arbitrary_withs0_0Bh_
FNDA:0,_RNCNvXs0_NtNtNtNtNtCsdVnVozic4xr_8sciparse5proto14dataplane_path8standard5model5ptestNtB9_12StandardPathNtNtNtCskZahNybV1yu_8proptest9arbitrary6traits9Arbitrary14arbitrary_withs_0Bh_
FNDA:0,_RNCNvXs2_NtNtNtNtNtCsdVnVozic4xr_8sciparse5proto14dataplane_path8standard5model5ptestNtB9_7SegmentNtNtNtCskZahNybV1yu_8proptest9arbitrary6traits9Arbitrary14arbitrary_with0Bh_
FNDA:0,_RNCNvXs3_NtNtNtNtNtCsdVnVozic4xr_8sciparse5proto14dataplane_path8standard5model5ptestNtB9_9InfoFieldNtNtNtCskZahNybV1yu_8proptest9arbitrary6traits9Arbitrary14arbitrary_with0Bh_
FNDA:0,_RNCNvXs4_NtNtNtNtNtCsdVnVozic4xr_8sciparse5proto14dataplane_path8standard5model5ptestNtB9_8HopFieldNtNtNtCskZahNybV1yu_8proptest9arbitrary6traits9Arbitrary14arbitrary_with0Bh_
FNDA:0,_RNvMNtNtNtNtCsdVnVozic4xr_8sciparse5proto14dataplane_path8standard5modelNtB2_12StandardPath9new_empty
FNDA:0,_RNvMs0_NtNtNtNtCsdVnVozic4xr_8sciparse5proto14dataplane_path8standard5modelNtB5_12StandardPath10expiration
FNDA:0,_RNvMs0_NtNtNtNtCsdVnVozic4xr_8sciparse5proto14dataplane_path8standard5modelNtB5_12StandardPath11try_reverse
FNDA:0,_RNvMs0_NtNtNtNtCsdVnVozic4xr_8sciparse5proto14dataplane_path8standard5modelNtB5_12StandardPath13segment_sizes
FNDA:0,_RNvMs0_NtNtNtNtCsdVnVozic4xr_8sciparse5proto14dataplane_path8standard5modelNtB5_12StandardPath15hop_field_count
FNDA:0,_RNvMs0_NtNtNtNtCsdVnVozic4xr_8sciparse5proto14dataplane_path8standard5modelNtB5_12StandardPath15iter_hop_fields
FNDA:0,_RNvMs0_NtNtNtNtCsdVnVozic4xr_8sciparse5proto14dataplane_path8standard5modelNtB5_12StandardPath15segment_lengths
FNDA:0,_RNvMs0_NtNtNtNtCsdVnVozic4xr_8sciparse5proto14dataplane_path8standard5modelNtB5_12StandardPath16info_field_count
FNDA:0,_RNvMs0_NtNtNtNtCsdVnVozic4xr_8sciparse5proto14dataplane_path8standard5modelNtB5_12StandardPath16iter_info_fields
FNDA:0,_RNvMs3_NtNtNtNtCsdVnVozic4xr_8sciparse5proto14dataplane_path8standard5modelNtB5_9InfoField9from_view
FNDA:0,_RNvMs6_NtNtNtNtCsdVnVozic4xr_8sciparse5proto14dataplane_path8standard5modelNtB5_8HopField9from_view
FNDA:0,_RNvMs7_NtNtNtNtCsdVnVozic4xr_8sciparse5proto14dataplane_path8standard5modelNtB5_8HopField5empty
FNDA:0,_RNvMs8_NtNtNtNtCsdVnVozic4xr_8sciparse5proto14dataplane_path8standard5modelNtB5_8HopField19with_calculated_mac
FNDA:0,_RNvMs_NtNtNtNtCsdVnVozic4xr_8sciparse5proto14dataplane_path8standard5modelNtB4_12StandardPath10from_slice
FNDA:0,_RNvMs_NtNtNtNtCsdVnVozic4xr_8sciparse5proto14dataplane_path8standard5modelNtB4_12StandardPath9from_view
FNDA:0,_RNvNtNtNtNtNtCsdVnVozic4xr_8sciparse5proto14dataplane_path8standard5model5ptest14gen_hop_counts
FNDA:0,_RNvXs0_NtNtNtNtNtCsdVnVozic4xr_8sciparse5proto14dataplane_path8standard5model5ptestNtB7_12StandardPathNtNtNtCskZahNybV1yu_8proptest9arbitrary6traits9Arbitrary14arbitrary_with
FNDA:0,_RNvXs1_NtNtNtNtCsdVnVozic4xr_8sciparse5proto14dataplane_path8standard5modelNtB5_12StandardPathNtNtNtBd_4core6encode10WireEncode10wire_valid
FNDA:0,_RNvXs1_NtNtNtNtCsdVnVozic4xr_8sciparse5proto14dataplane_path8standard5modelNtB5_12StandardPathNtNtNtBd_4core6encode10WireEncode13required_size
FNDA:0,_RNvXs1_NtNtNtNtCsdVnVozic4xr_8sciparse5proto14dataplane_path8standard5modelNtB5_12StandardPathNtNtNtBd_4core6encode10WireEncode16encode_unchecked
FNDA:0,_RNvXs2_NtNtNtNtCsdVnVozic4xr_8sciparse5proto14dataplane_path8standard5modelNtB5_7SegmentNtNtCs4eoa8Adtn6U_4core7default7Default7default
FNDA:0,_RNvXs2_NtNtNtNtNtCsdVnVozic4xr_8sciparse5proto14dataplane_path8standard5model5ptestNtB7_7SegmentNtNtNtCskZahNybV1yu_8proptest9arbitrary6traits9Arbitrary14arbitrary_with
FNDA:0,_RNvXs3_NtNtNtNtNtCsdVnVozic4xr_8sciparse5proto14dataplane_path8standard5model5ptestNtB7_9InfoFieldNtNtNtCskZahNybV1yu_8proptest9arbitrary6traits9Arbitrary14arbitrary_with
FNDA:0,_RNvXs4_NtNtNtNtCsdVnVozic4xr_8sciparse5proto14dataplane_path8standard5modelNtB5_9InfoFieldNtNtNtBd_4core6encode10WireEncode10wire_valid
FNDA:0,_RNvXs4_NtNtNtNtCsdVnVozic4xr_8sciparse5proto14dataplane_path8standard5modelNtB5_9InfoFieldNtNtNtBd_4core6encode10WireEncode13required_size
FNDA:0,_RNvXs4_NtNtNtNtCsdVnVozic4xr_8sciparse5proto14dataplane_path8standard5modelNtB5_9InfoFieldNtNtNtBd_4core6encode10WireEncode16encode_unchecked
FNDA:0,_RNvXs4_NtNtNtNtNtCsdVnVozic4xr_8sciparse5proto14dataplane_path8standard5model5ptestNtB7_8HopFieldNtNtNtCskZahNybV1yu_8proptest9arbitrary6traits9Arbitrary14arbitrary_with
FNDA:0,_RNvXs5_NtNtNtNtCsdVnVozic4xr_8sciparse5proto14dataplane_path8standard5modelNtB5_8HopFieldNtNtCs4eoa8Adtn6U_4core7default7Default7default
FNDA:0,_RNvXs9_NtNtNtNtCsdVnVozic4xr_8sciparse5proto14dataplane_path8standard5modelNtB5_8HopFieldNtNtB7_3mac17HopMacInputSource13get_mac_input
FNDA:0,_RNvXs_NtNtNtNtNtCsdVnVozic4xr_8sciparse5proto14dataplane_path8standard5model5ptestNtB4_20ArbitraryPathContextNtNtCs4eoa8Adtn6U_4core3fmt5Debug3fmt
FNDA:0,_RNvXsa_NtNtNtNtCsdVnVozic4xr_8sciparse5proto14dataplane_path8standard5modelNtB5_8HopFieldNtNtNtBd_4core6encode10WireEncode10wire_valid
FNDA:0,_RNvXsa_NtNtNtNtCsdVnVozic4xr_8sciparse5proto14dataplane_path8standard5modelNtB5_8HopFieldNtNtNtBd_4core6encode10WireEncode13required_size
FNDA:0,_RNvXsa_NtNtNtNtCsdVnVozic4xr_8sciparse5proto14dataplane_path8standard5modelNtB5_8HopFieldNtNtNtBd_4core6encode10WireEncode16encode_unchecked
FNDA:0,_RNvXNtNtNtNtNtCsdVnVozic4xr_8sciparse5proto14dataplane_path8standard5model5ptestNtB2_20ArbitraryPathContextNtNtCs4eoa8Adtn6U_4core7default7Default7default
FNDA:0,_RNvXs1_NtNtNtNtNtCsdVnVozic4xr_8sciparse5proto14dataplane_path8standard5model5ptestNtB5_23ArbitrarySegmentContextNtNtCs4eoa8Adtn6U_4core7default7Default7default
FNF:56
FNH:0
DA:49,0
DA:50,0
DA:51,0
DA:52,0
DA:53,0
DA:54,0
DA:55,0
DA:60,0
DA:61,0
DA:62,0
DA:63,0
DA:65,0
DA:66,0
DA:68,0
DA:69,0
DA:70,0
DA:71,0
DA:72,0
DA:73,0
DA:74,0
DA:75,0
DA:76,0
DA:77,0
DA:78,0
DA:79,0
DA:81,0
DA:82,0
DA:83,0
DA:84,0
DA:85,0
DA:86,0
DA:90,0
DA:91,0
DA:92,0
DA:93,0
DA:94,0
DA:99,0
DA:100,0
DA:101,0
DA:102,0
DA:103,0
DA:104,0
DA:107,0
DA:108,0
DA:109,0
DA:112,0
DA:113,0
DA:114,0
DA:115,0
DA:116,0
DA:117,0
DA:120,0
DA:121,0
DA:122,0
DA:123,0
DA:124,0
DA:127,0
DA:128,0
DA:129,0
DA:132,0
DA:133,0
DA:134,0
DA:135,0
DA:136,0
DA:137,0
DA:142,0
DA:143,0
DA:144,0
DA:146,0
DA:147,0
DA:148,0
DA:149,0
DA:150,0
DA:153,0
DA:156,0
DA:157,0
DA:158,0
DA:159,0
DA:161,0
DA:164,0
DA:167,0
DA:168,0
DA:171,0
DA:172,0
DA:173,0
DA:174,0
DA:175,0
DA:176,0
DA:177,0
DA:179,0
DA:180,0
DA:181,0
DA:182,0
DA:183,0
DA:185,0
DA:186,0
DA:187,0
DA:188,0
DA:189,0
DA:193,0
DA:194,0
DA:195,0
DA:196,0
DA:199,0
DA:200,0
DA:201,0
DA:204,0
DA:205,0
DA:206,0
DA:207,0
DA:208,0
DA:210,0
DA:211,0
DA:215,0
DA:216,0
DA:217,0
DA:218,0
DA:220,0
DA:221,0
DA:222,0
DA:223,0
DA:227,0
DA:228,0
DA:229,0
DA:231,0
DA:232,0
DA:233,0
DA:235,0
DA:236,0
DA:237,0
DA:239,0
DA:240,0
DA:241,0
DA:243,0
DA:244,0
DA:245,0
DA:246,0
DA:248,0
DA:249,0
DA:250,0
DA:252,0
DA:254,0
DA:255,0
DA:259,0
DA:260,0
DA:262,0
DA:265,0
DA:268,0
DA:269,0
DA:270,0
DA:271,0
DA:272,0
DA:273,0
DA:274,0
DA:277,0
DA:278,0
DA:282,0
DA:283,0
DA:284,0
DA:285,0
DA:286,0
DA:287,0
DA:291,0
DA:292,0
DA:293,0
DA:294,0
DA:295,0
DA:296,0
DA:299,0
DA:300,0
DA:314,0
DA:315,0
DA:316,0
DA:317,0
DA:318,0
DA:319,0
DA:320,0
DA:321,0
DA:322,0
DA:323,0
DA:345,0
DA:346,0
DA:347,0
DA:348,0
DA:349,0
DA:350,0
DA:351,0
DA:354,0
DA:355,0
DA:356,0
DA:358,0
DA:360,0
DA:361,0
DA:363,0
DA:366,0
DA:367,0
DA:368,0
DA:369,0
DA:371,0
DA:372,0
DA:419,0
DA:420,0
DA:421,0
DA:422,0
DA:423,0
DA:424,0
DA:425,0
DA:426,0
DA:427,0
DA:431,0
DA:432,0
DA:433,0
DA:434,0
DA:435,0
DA:436,0
DA:437,0
DA:438,0
DA:439,0
DA:443,0
DA:444,0
DA:445,0
DA:446,0
DA:447,0
DA:448,0
DA:449,0
DA:450,0
DA:451,0
DA:458,0
DA:459,0
DA:460,0
DA:461,0
DA:462,0
DA:463,0
DA:464,0
DA:465,0
DA:466,0
DA:473,0
DA:474,0
DA:475,0
DA:476,0
DA:477,0
DA:478,0
DA:479,0
DA:482,0
DA:483,0
DA:484,0
DA:486,0
DA:488,0
DA:489,0
DA:491,0
DA:494,0
DA:495,0
DA:496,0
DA:497,0
DA:498,0
DA:499,0
DA:501,0
DA:502,0
DA:547,0
DA:548,0
DA:549,0
DA:550,0
DA:551,0
DA:552,0
DA:553,0
DA:556,0
DA:557,0
DA:558,0
DA:559,0
DA:560,0
DA:561,0
DA:563,0
DA:564,0
DA:569,0
DA:570,0
DA:571,0
DA:572,0
DA:573,0
DA:574,0
DA:575,0
DA:576,0
DA:577,0
DA:578,0
DA:582,0
DA:583,0
DA:584,0
DA:586,0
DA:588,0
DA:589,0
DA:590,0
DA:591,0
DA:592,0
DA:593,0
DA:595,0
DA:597,0
DA:598,0
DA:599,0
DA:602,0
DA:603,0
DA:604,0
DA:605,0
DA:606,0
DA:612,0
DA:615,0
DA:616,0
DA:617,0
DA:621,0
DA:622,0
DA:623,0
DA:624,0
DA:625,0
DA:627,0
DA:628,0
DA:629,0
DA:634,0
DA:635,0
DA:636,0
DA:637,0
DA:638,0
DA:639,0
DA:640,0
DA:641,0
DA:642,0
DA:643,0
DA:644,0
DA:645,0
DA:646,0
DA:647,0
DA:648,0
DA:649,0
DA:650,0
DA:652,0
DA:654,0
DA:656,0
DA:657,0
DA:658,0
DA:659,0
DA:660,0
DA:661,0
DA:663,0
DA:664,0
DA:665,0
DA:666,0
DA:667,0
DA:668,0
DA:669,0
DA:670,0
DA:675,0
DA:676,0
DA:677,0
DA:678,0
DA:682,0
DA:684,0
DA:685,0
DA:686,0
DA:687,0
DA:688,0
DA:689,0
DA:691,0
DA:694,0
DA:695,0
DA:696,0
DA:697,0
DA:699,0
DA:700,0
DA:702,0
DA:706,0
DA:709,0
DA:710,0
DA:711,0
DA:712,0
DA:713,0
DA:714,0
DA:715,0
DA:716,0
DA:731,0
DA:732,0
DA:733,0
DA:734,0
DA:735,0
DA:736,0
DA:737,0
DA:744,0
DA:745,0
DA:746,0
DA:747,0
DA:748,0
DA:749,0
DA:750,0
DA:751,0
DA:752,0
DA:756,0
DA:757,0
DA:758,0
DA:759,0
DA:761,0
DA:762,0
DA:763,0
DA:764,0
DA:765,0
DA:767,0
DA:769,0
DA:770,0
DA:771,0
DA:775,0
DA:776,0
DA:777,0
DA:780,0
DA:781,0
DA:782,0
DA:783,0
DA:784,0
DA:785,0
DA:786,0
DA:787,0
DA:789,0
DA:790,0
DA:791,0
DA:792,0
DA:793,0
DA:794,0
DA:795,0
DA:799,0
DA:800,0
DA:801,0
DA:802,0
DA:804,0
DA:805,0
DA:806,0
DA:807,0
DA:808,0
DA:809,0
DA:810,0
DA:817,0
DA:818,0
DA:819,0
DA:820,0
DA:821,0
DA:822,0
DA:823,0
DA:824,0
DA:825,0
DA:826,0
DA:827,0
DA:843,0
DA:844,0
DA:845,0
DA:847,0
DA:850,0
DA:851,0
DA:852,0
DA:853,0
DA:854,0
DA:855,0
DA:856,0
DA:857,0
DA:858,0
DA:859,0
DA:860,0
DA:861,0
DA:862,0
DA:863,0
DA:864,0
DA:865,0
DA:866,0
DA:868,0
DA:869,0
BRF:0
BRH:0
LF:485
LH:0
end_of_record
SF:/home/akelbsch/projects/scion/endhost/public/scion-proto/sciparse/src/proto/dataplane_path/standard/routing.rs
FN:396,_RINvMs0_NtNtNtNtCsdVnVozic4xr_8sciparse5proto14dataplane_path8standard7routingNtNtB8_4view16StandardPathView29advance_egress_with_validatorppEBe_
FN:204,_RINvMs_NtNtNtNtCsdVnVozic4xr_8sciparse5proto14dataplane_path8standard7routingNtNtB7_4view16StandardPathView30advance_ingress_with_validatorppEBd_
FN:376,_RNCNvMs0_NtNtNtNtCsdVnVozic4xr_8sciparse5proto14dataplane_path8standard7routingNtNtB9_4view16StandardPathView14advance_egress0Bf_
FN:169,_RNCNvMs_NtNtNtNtCsdVnVozic4xr_8sciparse5proto14dataplane_path8standard7routingNtNtB8_4view16StandardPathView15advance_ingress0Be_
FN:374,_RNvMs0_NtNtNtNtCsdVnVozic4xr_8sciparse5proto14dataplane_path8standard7routingNtNtB7_4view16StandardPathView14advance_egress
FN:164,_RNvMs_NtNtNtNtCsdVnVozic4xr_8sciparse5proto14dataplane_path8standard7routingNtNtB6_4view16StandardPathView15advance_ingress
FN:110,_RNvXNtNtNtNtCsdVnVozic4xr_8sciparse5proto14dataplane_path8standard7routingNtB2_12NoValidationNtB2_16AdvanceValidator12validate_hop
FN:119,_RNvXNtNtNtNtCsdVnVozic4xr_8sciparse5proto14dataplane_path8standard7routingNtB2_12NoValidationNtB2_16AdvanceValidator23validate_segment_change
FN:526,_RNvXs1_NtNtNtNtCsdVnVozic4xr_8sciparse5proto14dataplane_path8standard7routingNtB5_15HopMacValidatorNtB5_16AdvanceValidator12validate_hop
FN:552,_RNvXs1_NtNtNtNtCsdVnVozic4xr_8sciparse5proto14dataplane_path8standard7routingNtB5_15HopMacValidatorNtB5_16AdvanceValidator23validate_segment_change
FNDA:0,_RINvMs0_NtNtNtNtCsdVnVozic4xr_8sciparse5proto14dataplane_path8standard7routingNtNtB8_4view16StandardPathView29advance_egress_with_validatorppEBe_
FNDA:0,_RINvMs_NtNtNtNtCsdVnVozic4xr_8sciparse5proto14dataplane_path8standard7routingNtNtB7_4view16StandardPathView30advance_ingress_with_validatorppEBd_
FNDA:0,_RNCNvMs0_NtNtNtNtCsdVnVozic4xr_8sciparse5proto14dataplane_path8standard7routingNtNtB9_4view16StandardPathView14advance_egress0Bf_
FNDA:0,_RNCNvMs_NtNtNtNtCsdVnVozic4xr_8sciparse5proto14dataplane_path8standard7routingNtNtB8_4view16StandardPathView15advance_ingress0Be_
FNDA:0,_RNvMs0_NtNtNtNtCsdVnVozic4xr_8sciparse5proto14dataplane_path8standard7routingNtNtB7_4view16StandardPathView14advance_egress
FNDA:0,_RNvMs_NtNtNtNtCsdVnVozic4xr_8sciparse5proto14dataplane_path8standard7routingNtNtB6_4view16StandardPathView15advance_ingress
FNDA:0,_RNvXNtNtNtNtCsdVnVozic4xr_8sciparse5proto14dataplane_path8standard7routingNtB2_12NoValidationNtB2_16AdvanceValidator12validate_hop
FNDA:0,_RNvXNtNtNtNtCsdVnVozic4xr_8sciparse5proto14dataplane_path8standard7routingNtB2_12NoValidationNtB2_16AdvanceValidator23validate_segment_change
FNDA:0,_RNvXs1_NtNtNtNtCsdVnVozic4xr_8sciparse5proto14dataplane_path8standard7routingNtB5_15HopMacValidatorNtB5_16AdvanceValidator12validate_hop
FNDA:0,_RNvXs1_NtNtNtNtCsdVnVozic4xr_8sciparse5proto14dataplane_path8standard7routingNtB5_15HopMacValidatorNtB5_16AdvanceValidator23validate_segment_change
FNF:10
FNH:0
DA:110,0
DA:111,0
DA:112,0
DA:113,0
DA:114,0
DA:115,0
DA:116,0
DA:119,0
DA:120,0
DA:121,0
DA:122,0
DA:123,0
DA:124,0
DA:125,0
DA:126,0
DA:127,0
DA:164,0
DA:165,0
DA:166,0
DA:167,0
DA:168,0
DA:169,0
DA:170,0
DA:171,0
DA:178,0
DA:179,0
DA:204,0
DA:205,0
DA:206,0
DA:207,0
DA:208,0
DA:209,0
DA:210,0
DA:211,0
DA:214,0
DA:215,0
DA:216,0
DA:218,0
DA:219,0
DA:220,0
DA:222,0
DA:223,0
DA:224,0
DA:225,0
DA:226,0
DA:227,0
DA:228,0
DA:230,0
DA:234,0
DA:235,0
DA:236,0
DA:238,0
DA:239,0
DA:240,0
DA:242,0
DA:244,0
DA:249,0
DA:250,0
DA:251,0
DA:252,0
DA:253,0
DA:254,0
DA:257,0
DA:258,0
DA:259,0
DA:262,0
DA:263,0
DA:264,0
DA:266,0
DA:268,0
DA:269,0
DA:270,0
DA:271,0
DA:273,0
DA:274,0
DA:276,0
DA:279,0
DA:280,0
DA:281,0
DA:282,0
DA:283,0
DA:287,0
DA:288,0
DA:289,0
DA:290,0
DA:291,0
DA:292,0
DA:293,0
DA:297,0
DA:298,0
DA:299,0
DA:300,0
DA:301,0
DA:302,0
DA:305,0
DA:306,0
DA:307,0
DA:308,0
DA:309,0
DA:310,0
DA:312,0
DA:314,0
DA:317,0
DA:318,0
DA:319,0
DA:322,0
DA:323,0
DA:328,0
DA:329,0
DA:330,0
DA:331,0
DA:332,0
DA:335,0
DA:342,0
DA:343,0
DA:344,0
DA:345,0
DA:346,0
DA:347,0
DA:348,0
DA:349,0
DA:351,0
DA:352,0
DA:374,0
DA:375,0
DA:376,0
DA:377,0
DA:378,0
DA:385,0
DA:386,0
DA:396,0
DA:397,0
DA:398,0
DA:399,0
DA:400,0
DA:401,0
DA:402,0
DA:405,0
DA:406,0
DA:407,0
DA:409,0
DA:410,0
DA:411,0
DA:413,0
DA:414,0
DA:415,0
DA:416,0
DA:417,0
DA:418,0
DA:419,0
DA:421,0
DA:425,0
DA:426,0
DA:427,0
DA:429,0
DA:430,0
DA:431,0
DA:433,0
DA:437,0
DA:439,0
DA:440,0
DA:442,0
DA:445,0
DA:446,0
DA:447,0
DA:448,0
DA:449,0
DA:451,0
DA:452,0
DA:453,0
DA:454,0
DA:455,0
DA:456,0
DA:457,0
DA:461,0
DA:462,0
DA:463,0
DA:466,0
DA:467,0
DA:468,0
DA:469,0
DA:470,0
DA:471,0
DA:474,0
DA:475,0
DA:476,0
DA:477,0
DA:479,0
DA:480,0
DA:481,0
DA:482,0
DA:484,0
DA:485,0
DA:488,0
DA:489,0
DA:490,0
DA:491,0
DA:492,0
DA:493,0
DA:494,0
DA:495,0
DA:496,0
DA:498,0
DA:499,0
DA:500,0
DA:501,0
DA:502,0
DA:526,0
DA:527,0
DA:528,0
DA:529,0
DA:530,0
DA:531,0
DA:532,0
DA:533,0
DA:534,0
DA:535,0
DA:536,0
DA:537,0
DA:538,0
DA:541,0
DA:542,0
DA:543,0
DA:544,0
DA:545,0
DA:547,0
DA:549,0
DA:552,0
DA:553,0
DA:554,0
DA:555,0
DA:556,0
DA:557,0
DA:558,0
DA:561,0
DA:562,0
BRF:0
BRH:0
LF:238
LH:0
end_of_record
SF:/home/akelbsch/projects/scion/endhost/public/scion-proto/sciparse/src/proto/dataplane_path/standard/types.rs
FN:39,_RNvMNtNtNtNtCsdVnVozic4xr_8sciparse5proto14dataplane_path8standard5typesNtB2_11HopFieldMac8as_bytes
FN:147,_RNvNtNtNtNtCsdVnVozic4xr_8sciparse5proto14dataplane_path8standard5types20exp_time_to_duration
FN:162,_RNvXNtNtNtNtNtCsdVnVozic4xr_8sciparse5proto14dataplane_path8standard5types5ptestNtB4_14InfoFieldFlagsNtNtNtCskZahNybV1yu_8proptest9arbitrary6traits9Arbitrary14arbitrary_with
FN:56,_RNvXs1_NtNtNtNtCsdVnVozic4xr_8sciparse5proto14dataplane_path8standard5typesAhj6_INtNtCs4eoa8Adtn6U_4core7convert4FromNtB5_11HopFieldMacE4from
FN:61,_RNvXs2_NtNtNtNtCsdVnVozic4xr_8sciparse5proto14dataplane_path8standard5typesNtB5_11HopFieldMacNtNtCs4eoa8Adtn6U_4core3fmt5Debug3fmt
FN:46,_RNvXs_NtNtNtNtCsdVnVozic4xr_8sciparse5proto14dataplane_path8standard5typesNtB4_11HopFieldMacNtNtNtCs4eoa8Adtn6U_4core3ops5deref5Deref5deref
FN:173,_RNvXs_NtNtNtNtNtCsdVnVozic4xr_8sciparse5proto14dataplane_path8standard5types5ptestNtB6_13HopFieldFlagsNtNtNtCskZahNybV1yu_8proptest9arbitrary6traits9Arbitrary14arbitrary_with
FN:27,_RNvMNtNtNtNtCsdVnVozic4xr_8sciparse5proto14dataplane_path8standard5typesNtB2_11HopFieldMac3new
FN:34,_RNvMNtNtNtNtCsdVnVozic4xr_8sciparse5proto14dataplane_path8standard5typesNtB2_11HopFieldMac4zero
FN:108,_RNvMs3_NtNtNtNtCsdVnVozic4xr_8sciparse5proto14dataplane_path8standard5typesNtB5_13HopFieldFlags24cons_egress_router_alert
FN:103,_RNvMs3_NtNtNtNtCsdVnVozic4xr_8sciparse5proto14dataplane_path8standard5typesNtB5_13HopFieldFlags25cons_ingress_router_alert
FN:128,_RNvMs3_NtNtNtNtCsdVnVozic4xr_8sciparse5proto14dataplane_path8standard5typesNtB5_13HopFieldFlags30normalized_egress_router_alert
FN:116,_RNvMs3_NtNtNtNtCsdVnVozic4xr_8sciparse5proto14dataplane_path8standard5typesNtB5_13HopFieldFlags31normalized_ingress_router_alert
FN:51,_RNvXs0_NtNtNtNtCsdVnVozic4xr_8sciparse5proto14dataplane_path8standard5typesNtB5_11HopFieldMacINtNtCs4eoa8Adtn6U_4core7convert4FromAhj6_E4from
FNDA:0,_RNvMNtNtNtNtCsdVnVozic4xr_8sciparse5proto14dataplane_path8standard5typesNtB2_11HopFieldMac8as_bytes
FNDA:0,_RNvNtNtNtNtCsdVnVozic4xr_8sciparse5proto14dataplane_path8standard5types20exp_time_to_duration
FNDA:0,_RNvXNtNtNtNtNtCsdVnVozic4xr_8sciparse5proto14dataplane_path8standard5types5ptestNtB4_14InfoFieldFlagsNtNtNtCskZahNybV1yu_8proptest9arbitrary6traits9Arbitrary14arbitrary_with
FNDA:17,_RNvXs1_NtNtNtNtCsdVnVozic4xr_8sciparse5proto14dataplane_path8standard5typesAhj6_INtNtCs4eoa8Adtn6U_4core7convert4FromNtB5_11HopFieldMacE4from
FNDA:0,_RNvXs2_NtNtNtNtCsdVnVozic4xr_8sciparse5proto14dataplane_path8standard5typesNtB5_11HopFieldMacNtNtCs4eoa8Adtn6U_4core3fmt5Debug3fmt
FNDA:0,_RNvXs_NtNtNtNtCsdVnVozic4xr_8sciparse5proto14dataplane_path8standard5typesNtB4_11HopFieldMacNtNtNtCs4eoa8Adtn6U_4core3ops5deref5Deref5deref
FNDA:0,_RNvXs_NtNtNtNtNtCsdVnVozic4xr_8sciparse5proto14dataplane_path8standard5types5ptestNtB6_13HopFieldFlagsNtNtNtCskZahNybV1yu_8proptest9arbitrary6traits9Arbitrary14arbitrary_with
FNDA:0,_RNvMNtNtNtNtCsdVnVozic4xr_8sciparse5proto14dataplane_path8standard5typesNtB2_11HopFieldMac3new
FNDA:0,_RNvMNtNtNtNtCsdVnVozic4xr_8sciparse5proto14dataplane_path8standard5typesNtB2_11HopFieldMac4zero
FNDA:0,_RNvMs3_NtNtNtNtCsdVnVozic4xr_8sciparse5proto14dataplane_path8standard5typesNtB5_13HopFieldFlags24cons_egress_router_alert
FNDA:0,_RNvMs3_NtNtNtNtCsdVnVozic4xr_8sciparse5proto14dataplane_path8standard5typesNtB5_13HopFieldFlags25cons_ingress_router_alert
FNDA:0,_RNvMs3_NtNtNtNtCsdVnVozic4xr_8sciparse5proto14dataplane_path8standard5typesNtB5_13HopFieldFlags30normalized_egress_router_alert
FNDA:0,_RNvMs3_NtNtNtNtCsdVnVozic4xr_8sciparse5proto14dataplane_path8standard5typesNtB5_13HopFieldFlags31normalized_ingress_router_alert
FNDA:0,_RNvXs0_NtNtNtNtCsdVnVozic4xr_8sciparse5proto14dataplane_path8standard5typesNtB5_11HopFieldMacINtNtCs4eoa8Adtn6U_4core7convert4FromAhj6_E4from
FNF:14
FNH:1
DA:27,0
DA:28,0
DA:29,0
DA:34,0
DA:35,0
DA:36,0
DA:39,0
DA:40,0
DA:41,0
DA:46,0
DA:47,0
DA:48,0
DA:51,0
DA:52,0
DA:53,0
DA:56,17
DA:57,17
DA:58,17
DA:61,0
DA:62,0
DA:63,0
DA:64,0
DA:65,0
DA:67,0
DA:103,0
DA:104,0
DA:105,0
DA:108,0
DA:109,0
DA:110,0
DA:116,0
DA:117,0
DA:118,0
DA:120,0
DA:122,0
DA:128,0
DA:129,0
DA:130,0
DA:132,0
DA:134,0
DA:147,0
DA:148,0
DA:149,0
DA:162,0
DA:163,0
DA:164,0
DA:165,0
DA:166,0
DA:173,0
DA:174,0
DA:175,0
DA:176,0
DA:177,0
BRF:0
BRH:0
LF:53
LH:3
end_of_record
SF:/home/akelbsch/projects/scion/endhost/public/scion-proto/sciparse/src/proto/dataplane_path/standard/view.rs
FN:449,_RNCNvMs3_NtNtNtNtCsdVnVozic4xr_8sciparse5proto14dataplane_path8standard4viewNtB7_16StandardPathView10expiration0Bf_
FN:72,_RNvMNtNtNtNtCsdVnVozic4xr_8sciparse5proto14dataplane_path8standard4viewNtB2_16StandardPathView15hop_field_count
FN:66,_RNvMNtNtNtNtCsdVnVozic4xr_8sciparse5proto14dataplane_path8standard4viewNtB2_16StandardPathView16info_field_count
FN:115,_RNvMs0_NtNtNtNtCsdVnVozic4xr_8sciparse5proto14dataplane_path8standard4viewNtB5_16StandardPathView23checked_hop_field_range
FN:98,_RNvMs0_NtNtNtNtCsdVnVozic4xr_8sciparse5proto14dataplane_path8standard4viewNtB5_16StandardPathView24checked_info_field_range
FN:204,_RNvMs1_NtNtNtNtCsdVnVozic4xr_8sciparse5proto14dataplane_path8standard4viewNtB5_16StandardPathView10hop_fields
FN:141,_RNvMs1_NtNtNtNtCsdVnVozic4xr_8sciparse5proto14dataplane_path8standard4viewNtB5_16StandardPathView10info_field
FN:179,_RNvMs1_NtNtNtNtCsdVnVozic4xr_8sciparse5proto14dataplane_path8standard4viewNtB5_16StandardPathView11info_fields
FN:157,_RNvMs1_NtNtNtNtCsdVnVozic4xr_8sciparse5proto14dataplane_path8standard4viewNtB5_16StandardPathView14curr_hop_field
FN:134,_RNvMs1_NtNtNtNtCsdVnVozic4xr_8sciparse5proto14dataplane_path8standard4viewNtB5_16StandardPathView15curr_info_field
FN:164,_RNvMs1_NtNtNtNtCsdVnVozic4xr_8sciparse5proto14dataplane_path8standard4viewNtB5_16StandardPathView9hop_field
FN:328,_RNvMs2_NtNtNtNtCsdVnVozic4xr_8sciparse5proto14dataplane_path8standard4viewNtB5_16StandardPathView11try_reverse
FN:262,_RNvMs2_NtNtNtNtCsdVnVozic4xr_8sciparse5proto14dataplane_path8standard4viewNtB5_16StandardPathView13hop_field_mut
FN:303,_RNvMs2_NtNtNtNtCsdVnVozic4xr_8sciparse5proto14dataplane_path8standard4viewNtB5_16StandardPathView14hop_fields_mut
FN:238,_RNvMs2_NtNtNtNtCsdVnVozic4xr_8sciparse5proto14dataplane_path8standard4viewNtB5_16StandardPathView14info_field_mut
FN:278,_RNvMs2_NtNtNtNtCsdVnVozic4xr_8sciparse5proto14dataplane_path8standard4viewNtB5_16StandardPathView15info_fields_mut
FN:437,_RNvMs3_NtNtNtNtCsdVnVozic4xr_8sciparse5proto14dataplane_path8standard4viewNtB5_16StandardPathView10expiration
FN:475,_RNvMs3_NtNtNtNtCsdVnVozic4xr_8sciparse5proto14dataplane_path8standard4viewNtB5_16StandardPathView23calculate_segment_index
FN:429,_RNvMs3_NtNtNtNtCsdVnVozic4xr_8sciparse5proto14dataplane_path8standard4viewNtB5_16StandardPathView8segments
FN:523,_RNvMs5_NtNtNtNtCsdVnVozic4xr_8sciparse5proto14dataplane_path8standard4viewNtB5_15SegmentIterator3new
FN:549,_RNvMs5_NtNtNtNtCsdVnVozic4xr_8sciparse5proto14dataplane_path8standard4viewNtB5_15SegmentIterator8is_empty
FN:645,_RNvMs8_NtNtNtNtCsdVnVozic4xr_8sciparse5proto14dataplane_path8standard4viewNtB5_13InfoFieldView5flags
FN:659,_RNvMs8_NtNtNtNtCsdVnVozic4xr_8sciparse5proto14dataplane_path8standard4viewNtB5_13InfoFieldView9timestamp
FN:668,_RNvMs9_NtNtNtNtCsdVnVozic4xr_8sciparse5proto14dataplane_path8standard4viewNtB5_13InfoFieldView9set_flags
FN:792,_RNvMsc_NtNtNtNtCsdVnVozic4xr_8sciparse5proto14dataplane_path8standard4viewNtB5_12HopFieldView16egress_interface
FN:779,_RNvMsc_NtNtNtNtCsdVnVozic4xr_8sciparse5proto14dataplane_path8standard4viewNtB5_12HopFieldView17ingress_interface
FN:762,_RNvMsc_NtNtNtNtCsdVnVozic4xr_8sciparse5proto14dataplane_path8standard4viewNtB5_12HopFieldView3mac
FN:749,_RNvMsc_NtNtNtNtCsdVnVozic4xr_8sciparse5proto14dataplane_path8standard4viewNtB5_12HopFieldView5flags
FN:816,_RNvMsd_NtNtNtNtCsdVnVozic4xr_8sciparse5proto14dataplane_path8standard4viewNtB5_12HopFieldView7set_mac
FN:804,_RNvMsd_NtNtNtNtCsdVnVozic4xr_8sciparse5proto14dataplane_path8standard4viewNtB5_12HopFieldView9set_flags
FN:497,_RNvXs4_NtNtNtNtCsdVnVozic4xr_8sciparse5proto14dataplane_path8standard4viewNtB5_16StandardPathViewNtNtCs4eoa8Adtn6U_4core3fmt5Debug3fmt
FN:566,_RNvXs6_NtNtNtNtCsdVnVozic4xr_8sciparse5proto14dataplane_path8standard4viewNtB5_15SegmentIteratorNtNtNtNtCs4eoa8Adtn6U_4core4iter6traits8iterator8Iterator4next
FN:601,_RNvXs7_NtNtNtNtCsdVnVozic4xr_8sciparse5proto14dataplane_path8standard4viewNtB5_13InfoFieldViewNtNtNtBd_4core4view4View20from_slice_unchecked
FN:609,_RNvXs7_NtNtNtNtCsdVnVozic4xr_8sciparse5proto14dataplane_path8standard4viewNtB5_13InfoFieldViewNtNtNtBd_4core4view4View24from_mut_slice_unchecked
FN:637,_RNvXs7_NtNtNtNtCsdVnVozic4xr_8sciparse5proto14dataplane_path8standard4viewNtB5_13InfoFieldViewNtNtNtBd_4core4view4View8as_bytes
FN:678,_RNvXsa_NtNtNtNtCsdVnVozic4xr_8sciparse5proto14dataplane_path8standard4viewNtB5_13InfoFieldViewNtNtCs4eoa8Adtn6U_4core3fmt5Debug3fmt
FN:729,_RNvXsb_NtNtNtNtCsdVnVozic4xr_8sciparse5proto14dataplane_path8standard4viewNtB5_12HopFieldViewNtNtNtBd_4core4view4View12as_bytes_mut
FN:706,_RNvXsb_NtNtNtNtCsdVnVozic4xr_8sciparse5proto14dataplane_path8standard4viewNtB5_12HopFieldViewNtNtNtBd_4core4view4View20from_slice_unchecked
FN:713,_RNvXsb_NtNtNtNtCsdVnVozic4xr_8sciparse5proto14dataplane_path8standard4viewNtB5_12HopFieldViewNtNtNtBd_4core4view4View24from_mut_slice_unchecked
FN:741,_RNvXsb_NtNtNtNtCsdVnVozic4xr_8sciparse5proto14dataplane_path8standard4viewNtB5_12HopFieldViewNtNtNtBd_4core4view4View8as_bytes
FN:826,_RNvXse_NtNtNtNtCsdVnVozic4xr_8sciparse5proto14dataplane_path8standard4viewNtB5_12HopFieldViewNtNtCs4eoa8Adtn6U_4core3fmt5Debug3fmt
FN:840,_RNvXsf_NtNtNtNtCsdVnVozic4xr_8sciparse5proto14dataplane_path8standard4viewNtB5_12HopFieldViewNtNtB7_3mac17HopMacInputSource13get_mac_input
FN:255,_RNvMs2_NtNtNtNtCsdVnVozic4xr_8sciparse5proto14dataplane_path8standard4viewNtB5_16StandardPathView18curr_hop_field_mut
FN:231,_RNvMs2_NtNtNtNtCsdVnVozic4xr_8sciparse5proto14dataplane_path8standard4viewNtB5_16StandardPathView19curr_info_field_mut
FN:554,_RNvMs5_NtNtNtNtCsdVnVozic4xr_8sciparse5proto14dataplane_path8standard4viewNtB5_15SegmentIterator13segment_count
FN:559,_RNvMs5_NtNtNtNtCsdVnVozic4xr_8sciparse5proto14dataplane_path8standard4viewNtB5_15SegmentIterator15hop_field_count
FN:625,_RNvXs7_NtNtNtNtCsdVnVozic4xr_8sciparse5proto14dataplane_path8standard4viewNtB5_13InfoFieldViewNtNtNtBd_4core4view4View12as_bytes_mut
FN:630,_RNvXs7_NtNtNtNtCsdVnVozic4xr_8sciparse5proto14dataplane_path8standard4viewNtB5_13InfoFieldViewNtNtNtBd_4core4view4View14as_bytes_boxed
FN:588,_RNvXs7_NtNtNtNtCsdVnVozic4xr_8sciparse5proto14dataplane_path8standard4viewNtB5_13InfoFieldViewNtNtNtBd_4core4view4View17has_required_size
FN:617,_RNvXs7_NtNtNtNtCsdVnVozic4xr_8sciparse5proto14dataplane_path8standard4viewNtB5_13InfoFieldViewNtNtNtBd_4core4view4View20from_boxed_unchecked
FN:734,_RNvXsb_NtNtNtNtCsdVnVozic4xr_8sciparse5proto14dataplane_path8standard4viewNtB5_12HopFieldViewNtNtNtBd_4core4view4View14as_bytes_boxed
FN:693,_RNvXsb_NtNtNtNtCsdVnVozic4xr_8sciparse5proto14dataplane_path8standard4viewNtB5_12HopFieldViewNtNtNtBd_4core4view4View17has_required_size
FN:721,_RNvXsb_NtNtNtNtCsdVnVozic4xr_8sciparse5proto14dataplane_path8standard4viewNtB5_12HopFieldViewNtNtNtBd_4core4view4View20from_boxed_unchecked
FNDA:0,_RNCNvMs3_NtNtNtNtCsdVnVozic4xr_8sciparse5proto14dataplane_path8standard4viewNtB7_16StandardPathView10expiration0Bf_
FNDA:8583,_RNvMNtNtNtNtCsdVnVozic4xr_8sciparse5proto14dataplane_path8standard4viewNtB2_16StandardPathView15hop_field_count
FNDA:1375,_RNvMNtNtNtNtCsdVnVozic4xr_8sciparse5proto14dataplane_path8standard4viewNtB2_16StandardPathView16info_field_count
FNDA:6714,_RNvMs0_NtNtNtNtCsdVnVozic4xr_8sciparse5proto14dataplane_path8standard4viewNtB5_16StandardPathView23checked_hop_field_range
FNDA:740,_RNvMs0_NtNtNtNtCsdVnVozic4xr_8sciparse5proto14dataplane_path8standard4viewNtB5_16StandardPathView24checked_info_field_range
FNDA:274,_RNvMs1_NtNtNtNtCsdVnVozic4xr_8sciparse5proto14dataplane_path8standard4viewNtB5_16StandardPathView10hop_fields
FNDA:520,_RNvMs1_NtNtNtNtCsdVnVozic4xr_8sciparse5proto14dataplane_path8standard4viewNtB5_16StandardPathView10info_field
FNDA:300,_RNvMs1_NtNtNtNtCsdVnVozic4xr_8sciparse5proto14dataplane_path8standard4viewNtB5_16StandardPathView11info_fields
FNDA:150,_RNvMs1_NtNtNtNtCsdVnVozic4xr_8sciparse5proto14dataplane_path8standard4viewNtB5_16StandardPathView14curr_hop_field
FNDA:150,_RNvMs1_NtNtNtNtCsdVnVozic4xr_8sciparse5proto14dataplane_path8standard4viewNtB5_16StandardPathView15curr_info_field
FNDA:2388,_RNvMs1_NtNtNtNtCsdVnVozic4xr_8sciparse5proto14dataplane_path8standard4viewNtB5_16StandardPathView9hop_field
FNDA:0,_RNvMs2_NtNtNtNtCsdVnVozic4xr_8sciparse5proto14dataplane_path8standard4viewNtB5_16StandardPathView11try_reverse
FNDA:2088,_RNvMs2_NtNtNtNtCsdVnVozic4xr_8sciparse5proto14dataplane_path8standard4viewNtB5_16StandardPathView13hop_field_mut
FNDA:75,_RNvMs2_NtNtNtNtCsdVnVozic4xr_8sciparse5proto14dataplane_path8standard4viewNtB5_16StandardPathView14hop_fields_mut
FNDA:220,_RNvMs2_NtNtNtNtCsdVnVozic4xr_8sciparse5proto14dataplane_path8standard4viewNtB5_16StandardPathView14info_field_mut
FNDA:75,_RNvMs2_NtNtNtNtCsdVnVozic4xr_8sciparse5proto14dataplane_path8standard4viewNtB5_16StandardPathView15info_fields_mut
FNDA:0,_RNvMs3_NtNtNtNtCsdVnVozic4xr_8sciparse5proto14dataplane_path8standard4viewNtB5_16StandardPathView10expiration
FNDA:0,_RNvMs3_NtNtNtNtCsdVnVozic4xr_8sciparse5proto14dataplane_path8standard4viewNtB5_16StandardPathView23calculate_segment_index
FNDA:0,_RNvMs3_NtNtNtNtCsdVnVozic4xr_8sciparse5proto14dataplane_path8standard4viewNtB5_16StandardPathView8segments
FNDA:0,_RNvMs5_NtNtNtNtCsdVnVozic4xr_8sciparse5proto14dataplane_path8standard4viewNtB5_15SegmentIterator3new
FNDA:0,_RNvMs5_NtNtNtNtCsdVnVozic4xr_8sciparse5proto14dataplane_path8standard4viewNtB5_15SegmentIterator8is_empty
FNDA:5260,_RNvMs8_NtNtNtNtCsdVnVozic4xr_8sciparse5proto14dataplane_path8standard4viewNtB5_13InfoFieldView5flags
FNDA:982,_RNvMs8_NtNtNtNtCsdVnVozic4xr_8sciparse5proto14dataplane_path8standard4viewNtB5_13InfoFieldView9timestamp
FNDA:237,_RNvMs9_NtNtNtNtCsdVnVozic4xr_8sciparse5proto14dataplane_path8standard4viewNtB5_13InfoFieldView9set_flags
FNDA:2156,_RNvMsc_NtNtNtNtCsdVnVozic4xr_8sciparse5proto14dataplane_path8standard4viewNtB5_12HopFieldView16egress_interface
FNDA:2156,_RNvMsc_NtNtNtNtCsdVnVozic4xr_8sciparse5proto14dataplane_path8standard4viewNtB5_12HopFieldView17ingress_interface
FNDA:8505,_RNvMsc_NtNtNtNtCsdVnVozic4xr_8sciparse5proto14dataplane_path8standard4viewNtB5_12HopFieldView3mac
FNDA:8488,_RNvMsc_NtNtNtNtCsdVnVozic4xr_8sciparse5proto14dataplane_path8standard4viewNtB5_12HopFieldView5flags
FNDA:2156,_RNvMsd_NtNtNtNtCsdVnVozic4xr_8sciparse5proto14dataplane_path8standard4viewNtB5_12HopFieldView7set_mac
FNDA:2122,_RNvMsd_NtNtNtNtCsdVnVozic4xr_8sciparse5proto14dataplane_path8standard4viewNtB5_12HopFieldView9set_flags
FNDA:0,_RNvXs4_NtNtNtNtCsdVnVozic4xr_8sciparse5proto14dataplane_path8standard4viewNtB5_16StandardPathViewNtNtCs4eoa8Adtn6U_4core3fmt5Debug3fmt
FNDA:0,_RNvXs6_NtNtNtNtCsdVnVozic4xr_8sciparse5proto14dataplane_path8standard4viewNtB5_15SegmentIteratorNtNtNtNtCs4eoa8Adtn6U_4core4iter6traits8iterator8Iterator4next
FNDA:384,_RNvXs7_NtNtNtNtCsdVnVozic4xr_8sciparse5proto14dataplane_path8standard4viewNtB5_13InfoFieldViewNtNtNtBd_4core4view4View20from_slice_unchecked
FNDA:127,_RNvXs7_NtNtNtNtCsdVnVozic4xr_8sciparse5proto14dataplane_path8standard4viewNtB5_13InfoFieldViewNtNtNtBd_4core4view4View24from_mut_slice_unchecked
FNDA:711,_RNvXs7_NtNtNtNtCsdVnVozic4xr_8sciparse5proto14dataplane_path8standard4viewNtB5_13InfoFieldViewNtNtNtBd_4core4view4View8as_bytes
FNDA:0,_RNvXsa_NtNtNtNtCsdVnVozic4xr_8sciparse5proto14dataplane_path8standard4viewNtB5_13InfoFieldViewNtNtCs4eoa8Adtn6U_4core3fmt5Debug3fmt
FNDA:17,_RNvXsb_NtNtNtNtCsdVnVozic4xr_8sciparse5proto14dataplane_path8standard4viewNtB5_12HopFieldViewNtNtNtBd_4core4view4View12as_bytes_mut
FNDA:2298,_RNvXsb_NtNtNtNtCsdVnVozic4xr_8sciparse5proto14dataplane_path8standard4viewNtB5_12HopFieldViewNtNtNtBd_4core4view4View20from_slice_unchecked
FNDA:1180,_RNvXsb_NtNtNtNtCsdVnVozic4xr_8sciparse5proto14dataplane_path8standard4viewNtB5_12HopFieldViewNtNtNtBd_4core4view4View24from_mut_slice_unchecked
FNDA:6383,_RNvXsb_NtNtNtNtCsdVnVozic4xr_8sciparse5proto14dataplane_path8standard4viewNtB5_12HopFieldViewNtNtNtBd_4core4view4View8as_bytes
FNDA:0,_RNvXse_NtNtNtNtCsdVnVozic4xr_8sciparse5proto14dataplane_path8standard4viewNtB5_12HopFieldViewNtNtCs4eoa8Adtn6U_4core3fmt5Debug3fmt
FNDA:34,_RNvXsf_NtNtNtNtCsdVnVozic4xr_8sciparse5proto14dataplane_path8standard4viewNtB5_12HopFieldViewNtNtB7_3mac17HopMacInputSource13get_mac_input
FNDA:0,_RNvMs2_NtNtNtNtCsdVnVozic4xr_8sciparse5proto14dataplane_path8standard4viewNtB5_16StandardPathView18curr_hop_field_mut
FNDA:0,_RNvMs2_NtNtNtNtCsdVnVozic4xr_8sciparse5proto14dataplane_path8standard4viewNtB5_16StandardPathView19curr_info_field_mut
FNDA:0,_RNvMs5_NtNtNtNtCsdVnVozic4xr_8sciparse5proto14dataplane_path8standard4viewNtB5_15SegmentIterator13segment_count
FNDA:0,_RNvMs5_NtNtNtNtCsdVnVozic4xr_8sciparse5proto14dataplane_path8standard4viewNtB5_15SegmentIterator15hop_field_count
FNDA:0,_RNvXs7_NtNtNtNtCsdVnVozic4xr_8sciparse5proto14dataplane_path8standard4viewNtB5_13InfoFieldViewNtNtNtBd_4core4view4View12as_bytes_mut
FNDA:0,_RNvXs7_NtNtNtNtCsdVnVozic4xr_8sciparse5proto14dataplane_path8standard4viewNtB5_13InfoFieldViewNtNtNtBd_4core4view4View14as_bytes_boxed
FNDA:0,_RNvXs7_NtNtNtNtCsdVnVozic4xr_8sciparse5proto14dataplane_path8standard4viewNtB5_13InfoFieldViewNtNtNtBd_4core4view4View17has_required_size
FNDA:0,_RNvXs7_NtNtNtNtCsdVnVozic4xr_8sciparse5proto14dataplane_path8standard4viewNtB5_13InfoFieldViewNtNtNtBd_4core4view4View20from_boxed_unchecked
FNDA:0,_RNvXsb_NtNtNtNtCsdVnVozic4xr_8sciparse5proto14dataplane_path8standard4viewNtB5_12HopFieldViewNtNtNtBd_4core4view4View14as_bytes_boxed
FNDA:0,_RNvXsb_NtNtNtNtCsdVnVozic4xr_8sciparse5proto14dataplane_path8standard4viewNtB5_12HopFieldViewNtNtNtBd_4core4view4View17has_required_size
FNDA:0,_RNvXsb_NtNtNtNtCsdVnVozic4xr_8sciparse5proto14dataplane_path8standard4viewNtB5_12HopFieldViewNtNtNtBd_4core4view4View20from_boxed_unchecked
FNF:53
FNH:31
DA:66,1375
DA:67,1375
DA:68,1375
DA:72,8583
DA:73,8583
DA:74,8583
DA:98,740
DA:99,740
DA:100,740
DA:101,314
DA:102,426
DA:104,426
DA:105,426
DA:106,426
DA:107,426
DA:108,426
DA:109,426
DA:110,740
DA:115,6714
DA:116,6714
DA:117,6714
DA:118,1420
DA:119,5294
DA:121,5294
DA:122,5294
DA:123,5294
DA:124,5294
DA:125,5294
DA:126,5294
DA:127,6714
DA:134,150
DA:135,150
DA:136,150
DA:137,150
DA:141,520
DA:142,520
DA:148,316
DA:149,316
DA:151,316
DA:152,520
DA:157,150
DA:158,150
DA:159,150
DA:160,150
DA:164,2388
DA:165,2388
DA:171,2162
DA:172,2162
DA:174,2162
DA:175,2388
DA:179,300
DA:180,300
DA:182,300
DA:183,300
DA:184,300
DA:185,300
DA:188,300
DA:190,300
DA:195,300
DA:196,300
DA:197,300
DA:198,300
DA:200,300
DA:204,274
DA:205,274
DA:207,274
DA:208,274
DA:209,274
DA:210,274
DA:213,274
DA:217,274
DA:219,274
DA:220,274
DA:221,274
DA:222,274
DA:224,274
DA:231,0
DA:232,0
DA:233,0
DA:234,0
DA:238,220
DA:239,220
DA:245,110
DA:246,110
DA:249,110
DA:250,220
DA:255,0
DA:256,0
DA:257,0
DA:258,0
DA:262,2088
DA:263,2088
DA:269,1044
DA:270,1044
DA:273,1044
DA:274,2088
DA:278,75
DA:279,75
DA:281,75
DA:282,75
DA:283,75
DA:284,75
DA:287,75
DA:289,75
DA:293,75
DA:294,75
DA:295,75
DA:296,75
DA:297,75
DA:298,75
DA:299,75
DA:303,75
DA:304,75
DA:306,75
DA:307,75
DA:308,75
DA:309,75
DA:312,75
DA:316,75
DA:317,75
DA:318,75
DA:319,75
DA:320,75
DA:321,75
DA:322,75
DA:323,75
DA:328,0
DA:329,0
DA:330,0
DA:331,0
DA:336,0
DA:337,0
DA:341,0
DA:344,0
DA:345,0
DA:346,0
DA:348,0
DA:349,0
DA:350,0
DA:351,0
DA:353,0
DA:356,0
DA:357,0
DA:358,0
DA:359,0
DA:362,0
DA:365,0
DA:366,0
DA:367,0
DA:368,0
DA:369,0
DA:375,0
DA:376,0
DA:377,0
DA:378,0
DA:379,0
DA:380,0
DA:381,0
DA:382,0
DA:383,0
DA:384,0
DA:385,0
DA:387,0
DA:388,0
DA:389,0
DA:391,0
DA:392,0
DA:393,0
DA:398,0
DA:400,0
DA:401,0
DA:402,0
DA:403,0
DA:404,0
DA:406,0
DA:410,0
DA:412,0
DA:413,0
DA:414,0
DA:415,0
DA:417,0
DA:418,0
DA:429,0
DA:430,0
DA:431,0
DA:437,0
DA:438,0
DA:439,0
DA:440,0
DA:441,0
DA:443,0
DA:445,0
DA:447,0
DA:448,0
DA:449,0
DA:450,0
DA:451,0
DA:453,0
DA:456,0
DA:457,0
DA:458,0
DA:459,0
DA:461,0
DA:465,0
DA:468,0
DA:469,0
DA:475,0
DA:476,0
DA:477,0
DA:479,0
DA:480,0
DA:482,0
DA:484,0
DA:485,0
DA:487,0
DA:488,0
DA:492,0
DA:493,0
DA:497,0
DA:498,0
DA:499,0
DA:500,0
DA:501,0
DA:502,0
DA:503,0
DA:504,0
DA:505,0
DA:506,0
DA:507,0
DA:508,0
DA:509,0
DA:523,0
DA:524,0
DA:525,0
DA:526,0
DA:527,0
DA:528,0
DA:530,0
DA:531,0
DA:532,0
DA:533,0
DA:534,0
DA:535,0
DA:538,0
DA:539,0
DA:540,0
DA:541,0
DA:542,0
DA:543,0
DA:544,0
DA:545,0
DA:546,0
DA:549,0
DA:550,0
DA:551,0
DA:554,0
DA:555,0
DA:556,0
DA:559,0
DA:560,0
DA:561,0
DA:566,0
DA:567,0
DA:568,0
DA:569,0
DA:571,0
DA:572,0
DA:573,0
DA:575,0
DA:576,0
DA:578,0
DA:579,0
DA:588,0
DA:589,0
DA:590,0
DA:591,0
DA:592,0
DA:593,0
DA:594,0
DA:595,0
DA:597,0
DA:598,0
DA:601,384
DA:603,384
DA:604,384
DA:605,384
DA:606,384
DA:609,127
DA:611,127
DA:612,127
DA:613,127
DA:614,127
DA:617,0
DA:619,0
DA:620,0
DA:621,0
DA:622,0
DA:625,0
DA:626,0
DA:627,0
DA:630,0
DA:632,0
DA:633,0
DA:634,0
DA:637,711
DA:638,711
DA:639,711
DA:645,5260
DA:647,5260
DA:648,5260
DA:649,5260
DA:659,982
DA:661,982
DA:662,982
DA:668,237
DA:670,237
DA:671,237
DA:672,237
DA:678,0
DA:679,0
DA:680,0
DA:681,0
DA:682,0
DA:683,0
DA:684,0
DA:693,0
DA:694,0
DA:695,0
DA:696,0
DA:697,0
DA:698,0
DA:699,0
DA:700,0
DA:702,0
DA:703,0
DA:706,2298
DA:708,2298
DA:709,2298
DA:710,2298
DA:713,1180
DA:715,1180
DA:716,1180
DA:717,1180
DA:718,1180
DA:721,0
DA:723,0
DA:724,0
DA:725,0
DA:726,0
DA:729,17
DA:730,17
DA:731,17
DA:734,0
DA:736,0
DA:737,0
DA:738,0
DA:741,6383
DA:742,6383
DA:743,6383
DA:749,8488
DA:751,8488
DA:752,8488
DA:753,8488
DA:754,8488
DA:762,8505
DA:764,8505
DA:765,8505
DA:766,8505
DA:767,8505
DA:768,8505
DA:771,8505
DA:772,8505
DA:779,2156
DA:780,2156
DA:781,1040
DA:783,1116
DA:785,2156
DA:792,2156
DA:793,2156
DA:794,1040
DA:796,1116
DA:798,2156
DA:804,2122
DA:806,2122
DA:807,2122
DA:808,2122
DA:816,2156
DA:818,2156
DA:819,2156
DA:820,2156
DA:821,2156
DA:822,2156
DA:823,2156
DA:826,0
DA:827,0
DA:828,0
DA:829,0
DA:830,0
DA:831,0
DA:832,0
DA:833,0
DA:834,0
DA:840,34
DA:841,34
DA:842,34
DA:843,34
DA:844,34
DA:845,34
DA:846,34
BRF:0
BRH:0
LF:410
LH:198
end_of_record
SF:/home/akelbsch/projects/scion/endhost/public/scion-proto/sciparse/src/proto/dataplane_path/types.rs
FN:132,_RINvMs0_NtNtNtCsdVnVozic4xr_8sciparse5proto14dataplane_path5typesNtB6_16PathReverseError3newReEBc_
FN:41,_RNvXNtNtNtCsdVnVozic4xr_8sciparse5proto14dataplane_path5typesNtB2_8PathTypeINtNtCs4eoa8Adtn6U_4core7convert4FromhE4from
FN:93,_RNvXNtNtNtNtCsdVnVozic4xr_8sciparse5proto14dataplane_path5types5ptestNtB2_23ArbitraryPathTypeParamsNtNtCs4eoa8Adtn6U_4core7default7Default7default
FN:53,_RNvXs_NtNtNtCsdVnVozic4xr_8sciparse5proto14dataplane_path5typeshINtNtCs4eoa8Adtn6U_4core7convert4FromNtB4_8PathTypeE4from
FN:109,_RNvXs_NtNtNtNtCsdVnVozic4xr_8sciparse5proto14dataplane_path5types5ptestNtB6_8PathTypeNtNtNtCskZahNybV1yu_8proptest9arbitrary6traits9Arbitrary14arbitrary_with
FNDA:0,_RINvMs0_NtNtNtCsdVnVozic4xr_8sciparse5proto14dataplane_path5typesNtB6_16PathReverseError3newReEBc_
FNDA:4463,_RNvXNtNtNtCsdVnVozic4xr_8sciparse5proto14dataplane_path5typesNtB2_8PathTypeINtNtCs4eoa8Adtn6U_4core7convert4FromhE4from
FNDA:0,_RNvXNtNtNtNtCsdVnVozic4xr_8sciparse5proto14dataplane_path5types5ptestNtB2_23ArbitraryPathTypeParamsNtNtCs4eoa8Adtn6U_4core7default7Default7default
FNDA:628,_RNvXs_NtNtNtCsdVnVozic4xr_8sciparse5proto14dataplane_path5typeshINtNtCs4eoa8Adtn6U_4core7convert4FromNtB4_8PathTypeE4from
FNDA:0,_RNvXs_NtNtNtNtCsdVnVozic4xr_8sciparse5proto14dataplane_path5types5ptestNtB6_8PathTypeNtNtNtCskZahNybV1yu_8proptest9arbitrary6traits9Arbitrary14arbitrary_with
FNF:5
FNH:2
DA:41,4463
DA:42,4463
DA:43,176
DA:44,566
DA:45,128
DA:46,121
DA:47,111
DA:48,3361
DA:50,4463
DA:53,628
DA:54,628
DA:55,19
DA:56,75
DA:57,17
DA:58,20
DA:59,15
DA:60,482
DA:62,628
DA:93,0
DA:94,0
DA:95,0
DA:96,0
DA:97,0
DA:98,0
DA:99,0
DA:100,0
DA:101,0
DA:102,0
DA:109,0
DA:110,0
DA:111,0
DA:112,0
DA:113,0
DA:114,0
DA:115,0
DA:116,0
DA:118,0
DA:119,0
DA:132,0
DA:133,0
DA:134,0
DA:135,0
DA:136,0
BRF:0
BRH:0
LF:43
LH:18
end_of_record
SF:/home/akelbsch/projects/scion/endhost/public/scion-proto/sciparse/src/proto/dataplane_path/view.rs
FN:144,_RNvXs5_NtNtNtCsdVnVozic4xr_8sciparse5proto14dataplane_path4viewNtB5_15ScionDpPathViewNtB5_18ScionDpPathViewExt6as_ref
FN:163,_RNvXs6_NtNtNtCsdVnVozic4xr_8sciparse5proto14dataplane_path4viewNtB5_15ScionDpPathViewNtB5_21ScionDpPathViewExtMut6as_mut
FN:216,_RNvYNtNtNtNtCsdVnVozic4xr_8sciparse5proto14dataplane_path4view15ScionDpPathViewNtB4_18ScionDpPathViewExt10expirationBa_
FN:228,_RNvYNtNtNtNtCsdVnVozic4xr_8sciparse5proto14dataplane_path4view15ScionDpPathViewNtB4_18ScionDpPathViewExt22first_egress_interfaceBa_
FN:242,_RNvYNtNtNtNtCsdVnVozic4xr_8sciparse5proto14dataplane_path4view15ScionDpPathViewNtB4_18ScionDpPathViewExt22last_ingress_interfaceBa_
FN:265,_RNvYNtNtNtNtCsdVnVozic4xr_8sciparse5proto14dataplane_path4view15ScionDpPathViewNtB4_21ScionDpPathViewExtMut11try_reverseBa_
FN:45,_RNvXNtNtNtCsdVnVozic4xr_8sciparse5proto14dataplane_path4viewNtB2_18ScionDpPathViewRefNtB2_18ScionDpPathViewExt6as_ref
FN:55,_RNvXs0_NtNtNtCsdVnVozic4xr_8sciparse5proto14dataplane_path4viewNtB5_18ScionDpPathViewRefINtNtCs4eoa8Adtn6U_4core7convert4FromRNtNtNtB7_6onehop4view14OneHopPathViewE4from
FN:79,_RNvXs1_NtNtNtCsdVnVozic4xr_8sciparse5proto14dataplane_path4viewNtB5_21ScionDpPathViewRefMutNtB5_18ScionDpPathViewExt6as_ref
FN:98,_RNvXs2_NtNtNtCsdVnVozic4xr_8sciparse5proto14dataplane_path4viewNtB5_21ScionDpPathViewRefMutNtB5_21ScionDpPathViewExtMut6as_mut
FN:115,_RNvXs3_NtNtNtCsdVnVozic4xr_8sciparse5proto14dataplane_path4viewNtB5_18ScionDpPathViewRefINtNtCs4eoa8Adtn6U_4core7convert4FromQNtNtNtB7_8standard4view16StandardPathViewE4from
FN:120,_RNvXs4_NtNtNtCsdVnVozic4xr_8sciparse5proto14dataplane_path4viewNtB5_18ScionDpPathViewRefINtNtCs4eoa8Adtn6U_4core7convert4FromQNtNtNtB7_6onehop4view14OneHopPathViewE4from
FN:50,_RNvXs_NtNtNtCsdVnVozic4xr_8sciparse5proto14dataplane_path4viewNtB4_18ScionDpPathViewRefINtNtCs4eoa8Adtn6U_4core7convert4FromRNtNtNtB6_8standard4view16StandardPathViewE4from
FN:195,_RNvYpNtNtNtNtCsdVnVozic4xr_8sciparse5proto14dataplane_path4view18ScionDpPathViewExt8to_ownedBb_
FNDA:0,_RNvXs5_NtNtNtCsdVnVozic4xr_8sciparse5proto14dataplane_path4viewNtB5_15ScionDpPathViewNtB5_18ScionDpPathViewExt6as_ref
FNDA:0,_RNvXs6_NtNtNtCsdVnVozic4xr_8sciparse5proto14dataplane_path4viewNtB5_15ScionDpPathViewNtB5_21ScionDpPathViewExtMut6as_mut
FNDA:0,_RNvYNtNtNtNtCsdVnVozic4xr_8sciparse5proto14dataplane_path4view15ScionDpPathViewNtB4_18ScionDpPathViewExt10expirationBa_
FNDA:0,_RNvYNtNtNtNtCsdVnVozic4xr_8sciparse5proto14dataplane_path4view15ScionDpPathViewNtB4_18ScionDpPathViewExt22first_egress_interfaceBa_
FNDA:0,_RNvYNtNtNtNtCsdVnVozic4xr_8sciparse5proto14dataplane_path4view15ScionDpPathViewNtB4_18ScionDpPathViewExt22last_ingress_interfaceBa_
FNDA:0,_RNvYNtNtNtNtCsdVnVozic4xr_8sciparse5proto14dataplane_path4view15ScionDpPathViewNtB4_21ScionDpPathViewExtMut11try_reverseBa_
FNDA:0,_RNvXNtNtNtCsdVnVozic4xr_8sciparse5proto14dataplane_path4viewNtB2_18ScionDpPathViewRefNtB2_18ScionDpPathViewExt6as_ref
FNDA:0,_RNvXs0_NtNtNtCsdVnVozic4xr_8sciparse5proto14dataplane_path4viewNtB5_18ScionDpPathViewRefINtNtCs4eoa8Adtn6U_4core7convert4FromRNtNtNtB7_6onehop4view14OneHopPathViewE4from
FNDA:0,_RNvXs1_NtNtNtCsdVnVozic4xr_8sciparse5proto14dataplane_path4viewNtB5_21ScionDpPathViewRefMutNtB5_18ScionDpPathViewExt6as_ref
FNDA:0,_RNvXs2_NtNtNtCsdVnVozic4xr_8sciparse5proto14dataplane_path4viewNtB5_21ScionDpPathViewRefMutNtB5_21ScionDpPathViewExtMut6as_mut
FNDA:0,_RNvXs3_NtNtNtCsdVnVozic4xr_8sciparse5proto14dataplane_path4viewNtB5_18ScionDpPathViewRefINtNtCs4eoa8Adtn6U_4core7convert4FromQNtNtNtB7_8standard4view16StandardPathViewE4from
FNDA:0,_RNvXs4_NtNtNtCsdVnVozic4xr_8sciparse5proto14dataplane_path4viewNtB5_18ScionDpPathViewRefINtNtCs4eoa8Adtn6U_4core7convert4FromQNtNtNtB7_6onehop4view14OneHopPathViewE4from
FNDA:0,_RNvXs_NtNtNtCsdVnVozic4xr_8sciparse5proto14dataplane_path4viewNtB4_18ScionDpPathViewRefINtNtCs4eoa8Adtn6U_4core7convert4FromRNtNtNtB6_8standard4view16StandardPathViewE4from
FNDA:0,_RNvYpNtNtNtNtCsdVnVozic4xr_8sciparse5proto14dataplane_path4view18ScionDpPathViewExt8to_ownedBb_
FNF:14
FNH:0
DA:45,0
DA:46,0
DA:47,0
DA:50,0
DA:51,0
DA:52,0
DA:55,0
DA:56,0
DA:57,0
DA:79,0
DA:80,0
DA:81,0
DA:82,0
DA:84,0
DA:85,0
DA:87,0
DA:88,0
DA:89,0
DA:90,0
DA:91,0
DA:93,0
DA:95,0
DA:98,0
DA:101,0
DA:102,0
DA:103,0
DA:104,0
DA:105,0
DA:106,0
DA:107,0
DA:108,0
DA:110,0
DA:112,0
DA:115,0
DA:116,0
DA:117,0
DA:120,0
DA:121,0
DA:122,0
DA:144,0
DA:145,0
DA:146,0
DA:147,0
DA:149,0
DA:150,0
DA:152,0
DA:153,0
DA:154,0
DA:155,0
DA:156,0
DA:158,0
DA:160,0
DA:163,0
DA:164,0
DA:165,0
DA:166,0
DA:168,0
DA:169,0
DA:171,0
DA:172,0
DA:173,0
DA:174,0
DA:175,0
DA:177,0
DA:179,0
DA:195,0
DA:196,0
DA:197,0
DA:198,0
DA:200,0
DA:201,0
DA:203,0
DA:204,0
DA:205,0
DA:206,0
DA:207,0
DA:209,0
DA:211,0
DA:216,0
DA:217,0
DA:218,0
DA:219,0
DA:221,0
DA:222,0
DA:223,0
DA:225,0
DA:228,0
DA:229,0
DA:230,0
DA:231,0
DA:233,0
DA:234,0
DA:236,0
DA:237,0
DA:239,0
DA:242,0
DA:243,0
DA:244,0
DA:245,0
DA:247,0
DA:248,0
DA:250,0
DA:251,0
DA:253,0
DA:265,0
DA:266,0
DA:267,0
DA:269,0
DA:271,0
DA:272,0
DA:273,0
DA:274,0
DA:276,0
DA:277,0
DA:278,0
DA:280,0
DA:282,0
DA:283,0
DA:284,0
DA:287,0
BRF:0
BRH:0
LF:120
LH:0
end_of_record
SF:/home/akelbsch/projects/scion/endhost/public/scion-proto/sciparse/src/proto/header/layout.rs
FN:108,_RNCNvMNtNtNtCsdVnVozic4xr_8sciparse5proto6header6layoutNtB4_17ScionHeaderLayout10from_slice0Ba_
FN:147,_RNCNvMNtNtNtCsdVnVozic4xr_8sciparse5proto6header6layoutNtB4_17ScionHeaderLayout10from_slices_0Ba_
FN:71,_RNvMNtNtNtCsdVnVozic4xr_8sciparse5proto6header6layoutNtB2_17ScionHeaderLayout10from_parts
FN:101,_RNvMNtNtNtCsdVnVozic4xr_8sciparse5proto6header6layoutNtB2_17ScionHeaderLayout10from_slice
FN:224,_RNvMNtNtNtCsdVnVozic4xr_8sciparse5proto6header6layoutNtB2_17ScionHeaderLayout11from_loaded
FN:317,_RNvMs3_NtNtNtCsdVnVozic4xr_8sciparse5proto6header6layoutNtB5_18CommonHeaderLayout11annotations
FN:411,_RNvMs5_NtNtNtCsdVnVozic4xr_8sciparse5proto6header6layoutNtB5_19AddressHeaderLayout11total_range
FN:395,_RNvMs5_NtNtNtCsdVnVozic4xr_8sciparse5proto6header6layoutNtB5_19AddressHeaderLayout19dst_host_addr_range
FN:403,_RNvMs5_NtNtNtCsdVnVozic4xr_8sciparse5proto6header6layoutNtB5_19AddressHeaderLayout19src_host_addr_range
FN:368,_RNvMs5_NtNtNtCsdVnVozic4xr_8sciparse5proto6header6layoutNtB5_19AddressHeaderLayout3new
FN:419,_RNvMs6_NtNtNtCsdVnVozic4xr_8sciparse5proto6header6layoutNtB5_19AddressHeaderLayout11annotations
FN:264,_RNvMs_NtNtNtCsdVnVozic4xr_8sciparse5proto6header6layoutNtB4_17ScionHeaderLayout11annotations
FN:276,_RNvXs0_NtNtNtCsdVnVozic4xr_8sciparse5proto6header6layoutNtB5_17ScionHeaderLayoutNtNtNtBb_4core6layout6Layout10size_bytes
FN:282,_RNvXs1_NtNtNtCsdVnVozic4xr_8sciparse5proto6header6layoutNtB5_17ScionHeaderLayoutINtNtCs4eoa8Adtn6U_4core7convert7TryFromRShE8try_from
FN:336,_RNvXs4_NtNtNtCsdVnVozic4xr_8sciparse5proto6header6layoutNtB5_18CommonHeaderLayoutNtNtNtBb_4core6layout6Layout10size_bytes
FN:434,_RNvXs7_NtNtNtCsdVnVozic4xr_8sciparse5proto6header6layoutNtB5_19AddressHeaderLayoutNtNtNtBb_4core6layout6Layout10size_bytes
FNDA:116,_RNCNvMNtNtNtCsdVnVozic4xr_8sciparse5proto6header6layoutNtB4_17ScionHeaderLayout10from_slice0Ba_
FNDA:32,_RNCNvMNtNtNtCsdVnVozic4xr_8sciparse5proto6header6layoutNtB4_17ScionHeaderLayout10from_slices_0Ba_
FNDA:0,_RNvMNtNtNtCsdVnVozic4xr_8sciparse5proto6header6layoutNtB2_17ScionHeaderLayout10from_parts
FNDA:2111,_RNvMNtNtNtCsdVnVozic4xr_8sciparse5proto6header6layoutNtB2_17ScionHeaderLayout10from_slice
FNDA:0,_RNvMNtNtNtCsdVnVozic4xr_8sciparse5proto6header6layoutNtB2_17ScionHeaderLayout11from_loaded
FNDA:0,_RNvMs3_NtNtNtCsdVnVozic4xr_8sciparse5proto6header6layoutNtB5_18CommonHeaderLayout11annotations
FNDA:5026,_RNvMs5_NtNtNtCsdVnVozic4xr_8sciparse5proto6header6layoutNtB5_19AddressHeaderLayout11total_range
FNDA:660,_RNvMs5_NtNtNtCsdVnVozic4xr_8sciparse5proto6header6layoutNtB5_19AddressHeaderLayout19dst_host_addr_range
FNDA:6282,_RNvMs5_NtNtNtCsdVnVozic4xr_8sciparse5proto6header6layoutNtB5_19AddressHeaderLayout19src_host_addr_range
FNDA:6942,_RNvMs5_NtNtNtCsdVnVozic4xr_8sciparse5proto6header6layoutNtB5_19AddressHeaderLayout3new
FNDA:0,_RNvMs6_NtNtNtCsdVnVozic4xr_8sciparse5proto6header6layoutNtB5_19AddressHeaderLayout11annotations
FNDA:0,_RNvMs_NtNtNtCsdVnVozic4xr_8sciparse5proto6header6layoutNtB4_17ScionHeaderLayout11annotations
FNDA:0,_RNvXs0_NtNtNtCsdVnVozic4xr_8sciparse5proto6header6layoutNtB5_17ScionHeaderLayoutNtNtNtBb_4core6layout6Layout10size_bytes
FNDA:0,_RNvXs1_NtNtNtCsdVnVozic4xr_8sciparse5proto6header6layoutNtB5_17ScionHeaderLayoutINtNtCs4eoa8Adtn6U_4core7convert7TryFromRShE8try_from
FNDA:5997,_RNvXs4_NtNtNtCsdVnVozic4xr_8sciparse5proto6header6layoutNtB5_18CommonHeaderLayoutNtNtNtBb_4core6layout6Layout10size_bytes
FNDA:5026,_RNvXs7_NtNtNtCsdVnVozic4xr_8sciparse5proto6header6layoutNtB5_19AddressHeaderLayoutNtNtNtBb_4core6layout6Layout10size_bytes
FNF:16
FNH:9
DA:71,0
DA:72,0
DA:73,0
DA:74,0
DA:75,0
DA:76,0
DA:77,0
DA:78,0
DA:79,0
DA:81,0
DA:82,0
DA:83,0
DA:84,0
DA:85,0
DA:86,0
DA:87,0
DA:88,0
DA:89,0
DA:101,2111
DA:106,2111
DA:107,2111
DA:108,2111
DA:109,116
DA:110,116
DA:111,116
DA:112,116
DA:113,116
DA:114,116
DA:118,1995
DA:119,1995
DA:120,44
DA:121,1951
DA:123,1951
DA:125,1951
DA:126,1951
DA:128,1951
DA:129,1951
DA:131,1951
DA:132,1951
DA:135,1951
DA:136,91
DA:137,91
DA:138,91
DA:139,91
DA:140,91
DA:141,1860
DA:143,1860
DA:145,262
DA:146,262
DA:147,262
DA:148,32
DA:149,32
DA:150,32
DA:151,32
DA:152,32
DA:153,32
DA:157,230
DA:158,230
DA:160,230
DA:161,230
DA:162,230
DA:164,230
DA:166,230
DA:168,60
DA:169,65
DA:170,1473
DA:172,1473
DA:173,9
DA:174,9
DA:175,9
DA:176,9
DA:177,9
DA:178,1464
DA:180,1464
DA:181,1464
DA:182,1464
DA:183,1464
DA:190,1819
DA:191,1819
DA:192,1819
DA:195,1819
DA:196,37
DA:197,37
DA:198,37
DA:199,37
DA:200,37
DA:201,1782
DA:204,1782
DA:205,12
DA:206,12
DA:207,12
DA:208,12
DA:209,1770
DA:211,1770
DA:212,1770
DA:213,1770
DA:214,1770
DA:215,1770
DA:216,1770
DA:217,1770
DA:218,1770
DA:219,1770
DA:220,1770
DA:221,2111
DA:224,0
DA:225,0
DA:226,0
DA:227,0
DA:228,0
DA:231,0
DA:232,0
DA:233,0
DA:235,0
DA:236,0
DA:237,0
DA:238,0
DA:240,0
DA:241,0
DA:242,0
DA:243,0
DA:244,0
DA:245,0
DA:246,0
DA:247,0
DA:251,0
DA:253,0
DA:254,0
DA:255,0
DA:256,0
DA:257,0
DA:258,0
DA:259,0
DA:260,0
DA:264,0
DA:265,0
DA:267,0
DA:268,0
DA:269,0
DA:271,0
DA:272,0
DA:276,0
DA:277,0
DA:278,0
DA:282,0
DA:283,0
DA:284,0
DA:317,0
DA:318,0
DA:319,0
DA:320,0
DA:321,0
DA:322,0
DA:323,0
DA:324,0
DA:325,0
DA:326,0
DA:327,0
DA:328,0
DA:331,0
DA:332,0
DA:336,5997
DA:337,5997
DA:338,5997
DA:368,6942
DA:369,6942
DA:370,6942
DA:371,6942
DA:372,6942
DA:373,6942
DA:395,660
DA:396,660
DA:397,660
DA:398,660
DA:399,660
DA:403,6282
DA:404,6282
DA:405,6282
DA:406,6282
DA:407,6282
DA:411,5026
DA:412,5026
DA:413,5026
DA:414,5026
DA:415,5026
DA:419,0
DA:420,0
DA:421,0
DA:422,0
DA:423,0
DA:424,0
DA:425,0
DA:426,0
DA:429,0
DA:430,0
DA:434,5026
DA:435,5026
DA:436,5026
BRF:0
BRH:0
LF:201
LH:117
end_of_record
SF:/home/akelbsch/projects/scion/endhost/public/scion-proto/sciparse/src/proto/header/model.rs
FN:392,_RNCNvXNtNtNtNtCsdVnVozic4xr_8sciparse5proto6header5model5ptestNtB6_17ScionPacketHeaderNtNtNtCskZahNybV1yu_8proptest9arbitrary6traits9Arbitrary14arbitrary_with0Bc_
FN:63,_RNvMNtNtNtCsdVnVozic4xr_8sciparse5proto6header5modelNtB2_17ScionPacketHeader10from_slice
FN:69,_RNvMNtNtNtCsdVnVozic4xr_8sciparse5proto6header5modelNtB2_17ScionPacketHeader10size_units
FN:51,_RNvMNtNtNtCsdVnVozic4xr_8sciparse5proto6header5modelNtB2_17ScionPacketHeader9from_view
FN:178,_RNvMs0_NtNtNtCsdVnVozic4xr_8sciparse5proto6header5modelNtB5_12CommonHeader9from_view
FN:208,_RNvMs1_NtNtNtCsdVnVozic4xr_8sciparse5proto6header5modelNtB5_12CommonHeader16encode_unchecked
FN:190,_RNvMs1_NtNtNtCsdVnVozic4xr_8sciparse5proto6header5modelNtB5_12CommonHeader5valid
FN:276,_RNvMs2_NtNtNtCsdVnVozic4xr_8sciparse5proto6header5modelNtB5_13AddressHeader13dst_addr_type
FN:281,_RNvMs2_NtNtNtCsdVnVozic4xr_8sciparse5proto6header5modelNtB5_13AddressHeader13src_addr_type
FN:252,_RNvMs2_NtNtNtCsdVnVozic4xr_8sciparse5proto6header5modelNtB5_13AddressHeader3new
FN:262,_RNvMs2_NtNtNtCsdVnVozic4xr_8sciparse5proto6header5modelNtB5_13AddressHeader9from_view
FN:90,_RNvMs_NtNtNtCsdVnVozic4xr_8sciparse5proto6header5modelNtB4_17ScionPacketHeader10wire_valid
FN:80,_RNvMs_NtNtNtCsdVnVozic4xr_8sciparse5proto6header5modelNtB4_17ScionPacketHeader13required_size
FN:117,_RNvMs_NtNtNtCsdVnVozic4xr_8sciparse5proto6header5modelNtB4_17ScionPacketHeader16encode_unchecked
FN:150,_RNvMs_NtNtNtCsdVnVozic4xr_8sciparse5proto6header5modelNtB4_17ScionPacketHeader6encode
FN:359,_RNvXNtNtNtNtCsdVnVozic4xr_8sciparse5proto6header5model5ptestNtB4_17ScionPacketHeaderNtNtNtCskZahNybV1yu_8proptest9arbitrary6traits9Arbitrary14arbitrary_with
FN:294,_RNvXs3_NtNtNtCsdVnVozic4xr_8sciparse5proto6header5modelNtB5_13AddressHeaderNtNtNtBb_4core6encode10WireEncode10wire_valid
FN:286,_RNvXs3_NtNtNtCsdVnVozic4xr_8sciparse5proto6header5modelNtB5_13AddressHeaderNtNtNtBb_4core6encode10WireEncode13required_size
FN:303,_RNvXs3_NtNtNtCsdVnVozic4xr_8sciparse5proto6header5modelNtB5_13AddressHeaderNtNtNtBb_4core6encode10WireEncode16encode_unchecked
FNDA:0,_RNCNvXNtNtNtNtCsdVnVozic4xr_8sciparse5proto6header5model5ptestNtB6_17ScionPacketHeaderNtNtNtCskZahNybV1yu_8proptest9arbitrary6traits9Arbitrary14arbitrary_with0Bc_
FNDA:0,_RNvMNtNtNtCsdVnVozic4xr_8sciparse5proto6header5modelNtB2_17ScionPacketHeader10from_slice
FNDA:0,_RNvMNtNtNtCsdVnVozic4xr_8sciparse5proto6header5modelNtB2_17ScionPacketHeader10size_units
FNDA:0,_RNvMNtNtNtCsdVnVozic4xr_8sciparse5proto6header5modelNtB2_17ScionPacketHeader9from_view
FNDA:0,_RNvMs0_NtNtNtCsdVnVozic4xr_8sciparse5proto6header5modelNtB5_12CommonHeader9from_view
FNDA:0,_RNvMs1_NtNtNtCsdVnVozic4xr_8sciparse5proto6header5modelNtB5_12CommonHeader16encode_unchecked
FNDA:0,_RNvMs1_NtNtNtCsdVnVozic4xr_8sciparse5proto6header5modelNtB5_12CommonHeader5valid
FNDA:0,_RNvMs2_NtNtNtCsdVnVozic4xr_8sciparse5proto6header5modelNtB5_13AddressHeader13dst_addr_type
FNDA:0,_RNvMs2_NtNtNtCsdVnVozic4xr_8sciparse5proto6header5modelNtB5_13AddressHeader13src_addr_type
FNDA:0,_RNvMs2_NtNtNtCsdVnVozic4xr_8sciparse5proto6header5modelNtB5_13AddressHeader3new
FNDA:0,_RNvMs2_NtNtNtCsdVnVozic4xr_8sciparse5proto6header5modelNtB5_13AddressHeader9from_view
FNDA:0,_RNvMs_NtNtNtCsdVnVozic4xr_8sciparse5proto6header5modelNtB4_17ScionPacketHeader10wire_valid
FNDA:0,_RNvMs_NtNtNtCsdVnVozic4xr_8sciparse5proto6header5modelNtB4_17ScionPacketHeader13required_size
FNDA:0,_RNvMs_NtNtNtCsdVnVozic4xr_8sciparse5proto6header5modelNtB4_17ScionPacketHeader16encode_unchecked
FNDA:0,_RNvMs_NtNtNtCsdVnVozic4xr_8sciparse5proto6header5modelNtB4_17ScionPacketHeader6encode
FNDA:0,_RNvXNtNtNtNtCsdVnVozic4xr_8sciparse5proto6header5model5ptestNtB4_17ScionPacketHeaderNtNtNtCskZahNybV1yu_8proptest9arbitrary6traits9Arbitrary14arbitrary_with
FNDA:0,_RNvXs3_NtNtNtCsdVnVozic4xr_8sciparse5proto6header5modelNtB5_13AddressHeaderNtNtNtBb_4core6encode10WireEncode10wire_valid
FNDA:0,_RNvXs3_NtNtNtCsdVnVozic4xr_8sciparse5proto6header5modelNtB5_13AddressHeaderNtNtNtBb_4core6encode10WireEncode13required_size
FNDA:0,_RNvXs3_NtNtNtCsdVnVozic4xr_8sciparse5proto6header5modelNtB5_13AddressHeaderNtNtNtBb_4core6encode10WireEncode16encode_unchecked
FNF:19
FNH:0
DA:51,0
DA:53,0
DA:54,0
DA:55,0
DA:57,0
DA:63,0
DA:64,0
DA:65,0
DA:66,0
DA:69,0
DA:70,0
DA:71,0
DA:80,0
DA:81,0
DA:82,0
DA:90,0
DA:91,0
DA:92,0
DA:93,0
DA:94,0
DA:95,0
DA:96,0
DA:98,0
DA:99,0
DA:100,0
DA:101,0
DA:102,0
DA:104,0
DA:105,0
DA:106,0
DA:107,0
DA:108,0
DA:117,0
DA:121,0
DA:122,0
DA:123,0
DA:124,0
DA:125,0
DA:126,0
DA:127,0
DA:131,0
DA:132,0
DA:133,0
DA:136,0
DA:137,0
DA:138,0
DA:141,0
DA:142,0
DA:150,0
DA:151,0
DA:153,0
DA:154,0
DA:155,0
DA:156,0
DA:159,0
DA:160,0
DA:178,0
DA:179,0
DA:180,0
DA:181,0
DA:182,0
DA:183,0
DA:184,0
DA:185,0
DA:190,0
DA:193,0
DA:194,0
DA:195,0
DA:200,0
DA:201,0
DA:208,0
DA:209,0
DA:210,0
DA:211,0
DA:212,0
DA:213,0
DA:214,0
DA:215,0
DA:216,0
DA:220,0
DA:221,0
DA:222,0
DA:223,0
DA:224,0
DA:225,0
DA:226,0
DA:227,0
DA:228,0
DA:229,0
DA:230,0
DA:231,0
DA:234,0
DA:235,0
DA:252,0
DA:253,0
DA:254,0
DA:255,0
DA:256,0
DA:257,0
DA:258,0
DA:259,0
DA:262,0
DA:264,0
DA:265,0
DA:266,0
DA:267,0
DA:268,0
DA:269,0
DA:270,0
DA:271,0
DA:273,0
DA:276,0
DA:277,0
DA:278,0
DA:281,0
DA:282,0
DA:283,0
DA:286,0
DA:287,0
DA:288,0
DA:289,0
DA:290,0
DA:291,0
DA:292,0
DA:294,0
DA:297,0
DA:298,0
DA:300,0
DA:301,0
DA:303,0
DA:306,0
DA:307,0
DA:308,0
DA:309,0
DA:311,0
DA:312,0
DA:313,0
DA:316,0
DA:317,0
DA:318,0
DA:319,0
DA:320,0
DA:322,0
DA:323,0
DA:324,0
DA:325,0
DA:326,0
DA:329,0
DA:330,0
DA:359,0
DA:360,0
DA:361,0
DA:362,0
DA:364,0
DA:365,0
DA:367,0
DA:368,0
DA:370,0
DA:372,0
DA:373,0
DA:374,0
DA:375,0
DA:376,0
DA:377,0
DA:378,0
DA:379,0
DA:380,0
DA:381,0
DA:382,0
DA:392,0
DA:393,0
DA:394,0
DA:395,0
DA:396,0
DA:397,0
DA:398,0
DA:399,0
DA:400,0
DA:401,0
DA:402,0
DA:403,0
DA:404,0
DA:405,0
DA:406,0
DA:407,0
DA:409,0
DA:410,0
BRF:0
BRH:0
LF:187
LH:0
end_of_record
SF:/home/akelbsch/projects/scion/endhost/public/scion-proto/sciparse/src/proto/header/view.rs
FN:65,_RNvMNtNtNtCsdVnVozic4xr_8sciparse5proto6header4viewNtB2_15ScionHeaderView10header_len
FN:91,_RNvMNtNtNtCsdVnVozic4xr_8sciparse5proto6header4viewNtB2_15ScionHeaderView13dst_addr_type
FN:99,_RNvMNtNtNtCsdVnVozic4xr_8sciparse5proto6header4viewNtB2_15ScionHeaderView13src_addr_type
FN:77,_RNvMNtNtNtCsdVnVozic4xr_8sciparse5proto6header4viewNtB2_15ScionHeaderView15path_type_range
FN:83,_RNvMNtNtNtCsdVnVozic4xr_8sciparse5proto6header4viewNtB2_15ScionHeaderView9path_type
FN:298,_RNvMs0_NtNtNtCsdVnVozic4xr_8sciparse5proto6header4viewNtB5_15ScionHeaderView13dst_host_addr
FN:329,_RNvMs0_NtNtNtCsdVnVozic4xr_8sciparse5proto6header4viewNtB5_15ScionHeaderView13src_host_addr
FN:317,_RNvMs0_NtNtNtCsdVnVozic4xr_8sciparse5proto6header4viewNtB5_15ScionHeaderView19src_host_addr_range
FN:242,_RNvMs0_NtNtNtCsdVnVozic4xr_8sciparse5proto6header4viewNtB5_15ScionHeaderView6dst_as
FN:216,_RNvMs0_NtNtNtCsdVnVozic4xr_8sciparse5proto6header4viewNtB5_15ScionHeaderView6dst_ia
FN:282,_RNvMs0_NtNtNtCsdVnVozic4xr_8sciparse5proto6header4viewNtB5_15ScionHeaderView6src_as
FN:256,_RNvMs0_NtNtNtCsdVnVozic4xr_8sciparse5proto6header4viewNtB5_15ScionHeaderView6src_ia
FN:229,_RNvMs0_NtNtNtCsdVnVozic4xr_8sciparse5proto6header4viewNtB5_15ScionHeaderView7dst_isd
FN:269,_RNvMs0_NtNtNtCsdVnVozic4xr_8sciparse5proto6header4viewNtB5_15ScionHeaderView7src_isd
FN:377,_RNvMs1_NtNtNtCsdVnVozic4xr_8sciparse5proto6header4viewNtB5_15ScionHeaderView10set_dst_as
FN:353,_RNvMs1_NtNtNtCsdVnVozic4xr_8sciparse5proto6header4viewNtB5_15ScionHeaderView10set_src_as
FN:365,_RNvMs1_NtNtNtCsdVnVozic4xr_8sciparse5proto6header4viewNtB5_15ScionHeaderView11set_dst_isd
FN:341,_RNvMs1_NtNtNtCsdVnVozic4xr_8sciparse5proto6header4viewNtB5_15ScionHeaderView11set_src_isd
FN:395,_RNvMs2_NtNtNtCsdVnVozic4xr_8sciparse5proto6header4viewNtB5_15ScionHeaderView4path
FN:438,_RNvMs2_NtNtNtCsdVnVozic4xr_8sciparse5proto6header4viewNtB5_15ScionHeaderView8path_mut
FN:151,_RNvMs_NtNtNtCsdVnVozic4xr_8sciparse5proto6header4viewNtB4_15ScionHeaderView13set_path_type
FN:122,_RNvMs_NtNtNtCsdVnVozic4xr_8sciparse5proto6header4viewNtB4_15ScionHeaderView14set_header_len
FN:175,_RNvMs_NtNtNtCsdVnVozic4xr_8sciparse5proto6header4viewNtB4_15ScionHeaderView17set_dst_addr_type
FN:199,_RNvMs_NtNtNtCsdVnVozic4xr_8sciparse5proto6header4viewNtB4_15ScionHeaderView17set_src_addr_type
FN:480,_RNvXs3_NtNtNtCsdVnVozic4xr_8sciparse5proto6header4viewNtB5_15ScionHeaderViewNtNtCs4eoa8Adtn6U_4core3fmt5Debug3fmt
FNDA:17587,_RNvMNtNtNtCsdVnVozic4xr_8sciparse5proto6header4viewNtB2_15ScionHeaderView10header_len
FNDA:7039,_RNvMNtNtNtCsdVnVozic4xr_8sciparse5proto6header4viewNtB2_15ScionHeaderView13dst_addr_type
FNDA:7007,_RNvMNtNtNtCsdVnVozic4xr_8sciparse5proto6header4viewNtB2_15ScionHeaderView13src_addr_type
FNDA:628,_RNvMNtNtNtCsdVnVozic4xr_8sciparse5proto6header4viewNtB2_15ScionHeaderView15path_type_range
FNDA:4463,_RNvMNtNtNtCsdVnVozic4xr_8sciparse5proto6header4viewNtB2_15ScionHeaderView9path_type
FNDA:660,_RNvMs0_NtNtNtCsdVnVozic4xr_8sciparse5proto6header4viewNtB5_15ScionHeaderView13dst_host_addr
FNDA:628,_RNvMs0_NtNtNtCsdVnVozic4xr_8sciparse5proto6header4viewNtB5_15ScionHeaderView13src_host_addr
FNDA:1256,_RNvMs0_NtNtNtCsdVnVozic4xr_8sciparse5proto6header4viewNtB5_15ScionHeaderView19src_host_addr_range
FNDA:1256,_RNvMs0_NtNtNtCsdVnVozic4xr_8sciparse5proto6header4viewNtB5_15ScionHeaderView6dst_as
FNDA:660,_RNvMs0_NtNtNtCsdVnVozic4xr_8sciparse5proto6header4viewNtB5_15ScionHeaderView6dst_ia
FNDA:1256,_RNvMs0_NtNtNtCsdVnVozic4xr_8sciparse5proto6header4viewNtB5_15ScionHeaderView6src_as
FNDA:628,_RNvMs0_NtNtNtCsdVnVozic4xr_8sciparse5proto6header4viewNtB5_15ScionHeaderView6src_ia
FNDA:1256,_RNvMs0_NtNtNtCsdVnVozic4xr_8sciparse5proto6header4viewNtB5_15ScionHeaderView7dst_isd
FNDA:1256,_RNvMs0_NtNtNtCsdVnVozic4xr_8sciparse5proto6header4viewNtB5_15ScionHeaderView7src_isd
FNDA:628,_RNvMs1_NtNtNtCsdVnVozic4xr_8sciparse5proto6header4viewNtB5_15ScionHeaderView10set_dst_as
FNDA:628,_RNvMs1_NtNtNtCsdVnVozic4xr_8sciparse5proto6header4viewNtB5_15ScionHeaderView10set_src_as
FNDA:628,_RNvMs1_NtNtNtCsdVnVozic4xr_8sciparse5proto6header4viewNtB5_15ScionHeaderView11set_dst_isd
FNDA:628,_RNvMs1_NtNtNtCsdVnVozic4xr_8sciparse5proto6header4viewNtB5_15ScionHeaderView11set_src_isd
FNDA:628,_RNvMs2_NtNtNtCsdVnVozic4xr_8sciparse5proto6header4viewNtB5_15ScionHeaderView4path
FNDA:628,_RNvMs2_NtNtNtCsdVnVozic4xr_8sciparse5proto6header4viewNtB5_15ScionHeaderView8path_mut
FNDA:628,_RNvMs_NtNtNtCsdVnVozic4xr_8sciparse5proto6header4viewNtB4_15ScionHeaderView13set_path_type
FNDA:628,_RNvMs_NtNtNtCsdVnVozic4xr_8sciparse5proto6header4viewNtB4_15ScionHeaderView14set_header_len
FNDA:628,_RNvMs_NtNtNtCsdVnVozic4xr_8sciparse5proto6header4viewNtB4_15ScionHeaderView17set_dst_addr_type
FNDA:628,_RNvMs_NtNtNtCsdVnVozic4xr_8sciparse5proto6header4viewNtB4_15ScionHeaderView17set_src_addr_type
FNDA:0,_RNvXs3_NtNtNtCsdVnVozic4xr_8sciparse5proto6header4viewNtB5_15ScionHeaderViewNtNtCs4eoa8Adtn6U_4core3fmt5Debug3fmt
FNF:25
FNH:24
DA:65,17587
DA:68,17587
DA:69,17587
DA:71,17587
DA:77,628
DA:78,628
DA:79,628
DA:83,4463
DA:85,4463
DA:86,4463
DA:87,4463
DA:91,7039
DA:93,7039
DA:94,7039
DA:95,7039
DA:99,7007
DA:101,7007
DA:102,7007
DA:103,7007
DA:122,628
DA:123,628
DA:124,628
DA:125,0
DA:127,628
DA:128,628
DA:129,0
DA:132,628
DA:136,628
DA:137,628
DA:139,628
DA:142,628
DA:151,628
DA:152,628
DA:156,628
DA:157,628
DA:159,628
DA:162,628
DA:175,628
DA:176,628
DA:180,628
DA:181,628
DA:183,628
DA:186,628
DA:199,628
DA:200,628
DA:204,628
DA:205,628
DA:207,628
DA:210,628
DA:216,660
DA:218,660
DA:219,660
DA:220,660
DA:221,660
DA:225,660
DA:226,660
DA:229,1256
DA:231,1256
DA:232,1256
DA:233,1256
DA:234,1256
DA:238,1256
DA:239,1256
DA:242,1256
DA:244,1256
DA:245,1256
DA:246,1256
DA:247,1256
DA:251,1256
DA:252,1256
DA:256,628
DA:258,628
DA:259,628
DA:260,628
DA:261,628
DA:265,628
DA:266,628
DA:269,1256
DA:271,1256
DA:272,1256
DA:273,1256
DA:274,1256
DA:278,1256
DA:279,1256
DA:282,1256
DA:284,1256
DA:285,1256
DA:286,1256
DA:287,1256
DA:291,1256
DA:292,1256
DA:298,660
DA:299,660
DA:300,660
DA:301,660
DA:302,660
DA:303,660
DA:306,660
DA:308,660
DA:309,660
DA:317,1256
DA:318,1256
DA:319,1256
DA:320,1256
DA:321,1256
DA:322,1256
DA:323,1256
DA:329,628
DA:330,628
DA:333,628
DA:335,628
DA:336,628
DA:341,628
DA:344,628
DA:345,628
DA:346,628
DA:347,628
DA:350,628
DA:353,628
DA:356,628
DA:357,628
DA:358,628
DA:359,628
DA:362,628
DA:365,628
DA:368,628
DA:369,628
DA:370,628
DA:371,628
DA:374,628
DA:377,628
DA:380,628
DA:381,628
DA:382,628
DA:383,628
DA:386,628
DA:395,628
DA:396,628
DA:397,628
DA:398,628
DA:400,628
DA:402,628
DA:403,19
DA:406,75
DA:407,75
DA:409,75
DA:413,17
DA:414,17
DA:415,17
DA:416,17
DA:417,17
DA:418,17
DA:419,17
DA:423,17
DA:425,517
DA:427,517
DA:428,517
DA:429,517
DA:430,517
DA:431,517
DA:434,628
DA:438,628
DA:439,628
DA:440,628
DA:441,628
DA:443,628
DA:445,628
DA:446,19
DA:449,75
DA:450,75
DA:452,75
DA:456,17
DA:457,17
DA:458,17
DA:459,17
DA:460,17
DA:461,17
DA:462,17
DA:463,17
DA:466,17
DA:468,517
DA:470,517
DA:471,517
DA:472,517
DA:473,517
DA:474,517
DA:477,628
DA:480,0
DA:481,0
DA:482,0
DA:483,0
DA:484,0
DA:485,0
DA:486,0
DA:487,0
DA:488,0
DA:489,0
DA:490,0
DA:491,0
DA:492,0
DA:493,0
DA:494,0
DA:495,0
DA:496,0
DA:497,0
DA:498,0
DA:499,0
DA:500,0
BRF:0
BRH:0
LF:208
LH:185
end_of_record
SF:/home/akelbsch/projects/scion/endhost/public/scion-proto/sciparse/src/proto/packet/classify.rs
FN:210,_RNCNvXs_NtNtNtNtCsdVnVozic4xr_8sciparse5proto6packet8classify5ptestNtB8_16ClassifiedPacketNtNtNtCskZahNybV1yu_8proptest9arbitrary6traits9Arbitrary14arbitrary_with0Be_
FN:226,_RNCNvXs_NtNtNtNtCsdVnVozic4xr_8sciparse5proto6packet8classify5ptestNtB8_16ClassifiedPacketNtNtNtCskZahNybV1yu_8proptest9arbitrary6traits9Arbitrary14arbitrary_withs0_0Be_
FN:218,_RNCNvXs_NtNtNtNtCsdVnVozic4xr_8sciparse5proto6packet8classify5ptestNtB8_16ClassifiedPacketNtNtNtCskZahNybV1yu_8proptest9arbitrary6traits9Arbitrary14arbitrary_withs_0Be_
FN:57,_RNvMNtNtNtCsdVnVozic4xr_8sciparse5proto6packet8classifyNtB2_20ClassifiedPacketView15dst_socket_addr
FN:88,_RNvMs_NtNtNtCsdVnVozic4xr_8sciparse5proto6packet8classifyNtB4_16ClassifiedPacket15dst_socket_addr
FN:102,_RNvMs_NtNtNtCsdVnVozic4xr_8sciparse5proto6packet8classifyNtB4_16ClassifiedPacket8into_raw
FN:120,_RNvXs0_NtNtNtCsdVnVozic4xr_8sciparse5proto6packet8classifyNtB5_16ClassifiedPacketNtNtNtBb_4core6encode10WireEncode10wire_valid
FN:138,_RNvXs0_NtNtNtCsdVnVozic4xr_8sciparse5proto6packet8classifyNtB5_16ClassifiedPacketNtNtNtBb_4core6encode10WireEncode13required_size
FN:128,_RNvXs0_NtNtNtCsdVnVozic4xr_8sciparse5proto6packet8classifyNtB5_16ClassifiedPacketNtNtNtBb_4core6encode10WireEncode16encode_unchecked
FN:203,_RNvXs_NtNtNtNtCsdVnVozic4xr_8sciparse5proto6packet8classify5ptestNtB6_16ClassifiedPacketNtNtNtCskZahNybV1yu_8proptest9arbitrary6traits9Arbitrary14arbitrary_with
FN:111,_RNvMs_NtNtNtCsdVnVozic4xr_8sciparse5proto6packet8classifyNtB4_16ClassifiedPacket6header
FN:188,_RNvXNtNtNtNtCsdVnVozic4xr_8sciparse5proto6packet8classify5ptestNtB2_31ArbitraryClassifiedPacketParamsNtNtCs4eoa8Adtn6U_4core7default7Default7default
FNDA:0,_RNCNvXs_NtNtNtNtCsdVnVozic4xr_8sciparse5proto6packet8classify5ptestNtB8_16ClassifiedPacketNtNtNtCskZahNybV1yu_8proptest9arbitrary6traits9Arbitrary14arbitrary_with0Be_
FNDA:0,_RNCNvXs_NtNtNtNtCsdVnVozic4xr_8sciparse5proto6packet8classify5ptestNtB8_16ClassifiedPacketNtNtNtCskZahNybV1yu_8proptest9arbitrary6traits9Arbitrary14arbitrary_withs0_0Be_
FNDA:0,_RNCNvXs_NtNtNtNtCsdVnVozic4xr_8sciparse5proto6packet8classify5ptestNtB8_16ClassifiedPacketNtNtNtCskZahNybV1yu_8proptest9arbitrary6traits9Arbitrary14arbitrary_withs_0Be_
FNDA:232,_RNvMNtNtNtCsdVnVozic4xr_8sciparse5proto6packet8classifyNtB2_20ClassifiedPacketView15dst_socket_addr
FNDA:0,_RNvMs_NtNtNtCsdVnVozic4xr_8sciparse5proto6packet8classifyNtB4_16ClassifiedPacket15dst_socket_addr
FNDA:0,_RNvMs_NtNtNtCsdVnVozic4xr_8sciparse5proto6packet8classifyNtB4_16ClassifiedPacket8into_raw
FNDA:0,_RNvXs0_NtNtNtCsdVnVozic4xr_8sciparse5proto6packet8classifyNtB5_16ClassifiedPacketNtNtNtBb_4core6encode10WireEncode10wire_valid
FNDA:0,_RNvXs0_NtNtNtCsdVnVozic4xr_8sciparse5proto6packet8classifyNtB5_16ClassifiedPacketNtNtNtBb_4core6encode10WireEncode13required_size
FNDA:0,_RNvXs0_NtNtNtCsdVnVozic4xr_8sciparse5proto6packet8classifyNtB5_16ClassifiedPacketNtNtNtBb_4core6encode10WireEncode16encode_unchecked
FNDA:0,_RNvXs_NtNtNtNtCsdVnVozic4xr_8sciparse5proto6packet8classify5ptestNtB6_16ClassifiedPacketNtNtNtCskZahNybV1yu_8proptest9arbitrary6traits9Arbitrary14arbitrary_with
FNDA:0,_RNvMs_NtNtNtCsdVnVozic4xr_8sciparse5proto6packet8classifyNtB4_16ClassifiedPacket6header
FNDA:0,_RNvXNtNtNtNtCsdVnVozic4xr_8sciparse5proto6packet8classify5ptestNtB2_31ArbitraryClassifiedPacketParamsNtNtCs4eoa8Adtn6U_4core7default7Default7default
FNF:12
FNH:1
DA:57,232
DA:58,232
DA:59,11
DA:60,75
DA:61,146
DA:64,32
DA:65,32
DA:67,31
DA:68,232
DA:88,0
DA:89,0
DA:90,0
DA:91,0
DA:92,0
DA:95,0
DA:96,0
DA:98,0
DA:99,0
DA:102,0
DA:103,0
DA:104,0
DA:105,0
DA:106,0
DA:108,0
DA:111,0
DA:112,0
DA:113,0
DA:114,0
DA:115,0
DA:117,0
DA:120,0
DA:121,0
DA:122,0
DA:123,0
DA:124,0
DA:126,0
DA:128,0
DA:130,0
DA:131,0
DA:132,0
DA:133,0
DA:136,0
DA:138,0
DA:139,0
DA:140,0
DA:141,0
DA:142,0
DA:144,0
DA:188,0
DA:189,0
DA:190,0
DA:191,0
DA:192,0
DA:193,0
DA:194,0
DA:195,0
DA:196,0
DA:203,0
DA:204,0
DA:205,0
DA:206,0
DA:207,0
DA:208,0
DA:209,0
DA:210,0
DA:211,0
DA:212,0
DA:213,0
DA:214,0
DA:215,0
DA:216,0
DA:217,0
DA:218,0
DA:219,0
DA:220,0
DA:221,0
DA:222,0
DA:223,0
DA:224,0
DA:225,0
DA:226,0
DA:227,0
DA:228,0
DA:229,0
DA:230,0
DA:232,0
DA:233,0
DA:235,0
DA:236,0
BRF:0
BRH:0
LF:92
LH:9
end_of_record
SF:/home/akelbsch/projects/scion/endhost/public/scion-proto/sciparse/src/proto/packet/model.rs
FN:173,_RNCNvMs1_NtNtNtCsdVnVozic4xr_8sciparse5proto6packet5modelINtB7_11ScionPacketINtNtCslL0sV90nkwC_5alloc3vec3VechEE10from_slice0Bd_
FN:168,_RNCNvMs1_NtNtNtCsdVnVozic4xr_8sciparse5proto6packet5modelINtB7_11ScionPacketINtNtCslL0sV90nkwC_5alloc3vec3VechEE9from_view0Bd_
FN:440,_RNCNvXNtNtNtNtCsdVnVozic4xr_8sciparse5proto6packet5model5ptestINtB6_11ScionPacketINtNtCslL0sV90nkwC_5alloc3vec3VechEENtNtNtCskZahNybV1yu_8proptest9arbitrary6traits9Arbitrary14arbitrary_with0Bc_
FN:487,_RNCNvXs0_NtNtNtNtCsdVnVozic4xr_8sciparse5proto6packet5model5ptestINtB9_11ScionPacketNtNtNtNtBd_7payload4scmp5model11ScmpMessageENtNtNtCskZahNybV1yu_8proptest9arbitrary6traits9Arbitrary14arbitrary_with0Bf_
FN:461,_RNCNvXs_NtNtNtNtCsdVnVozic4xr_8sciparse5proto6packet5model5ptestINtB8_11ScionPacketNtNtNtNtBc_7payload3udp5model11UdpDatagramENtNtNtCskZahNybV1yu_8proptest9arbitrary6traits9Arbitrary14arbitrary_with0Be_
FN:50,_RNvMNtNtNtCsdVnVozic4xr_8sciparse5proto6packet5modelINtB2_11ScionPacketNtNtNtNtB6_7payload3udp5model11UdpDatagramE8into_rawB8_
FN:50,_RNvMNtNtNtCsdVnVozic4xr_8sciparse5proto6packet5modelINtB2_11ScionPacketNtNtNtNtB6_7payload4scmp5model11ScmpMessageE8into_rawB8_
FN:172,_RNvMs1_NtNtNtCsdVnVozic4xr_8sciparse5proto6packet5modelINtB5_11ScionPacketINtNtCslL0sV90nkwC_5alloc3vec3VechEE10from_slice
FN:117,_RNvMs1_NtNtNtCsdVnVozic4xr_8sciparse5proto6packet5modelINtB5_11ScionPacketINtNtCslL0sV90nkwC_5alloc3vec3VechEE3new
FN:150,_RNvMs1_NtNtNtCsdVnVozic4xr_8sciparse5proto6packet5modelINtB5_11ScionPacketINtNtCslL0sV90nkwC_5alloc3vec3VechEE8classify
FN:167,_RNvMs1_NtNtNtCsdVnVozic4xr_8sciparse5proto6packet5modelINtB5_11ScionPacketINtNtCslL0sV90nkwC_5alloc3vec3VechEE9from_view
FN:196,_RNvMs3_NtNtNtCsdVnVozic4xr_8sciparse5proto6packet5modelINtB5_11ScionPacketRShE10from_slice
FN:188,_RNvMs3_NtNtNtCsdVnVozic4xr_8sciparse5proto6packet5modelINtB5_11ScionPacketRShE9from_view
FN:222,_RNvMs5_NtNtNtCsdVnVozic4xr_8sciparse5proto6packet5modelINtB5_11ScionPacketINtNtCslL0sV90nkwC_5alloc3vec3VechEE8to_ownedBb_
FN:222,_RNvMs5_NtNtNtCsdVnVozic4xr_8sciparse5proto6packet5modelINtB5_11ScionPacketRShE8to_ownedBb_
FN:262,_RNvMs6_NtNtNtCsdVnVozic4xr_8sciparse5proto6packet5modelINtB5_11ScionPacketNtNtNtNtB9_7payload4scmp5model11ScmpMessageE10from_slice
FN:282,_RNvMs6_NtNtNtCsdVnVozic4xr_8sciparse5proto6packet5modelINtB5_11ScionPacketNtNtNtNtB9_7payload4scmp5model11ScmpMessageE12try_from_raw
FN:246,_RNvMs6_NtNtNtCsdVnVozic4xr_8sciparse5proto6packet5modelINtB5_11ScionPacketNtNtNtNtB9_7payload4scmp5model11ScmpMessageE3new
FN:269,_RNvMs6_NtNtNtCsdVnVozic4xr_8sciparse5proto6packet5modelINtB5_11ScionPacketNtNtNtNtB9_7payload4scmp5model11ScmpMessageE9from_view
FN:371,_RNvMsb_NtNtNtCsdVnVozic4xr_8sciparse5proto6packet5modelINtB5_11ScionPacketNtNtNtNtB9_7payload3udp5model11UdpDatagramE10from_slice
FN:391,_RNvMsb_NtNtNtCsdVnVozic4xr_8sciparse5proto6packet5modelINtB5_11ScionPacketNtNtNtNtB9_7payload3udp5model11UdpDatagramE12try_from_raw
FN:341,_RNvMsb_NtNtNtCsdVnVozic4xr_8sciparse5proto6packet5modelINtB5_11ScionPacketNtNtNtNtB9_7payload3udp5model11UdpDatagramE3new
FN:378,_RNvMsb_NtNtNtCsdVnVozic4xr_8sciparse5proto6packet5modelINtB5_11ScionPacketNtNtNtNtB9_7payload3udp5model11UdpDatagramE9from_view
FN:435,_RNvXNtNtNtNtCsdVnVozic4xr_8sciparse5proto6packet5model5ptestINtB4_11ScionPacketINtNtCslL0sV90nkwC_5alloc3vec3VechEENtNtNtCskZahNybV1yu_8proptest9arbitrary6traits9Arbitrary14arbitrary_with
FN:82,_RNvXs0_NtNtNtCsdVnVozic4xr_8sciparse5proto6packet5modelINtB5_11ScionPacketINtNtCslL0sV90nkwC_5alloc3vec3VechEENtNtNtBb_4core6encode10WireEncode10wire_validBb_
FN:78,_RNvXs0_NtNtNtCsdVnVozic4xr_8sciparse5proto6packet5modelINtB5_11ScionPacketINtNtCslL0sV90nkwC_5alloc3vec3VechEENtNtNtBb_4core6encode10WireEncode13required_sizeBb_
FN:88,_RNvXs0_NtNtNtCsdVnVozic4xr_8sciparse5proto6packet5modelINtB5_11ScionPacketINtNtCslL0sV90nkwC_5alloc3vec3VechEENtNtNtBb_4core6encode10WireEncode16encode_uncheckedBb_
FN:82,_RNvXs0_NtNtNtCsdVnVozic4xr_8sciparse5proto6packet5modelINtB5_11ScionPacketNtNtNtNtB9_7payload3udp5model11UdpDatagramENtNtNtBb_4core6encode10WireEncode10wire_validBb_
FN:78,_RNvXs0_NtNtNtCsdVnVozic4xr_8sciparse5proto6packet5modelINtB5_11ScionPacketNtNtNtNtB9_7payload3udp5model11UdpDatagramENtNtNtBb_4core6encode10WireEncode13required_sizeBb_
FN:88,_RNvXs0_NtNtNtCsdVnVozic4xr_8sciparse5proto6packet5modelINtB5_11ScionPacketNtNtNtNtB9_7payload3udp5model11UdpDatagramENtNtNtBb_4core6encode10WireEncode16encode_uncheckedBb_
FN:82,_RNvXs0_NtNtNtCsdVnVozic4xr_8sciparse5proto6packet5modelINtB5_11ScionPacketNtNtNtNtB9_7payload4scmp5model11ScmpMessageENtNtNtBb_4core6encode10WireEncode10wire_validBb_
FN:78,_RNvXs0_NtNtNtCsdVnVozic4xr_8sciparse5proto6packet5modelINtB5_11ScionPacketNtNtNtNtB9_7payload4scmp5model11ScmpMessageENtNtNtBb_4core6encode10WireEncode13required_sizeBb_
FN:88,_RNvXs0_NtNtNtCsdVnVozic4xr_8sciparse5proto6packet5modelINtB5_11ScionPacketNtNtNtNtB9_7payload4scmp5model11ScmpMessageENtNtNtBb_4core6encode10WireEncode16encode_uncheckedBb_
FN:482,_RNvXs0_NtNtNtNtCsdVnVozic4xr_8sciparse5proto6packet5model5ptestINtB7_11ScionPacketNtNtNtNtBb_7payload4scmp5model11ScmpMessageENtNtNtCskZahNybV1yu_8proptest9arbitrary6traits9Arbitrary14arbitrary_with
FN:179,_RNvXs2_NtNtNtCsdVnVozic4xr_8sciparse5proto6packet5modelINtB5_11ScionPacketINtNtCslL0sV90nkwC_5alloc3vec3VechEEINtNtCs4eoa8Adtn6U_4core7convert7TryFromRNtNtB7_4view15ScionPacketViewE8try_from
FN:211,_RNvXs4_NtNtNtCsdVnVozic4xr_8sciparse5proto6packet5modelINtB5_11ScionPacketRShENtNtCs4eoa8Adtn6U_4core3fmt5Debug3fmt
FN:294,_RNvXs7_NtNtNtCsdVnVozic4xr_8sciparse5proto6packet5modelINtB5_11ScionPacketNtNtNtNtB9_7payload4scmp5model11ScmpMessageEINtNtCs4eoa8Adtn6U_4core7convert7TryFromRINtNtB7_4view15ScionPacketViewNtB2A_4ScmpEE8try_from
FN:299,_RNvXs8_NtNtNtCsdVnVozic4xr_8sciparse5proto6packet5modelINtB5_11ScionPacketNtNtNtNtB9_7payload4scmp5model11ScmpMessageENtNtCs4eoa8Adtn6U_4core3fmt5Debug3fmt
FN:70,_RNvXs_NtNtNtCsdVnVozic4xr_8sciparse5proto6packet5modelINtB4_11ScionPacketINtNtCslL0sV90nkwC_5alloc3vec3VechEENtNtCs4eoa8Adtn6U_4core3fmt5Debug3fmt
FN:456,_RNvXs_NtNtNtNtCsdVnVozic4xr_8sciparse5proto6packet5model5ptestINtB6_11ScionPacketNtNtNtNtBa_7payload3udp5model11UdpDatagramENtNtNtCskZahNybV1yu_8proptest9arbitrary6traits9Arbitrary14arbitrary_with
FN:325,_RNvXsa_NtNtNtCsdVnVozic4xr_8sciparse5proto6packet5modelINtB5_11ScionPacketRNtNtNtNtB9_7payload4scmp5model11ScmpMessageENtNtCs4eoa8Adtn6U_4core3fmt5Debug3fmt
FN:403,_RNvXsc_NtNtNtCsdVnVozic4xr_8sciparse5proto6packet5modelINtB5_11ScionPacketNtNtNtNtB9_7payload3udp5model11UdpDatagramEINtNtCs4eoa8Adtn6U_4core7convert7TryFromRINtNtB7_4view15ScionPacketViewNtB2z_3UdpEE8try_from
FN:408,_RNvXsd_NtNtNtCsdVnVozic4xr_8sciparse5proto6packet5modelINtB5_11ScionPacketNtNtNtNtB9_7payload3udp5model11UdpDatagramENtNtCs4eoa8Adtn6U_4core3fmt5Debug3fmt
FN:230,_RNvMs5_NtNtNtCsdVnVozic4xr_8sciparse5proto6packet5modelINtB5_11ScionPacketpE6to_refBb_
FN:311,_RNvMs9_NtNtNtCsdVnVozic4xr_8sciparse5proto6packet5modelINtB5_11ScionPacketRNtNtNtNtB9_7payload4scmp5model11ScmpMessageE14new_from_parts
FN:357,_RNvMsb_NtNtNtCsdVnVozic4xr_8sciparse5proto6packet5modelINtB5_11ScionPacketNtNtNtNtB9_7payload3udp5model11UdpDatagramE14new_from_parts
FNDA:0,_RNCNvMs1_NtNtNtCsdVnVozic4xr_8sciparse5proto6packet5modelINtB7_11ScionPacketINtNtCslL0sV90nkwC_5alloc3vec3VechEE10from_slice0Bd_
FNDA:0,_RNCNvMs1_NtNtNtCsdVnVozic4xr_8sciparse5proto6packet5modelINtB7_11ScionPacketINtNtCslL0sV90nkwC_5alloc3vec3VechEE9from_view0Bd_
FNDA:0,_RNCNvXNtNtNtNtCsdVnVozic4xr_8sciparse5proto6packet5model5ptestINtB6_11ScionPacketINtNtCslL0sV90nkwC_5alloc3vec3VechEENtNtNtCskZahNybV1yu_8proptest9arbitrary6traits9Arbitrary14arbitrary_with0Bc_
FNDA:0,_RNCNvXs0_NtNtNtNtCsdVnVozic4xr_8sciparse5proto6packet5model5ptestINtB9_11ScionPacketNtNtNtNtBd_7payload4scmp5model11ScmpMessageENtNtNtCskZahNybV1yu_8proptest9arbitrary6traits9Arbitrary14arbitrary_with0Bf_
FNDA:0,_RNCNvXs_NtNtNtNtCsdVnVozic4xr_8sciparse5proto6packet5model5ptestINtB8_11ScionPacketNtNtNtNtBc_7payload3udp5model11UdpDatagramENtNtNtCskZahNybV1yu_8proptest9arbitrary6traits9Arbitrary14arbitrary_with0Be_
FNDA:0,_RNvMNtNtNtCsdVnVozic4xr_8sciparse5proto6packet5modelINtB2_11ScionPacketNtNtNtNtB6_7payload3udp5model11UdpDatagramE8into_rawB8_
FNDA:0,_RNvMNtNtNtCsdVnVozic4xr_8sciparse5proto6packet5modelINtB2_11ScionPacketNtNtNtNtB6_7payload4scmp5model11ScmpMessageE8into_rawB8_
FNDA:0,_RNvMs1_NtNtNtCsdVnVozic4xr_8sciparse5proto6packet5modelINtB5_11ScionPacketINtNtCslL0sV90nkwC_5alloc3vec3VechEE10from_slice
FNDA:0,_RNvMs1_NtNtNtCsdVnVozic4xr_8sciparse5proto6packet5modelINtB5_11ScionPacketINtNtCslL0sV90nkwC_5alloc3vec3VechEE3new
FNDA:0,_RNvMs1_NtNtNtCsdVnVozic4xr_8sciparse5proto6packet5modelINtB5_11ScionPacketINtNtCslL0sV90nkwC_5alloc3vec3VechEE8classify
FNDA:0,_RNvMs1_NtNtNtCsdVnVozic4xr_8sciparse5proto6packet5modelINtB5_11ScionPacketINtNtCslL0sV90nkwC_5alloc3vec3VechEE9from_view
FNDA:0,_RNvMs3_NtNtNtCsdVnVozic4xr_8sciparse5proto6packet5modelINtB5_11ScionPacketRShE10from_slice
FNDA:0,_RNvMs3_NtNtNtCsdVnVozic4xr_8sciparse5proto6packet5modelINtB5_11ScionPacketRShE9from_view
FNDA:0,_RNvMs5_NtNtNtCsdVnVozic4xr_8sciparse5proto6packet5modelINtB5_11ScionPacketINtNtCslL0sV90nkwC_5alloc3vec3VechEE8to_ownedBb_
FNDA:0,_RNvMs5_NtNtNtCsdVnVozic4xr_8sciparse5proto6packet5modelINtB5_11ScionPacketRShE8to_ownedBb_
FNDA:0,_RNvMs6_NtNtNtCsdVnVozic4xr_8sciparse5proto6packet5modelINtB5_11ScionPacketNtNtNtNtB9_7payload4scmp5model11ScmpMessageE10from_slice
FNDA:0,_RNvMs6_NtNtNtCsdVnVozic4xr_8sciparse5proto6packet5modelINtB5_11ScionPacketNtNtNtNtB9_7payload4scmp5model11ScmpMessageE12try_from_raw
FNDA:0,_RNvMs6_NtNtNtCsdVnVozic4xr_8sciparse5proto6packet5modelINtB5_11ScionPacketNtNtNtNtB9_7payload4scmp5model11ScmpMessageE3new
FNDA:0,_RNvMs6_NtNtNtCsdVnVozic4xr_8sciparse5proto6packet5modelINtB5_11ScionPacketNtNtNtNtB9_7payload4scmp5model11ScmpMessageE9from_view
FNDA:0,_RNvMsb_NtNtNtCsdVnVozic4xr_8sciparse5proto6packet5modelINtB5_11ScionPacketNtNtNtNtB9_7payload3udp5model11UdpDatagramE10from_slice
FNDA:0,_RNvMsb_NtNtNtCsdVnVozic4xr_8sciparse5proto6packet5modelINtB5_11ScionPacketNtNtNtNtB9_7payload3udp5model11UdpDatagramE12try_from_raw
FNDA:0,_RNvMsb_NtNtNtCsdVnVozic4xr_8sciparse5proto6packet5modelINtB5_11ScionPacketNtNtNtNtB9_7payload3udp5model11UdpDatagramE3new
FNDA:0,_RNvMsb_NtNtNtCsdVnVozic4xr_8sciparse5proto6packet5modelINtB5_11ScionPacketNtNtNtNtB9_7payload3udp5model11UdpDatagramE9from_view
FNDA:0,_RNvXNtNtNtNtCsdVnVozic4xr_8sciparse5proto6packet5model5ptestINtB4_11ScionPacketINtNtCslL0sV90nkwC_5alloc3vec3VechEENtNtNtCskZahNybV1yu_8proptest9arbitrary6traits9Arbitrary14arbitrary_with
FNDA:0,_RNvXs0_NtNtNtCsdVnVozic4xr_8sciparse5proto6packet5modelINtB5_11ScionPacketINtNtCslL0sV90nkwC_5alloc3vec3VechEENtNtNtBb_4core6encode10WireEncode10wire_validBb_
FNDA:0,_RNvXs0_NtNtNtCsdVnVozic4xr_8sciparse5proto6packet5modelINtB5_11ScionPacketINtNtCslL0sV90nkwC_5alloc3vec3VechEENtNtNtBb_4core6encode10WireEncode13required_sizeBb_
FNDA:0,_RNvXs0_NtNtNtCsdVnVozic4xr_8sciparse5proto6packet5modelINtB5_11ScionPacketINtNtCslL0sV90nkwC_5alloc3vec3VechEENtNtNtBb_4core6encode10WireEncode16encode_uncheckedBb_
FNDA:0,_RNvXs0_NtNtNtCsdVnVozic4xr_8sciparse5proto6packet5modelINtB5_11ScionPacketNtNtNtNtB9_7payload3udp5model11UdpDatagramENtNtNtBb_4core6encode10WireEncode10wire_validBb_
FNDA:0,_RNvXs0_NtNtNtCsdVnVozic4xr_8sciparse5proto6packet5modelINtB5_11ScionPacketNtNtNtNtB9_7payload3udp5model11UdpDatagramENtNtNtBb_4core6encode10WireEncode13required_sizeBb_
FNDA:0,_RNvXs0_NtNtNtCsdVnVozic4xr_8sciparse5proto6packet5modelINtB5_11ScionPacketNtNtNtNtB9_7payload3udp5model11UdpDatagramENtNtNtBb_4core6encode10WireEncode16encode_uncheckedBb_
FNDA:0,_RNvXs0_NtNtNtCsdVnVozic4xr_8sciparse5proto6packet5modelINtB5_11ScionPacketNtNtNtNtB9_7payload4scmp5model11ScmpMessageENtNtNtBb_4core6encode10WireEncode10wire_validBb_
FNDA:0,_RNvXs0_NtNtNtCsdVnVozic4xr_8sciparse5proto6packet5modelINtB5_11ScionPacketNtNtNtNtB9_7payload4scmp5model11ScmpMessageENtNtNtBb_4core6encode10WireEncode13required_sizeBb_
FNDA:0,_RNvXs0_NtNtNtCsdVnVozic4xr_8sciparse5proto6packet5modelINtB5_11ScionPacketNtNtNtNtB9_7payload4scmp5model11ScmpMessageENtNtNtBb_4core6encode10WireEncode16encode_uncheckedBb_
FNDA:0,_RNvXs0_NtNtNtNtCsdVnVozic4xr_8sciparse5proto6packet5model5ptestINtB7_11ScionPacketNtNtNtNtBb_7payload4scmp5model11ScmpMessageENtNtNtCskZahNybV1yu_8proptest9arbitrary6traits9Arbitrary14arbitrary_with
FNDA:0,_RNvXs2_NtNtNtCsdVnVozic4xr_8sciparse5proto6packet5modelINtB5_11ScionPacketINtNtCslL0sV90nkwC_5alloc3vec3VechEEINtNtCs4eoa8Adtn6U_4core7convert7TryFromRNtNtB7_4view15ScionPacketViewE8try_from
FNDA:0,_RNvXs4_NtNtNtCsdVnVozic4xr_8sciparse5proto6packet5modelINtB5_11ScionPacketRShENtNtCs4eoa8Adtn6U_4core3fmt5Debug3fmt
FNDA:0,_RNvXs7_NtNtNtCsdVnVozic4xr_8sciparse5proto6packet5modelINtB5_11ScionPacketNtNtNtNtB9_7payload4scmp5model11ScmpMessageEINtNtCs4eoa8Adtn6U_4core7convert7TryFromRINtNtB7_4view15ScionPacketViewNtB2A_4ScmpEE8try_from
FNDA:0,_RNvXs8_NtNtNtCsdVnVozic4xr_8sciparse5proto6packet5modelINtB5_11ScionPacketNtNtNtNtB9_7payload4scmp5model11ScmpMessageENtNtCs4eoa8Adtn6U_4core3fmt5Debug3fmt
FNDA:0,_RNvXs_NtNtNtCsdVnVozic4xr_8sciparse5proto6packet5modelINtB4_11ScionPacketINtNtCslL0sV90nkwC_5alloc3vec3VechEENtNtCs4eoa8Adtn6U_4core3fmt5Debug3fmt
FNDA:0,_RNvXs_NtNtNtNtCsdVnVozic4xr_8sciparse5proto6packet5model5ptestINtB6_11ScionPacketNtNtNtNtBa_7payload3udp5model11UdpDatagramENtNtNtCskZahNybV1yu_8proptest9arbitrary6traits9Arbitrary14arbitrary_with
FNDA:0,_RNvXsa_NtNtNtCsdVnVozic4xr_8sciparse5proto6packet5modelINtB5_11ScionPacketRNtNtNtNtB9_7payload4scmp5model11ScmpMessageENtNtCs4eoa8Adtn6U_4core3fmt5Debug3fmt
FNDA:0,_RNvXsc_NtNtNtCsdVnVozic4xr_8sciparse5proto6packet5modelINtB5_11ScionPacketNtNtNtNtB9_7payload3udp5model11UdpDatagramEINtNtCs4eoa8Adtn6U_4core7convert7TryFromRINtNtB7_4view15ScionPacketViewNtB2z_3UdpEE8try_from
FNDA:0,_RNvXsd_NtNtNtCsdVnVozic4xr_8sciparse5proto6packet5modelINtB5_11ScionPacketNtNtNtNtB9_7payload3udp5model11UdpDatagramENtNtCs4eoa8Adtn6U_4core3fmt5Debug3fmt
FNDA:0,_RNvMs5_NtNtNtCsdVnVozic4xr_8sciparse5proto6packet5modelINtB5_11ScionPacketpE6to_refBb_
FNDA:0,_RNvMs9_NtNtNtCsdVnVozic4xr_8sciparse5proto6packet5modelINtB5_11ScionPacketRNtNtNtNtB9_7payload4scmp5model11ScmpMessageE14new_from_parts
FNDA:0,_RNvMsb_NtNtNtCsdVnVozic4xr_8sciparse5proto6packet5modelINtB5_11ScionPacketNtNtNtNtB9_7payload3udp5model11UdpDatagramE14new_from_parts
FNF:38
FNH:0
DA:50,0
DA:51,0
DA:52,0
DA:53,0
DA:54,0
DA:55,0
DA:56,0
DA:58,0
DA:60,0
DA:63,0
DA:64,0
DA:65,0
DA:66,0
DA:67,0
DA:70,0
DA:71,0
DA:72,0
DA:73,0
DA:74,0
DA:75,0
DA:78,0
DA:79,0
DA:80,0
DA:82,0
DA:83,0
DA:84,0
DA:85,0
DA:86,0
DA:88,0
DA:89,0
DA:90,0
DA:92,0
DA:93,0
DA:94,0
DA:95,0
DA:96,0
DA:97,0
DA:98,0
DA:99,0
DA:100,0
DA:101,0
DA:102,0
DA:103,0
DA:105,0
DA:106,0
DA:117,0
DA:118,0
DA:119,0
DA:120,0
DA:121,0
DA:122,0
DA:123,0
DA:124,0
DA:125,0
DA:126,0
DA:127,0
DA:128,0
DA:129,0
DA:130,0
DA:131,0
DA:132,0
DA:133,0
DA:134,0
DA:135,0
DA:136,0
DA:150,0
DA:151,0
DA:153,0
DA:154,0
DA:155,0
DA:158,0
DA:159,0
DA:160,0
DA:162,0
DA:164,0
DA:167,0
DA:168,0
DA:169,0
DA:172,0
DA:173,0
DA:174,0
DA:179,0
DA:180,0
DA:181,0
DA:188,0
DA:190,0
DA:191,0
DA:193,0
DA:196,0
DA:197,0
DA:198,0
DA:199,0
DA:200,0
DA:201,0
DA:202,0
DA:203,0
DA:204,0
DA:205,0
DA:207,0
DA:208,0
DA:211,0
DA:212,0
DA:213,0
DA:214,0
DA:215,0
DA:216,0
DA:222,0
DA:223,0
DA:224,0
DA:225,0
DA:226,0
DA:227,0
DA:230,0
DA:231,0
DA:232,0
DA:233,0
DA:234,0
DA:235,0
DA:246,0
DA:247,0
DA:248,0
DA:249,0
DA:250,0
DA:251,0
DA:252,0
DA:253,0
DA:254,0
DA:255,0
DA:256,0
DA:257,0
DA:258,0
DA:259,0
DA:262,0
DA:263,0
DA:264,0
DA:265,0
DA:266,0
DA:269,0
DA:270,0
DA:271,0
DA:273,0
DA:274,0
DA:282,0
DA:283,0
DA:284,0
DA:285,0
DA:286,0
DA:287,0
DA:288,0
DA:289,0
DA:294,0
DA:295,0
DA:296,0
DA:299,0
DA:300,0
DA:301,0
DA:302,0
DA:303,0
DA:304,0
DA:311,0
DA:312,0
DA:313,0
DA:314,0
DA:315,0
DA:316,0
DA:317,0
DA:318,0
DA:319,0
DA:320,0
DA:321,0
DA:322,0
DA:325,0
DA:326,0
DA:327,0
DA:328,0
DA:329,0
DA:330,0
DA:341,0
DA:342,0
DA:343,0
DA:344,0
DA:345,0
DA:346,0
DA:347,0
DA:348,0
DA:349,0
DA:350,0
DA:351,0
DA:352,0
DA:353,0
DA:354,0
DA:357,0
DA:358,0
DA:359,0
DA:360,0
DA:361,0
DA:362,0
DA:363,0
DA:364,0
DA:365,0
DA:366,0
DA:367,0
DA:368,0
DA:371,0
DA:372,0
DA:373,0
DA:374,0
DA:375,0
DA:378,0
DA:379,0
DA:380,0
DA:382,0
DA:383,0
DA:391,0
DA:392,0
DA:393,0
DA:394,0
DA:395,0
DA:396,0
DA:397,0
DA:398,0
DA:403,0
DA:404,0
DA:405,0
DA:408,0
DA:409,0
DA:410,0
DA:411,0
DA:412,0
DA:413,0
DA:435,0
DA:436,0
DA:437,0
DA:438,0
DA:439,0
DA:440,0
DA:441,0
DA:442,0
DA:456,0
DA:457,0
DA:458,0
DA:459,0
DA:460,0
DA:461,0
DA:462,0
DA:463,0
DA:464,0
DA:465,0
DA:466,0
DA:482,0
DA:483,0
DA:484,0
DA:485,0
DA:486,0
DA:487,0
DA:488,0
DA:489,0
DA:490,0
DA:491,0
DA:492,0
BRF:0
BRH:0
LF:265
LH:0
end_of_record
SF:/home/akelbsch/projects/scion/endhost/public/scion-proto/sciparse/src/proto/packet/view.rs
FN:82,_RNvXs_NtNtNtCsdVnVozic4xr_8sciparse5proto6packet4viewNtB4_15ScionPacketViewNtNtNtBa_4core4view4View17has_required_size
FN:98,_RNvXs_NtNtNtCsdVnVozic4xr_8sciparse5proto6packet4viewNtB4_15ScionPacketViewNtNtNtBa_4core4view4View24from_mut_slice_unchecked
FN:52,_RNvMNtNtNtCsdVnVozic4xr_8sciparse5proto6packet4viewINtB2_15ScionPacketViewNtB2_3UdpE10header_mutB8_
FN:42,_RNvMNtNtNtCsdVnVozic4xr_8sciparse5proto6packet4viewINtB2_15ScionPacketViewNtB2_3UdpE6headerB8_
FN:62,_RNvMNtNtNtCsdVnVozic4xr_8sciparse5proto6packet4viewINtB2_15ScionPacketViewNtB2_3UdpE7payloadB8_
FN:52,_RNvMNtNtNtCsdVnVozic4xr_8sciparse5proto6packet4viewINtB2_15ScionPacketViewNtB2_4ScmpE10header_mutB8_
FN:42,_RNvMNtNtNtCsdVnVozic4xr_8sciparse5proto6packet4viewINtB2_15ScionPacketViewNtB2_4ScmpE6headerB8_
FN:62,_RNvMNtNtNtCsdVnVozic4xr_8sciparse5proto6packet4viewINtB2_15ScionPacketViewNtB2_4ScmpE7payloadB8_
FN:52,_RNvMNtNtNtCsdVnVozic4xr_8sciparse5proto6packet4viewNtB2_15ScionPacketView10header_mutB8_
FN:42,_RNvMNtNtNtCsdVnVozic4xr_8sciparse5proto6packet4viewNtB2_15ScionPacketView6headerB8_
FN:62,_RNvMNtNtNtCsdVnVozic4xr_8sciparse5proto6packet4viewNtB2_15ScionPacketView7payloadB8_
FN:146,_RNvMs1_NtNtNtCsdVnVozic4xr_8sciparse5proto6packet4viewNtB5_15ScionPacketView11payload_mut
FN:191,_RNvMs1_NtNtNtCsdVnVozic4xr_8sciparse5proto6packet4viewNtB5_15ScionPacketView12try_into_udp
FN:213,_RNvMs1_NtNtNtCsdVnVozic4xr_8sciparse5proto6packet4viewNtB5_15ScionPacketView13try_into_scmp
FN:140,_RNvMs1_NtNtNtCsdVnVozic4xr_8sciparse5proto6packet4viewNtB5_15ScionPacketView16parse_from_slice
FN:197,_RNvMs1_NtNtNtCsdVnVozic4xr_8sciparse5proto6packet4viewNtB5_15ScionPacketView16try_into_udp_mut
FN:219,_RNvMs1_NtNtNtCsdVnVozic4xr_8sciparse5proto6packet4viewNtB5_15ScionPacketView17try_into_scmp_mut
FN:203,_RNvMs1_NtNtNtCsdVnVozic4xr_8sciparse5proto6packet4viewNtB5_15ScionPacketView18try_into_udp_owned
FN:225,_RNvMs1_NtNtNtCsdVnVozic4xr_8sciparse5proto6packet4viewNtB5_15ScionPacketView19try_into_scmp_owned
FN:171,_RNvMs1_NtNtNtCsdVnVozic4xr_8sciparse5proto6packet4viewNtB5_15ScionPacketView8classify
FN:325,_RNvMs4_NtNtNtCsdVnVozic4xr_8sciparse5proto6packet4viewINtB5_15ScionPacketViewNtB5_3UdpE12into_raw_mut
FN:290,_RNvMs4_NtNtNtCsdVnVozic4xr_8sciparse5proto6packet4viewINtB5_15ScionPacketViewNtB5_3UdpE12try_from_raw
FN:298,_RNvMs4_NtNtNtCsdVnVozic4xr_8sciparse5proto6packet4viewINtB5_15ScionPacketViewNtB5_3UdpE16try_from_raw_mut
FN:312,_RNvMs4_NtNtNtCsdVnVozic4xr_8sciparse5proto6packet4viewINtB5_15ScionPacketViewNtB5_3UdpE18try_from_raw_owned
FN:338,_RNvMs4_NtNtNtCsdVnVozic4xr_8sciparse5proto6packet4viewINtB5_15ScionPacketViewNtB5_3UdpE3udp
FN:319,_RNvMs4_NtNtNtCsdVnVozic4xr_8sciparse5proto6packet4viewINtB5_15ScionPacketViewNtB5_3UdpE8into_raw
FN:480,_RNvMsd_NtNtNtCsdVnVozic4xr_8sciparse5proto6packet4viewINtB5_15ScionPacketViewNtB5_4ScmpE12into_raw_mut
FN:440,_RNvMsd_NtNtNtCsdVnVozic4xr_8sciparse5proto6packet4viewINtB5_15ScionPacketViewNtB5_4ScmpE12try_from_raw
FN:448,_RNvMsd_NtNtNtCsdVnVozic4xr_8sciparse5proto6packet4viewINtB5_15ScionPacketViewNtB5_4ScmpE16try_from_raw_mut
FN:462,_RNvMsd_NtNtNtCsdVnVozic4xr_8sciparse5proto6packet4viewINtB5_15ScionPacketViewNtB5_4ScmpE18try_from_raw_owned
FN:492,_RNvMsd_NtNtNtCsdVnVozic4xr_8sciparse5proto6packet4viewINtB5_15ScionPacketViewNtB5_4ScmpE4scmp
FN:470,_RNvMsd_NtNtNtCsdVnVozic4xr_8sciparse5proto6packet4viewINtB5_15ScionPacketViewNtB5_4ScmpE8into_raw
FN:127,_RNvXs0_NtNtNtCsdVnVozic4xr_8sciparse5proto6packet4viewNtB5_15ScionPacketViewNtNtCs4eoa8Adtn6U_4core3fmt5Debug3fmt
FN:264,_RNvXs2_NtNtNtCsdVnVozic4xr_8sciparse5proto6packet4viewINtB5_15ScionPacketViewNtB5_3UdpENtNtNtBb_4core4view4View12as_bytes_mut
FN:236,_RNvXs2_NtNtNtCsdVnVozic4xr_8sciparse5proto6packet4viewINtB5_15ScionPacketViewNtB5_3UdpENtNtNtBb_4core4view4View17has_required_size
FN:258,_RNvXs2_NtNtNtCsdVnVozic4xr_8sciparse5proto6packet4viewINtB5_15ScionPacketViewNtB5_3UdpENtNtNtBb_4core4view4View20from_boxed_unchecked
FN:246,_RNvXs2_NtNtNtCsdVnVozic4xr_8sciparse5proto6packet4viewINtB5_15ScionPacketViewNtB5_3UdpENtNtNtBb_4core4view4View20from_slice_unchecked
FN:252,_RNvXs2_NtNtNtCsdVnVozic4xr_8sciparse5proto6packet4viewINtB5_15ScionPacketViewNtB5_3UdpENtNtNtBb_4core4view4View24from_mut_slice_unchecked
FN:275,_RNvXs2_NtNtNtCsdVnVozic4xr_8sciparse5proto6packet4viewINtB5_15ScionPacketViewNtB5_3UdpENtNtNtBb_4core4view4View8as_bytes
FN:280,_RNvXs3_NtNtNtCsdVnVozic4xr_8sciparse5proto6packet4viewINtB5_15ScionPacketViewNtB5_3UdpENtNtCs4eoa8Adtn6U_4core3fmt5Debug3fmt
FN:348,_RNvXs5_NtNtNtCsdVnVozic4xr_8sciparse5proto6packet4viewRINtB5_15ScionPacketViewNtB5_3UdpEINtNtCs4eoa8Adtn6U_4core7convert7TryFromRBS_E8try_from
FN:355,_RNvXs6_NtNtNtCsdVnVozic4xr_8sciparse5proto6packet4viewQINtB5_15ScionPacketViewNtB5_3UdpEINtNtCs4eoa8Adtn6U_4core7convert7TryFromQBS_E8try_from
FN:362,_RNvXs7_NtNtNtCsdVnVozic4xr_8sciparse5proto6packet4viewINtNtCslL0sV90nkwC_5alloc5boxed3BoxINtB5_15ScionPacketViewNtB5_3UdpEEINtNtCs4eoa8Adtn6U_4core7convert7TryFromIBR_B1q_EE8try_from
FN:367,_RNvXs8_NtNtNtCsdVnVozic4xr_8sciparse5proto6packet4viewRNtB5_15ScionPacketViewINtNtCs4eoa8Adtn6U_4core7convert4FromRIBR_NtB5_3UdpEE4from
FN:110,_RNvXs_NtNtNtCsdVnVozic4xr_8sciparse5proto6packet4viewNtB4_15ScionPacketViewNtNtNtBa_4core4view4View12as_bytes_mut
FN:115,_RNvXs_NtNtNtCsdVnVozic4xr_8sciparse5proto6packet4viewNtB4_15ScionPacketViewNtNtNtBa_4core4view4View14as_bytes_boxed
FN:92,_RNvXs_NtNtNtCsdVnVozic4xr_8sciparse5proto6packet4viewNtB4_15ScionPacketViewNtNtNtBa_4core4view4View20from_slice_unchecked
FN:122,_RNvXs_NtNtNtCsdVnVozic4xr_8sciparse5proto6packet4viewNtB4_15ScionPacketViewNtNtNtBa_4core4view4View8as_bytes
FN:414,_RNvXsb_NtNtNtCsdVnVozic4xr_8sciparse5proto6packet4viewINtB5_15ScionPacketViewNtB5_4ScmpENtNtNtBb_4core4view4View12as_bytes_mut
FN:386,_RNvXsb_NtNtNtCsdVnVozic4xr_8sciparse5proto6packet4viewINtB5_15ScionPacketViewNtB5_4ScmpENtNtNtBb_4core4view4View17has_required_size
FN:408,_RNvXsb_NtNtNtCsdVnVozic4xr_8sciparse5proto6packet4viewINtB5_15ScionPacketViewNtB5_4ScmpENtNtNtBb_4core4view4View20from_boxed_unchecked
FN:396,_RNvXsb_NtNtNtCsdVnVozic4xr_8sciparse5proto6packet4viewINtB5_15ScionPacketViewNtB5_4ScmpENtNtNtBb_4core4view4View20from_slice_unchecked
FN:402,_RNvXsb_NtNtNtCsdVnVozic4xr_8sciparse5proto6packet4viewINtB5_15ScionPacketViewNtB5_4ScmpENtNtNtBb_4core4view4View24from_mut_slice_unchecked
FN:425,_RNvXsb_NtNtNtCsdVnVozic4xr_8sciparse5proto6packet4viewINtB5_15ScionPacketViewNtB5_4ScmpENtNtNtBb_4core4view4View8as_bytes
FN:430,_RNvXsc_NtNtNtCsdVnVozic4xr_8sciparse5proto6packet4viewINtB5_15ScionPacketViewNtB5_4ScmpENtNtCs4eoa8Adtn6U_4core3fmt5Debug3fmt
FN:502,_RNvXse_NtNtNtCsdVnVozic4xr_8sciparse5proto6packet4viewRINtB5_15ScionPacketViewNtB5_4ScmpEINtNtCs4eoa8Adtn6U_4core7convert7TryFromRBS_E8try_from
FN:509,_RNvXsf_NtNtNtCsdVnVozic4xr_8sciparse5proto6packet4viewQINtB5_15ScionPacketViewNtB5_4ScmpEINtNtCs4eoa8Adtn6U_4core7convert7TryFromQBS_E8try_from
FN:516,_RNvXsg_NtNtNtCsdVnVozic4xr_8sciparse5proto6packet4viewINtNtCslL0sV90nkwC_5alloc5boxed3BoxINtB5_15ScionPacketViewNtB5_4ScmpEEINtNtCs4eoa8Adtn6U_4core7convert7TryFromIBR_B1q_EE8try_from
FN:521,_RNvXsh_NtNtNtCsdVnVozic4xr_8sciparse5proto6packet4viewRNtB5_15ScionPacketViewINtNtCs4eoa8Adtn6U_4core7convert4FromRIBR_NtB5_4ScmpEE4from
FN:331,_RNvMs4_NtNtNtCsdVnVozic4xr_8sciparse5proto6packet4viewINtB5_15ScionPacketViewNtB5_3UdpE14into_raw_owned
FN:485,_RNvMsd_NtNtNtCsdVnVozic4xr_8sciparse5proto6packet4viewINtB5_15ScionPacketViewNtB5_4ScmpE14into_raw_owned
FN:269,_RNvXs2_NtNtNtCsdVnVozic4xr_8sciparse5proto6packet4viewINtB5_15ScionPacketViewNtB5_3UdpENtNtNtBb_4core4view4View14as_bytes_boxed
FN:372,_RNvXs9_NtNtNtCsdVnVozic4xr_8sciparse5proto6packet4viewQNtB5_15ScionPacketViewINtNtCs4eoa8Adtn6U_4core7convert4FromQIBR_NtB5_3UdpEE4from
FN:104,_RNvXs_NtNtNtCsdVnVozic4xr_8sciparse5proto6packet4viewNtB4_15ScionPacketViewNtNtNtBa_4core4view4View20from_boxed_unchecked
FN:377,_RNvXsa_NtNtNtCsdVnVozic4xr_8sciparse5proto6packet4viewINtNtCslL0sV90nkwC_5alloc5boxed3BoxNtB5_15ScionPacketViewEINtNtCs4eoa8Adtn6U_4core7convert4FromIBR_IB1p_NtB5_3UdpEEE4from
FN:419,_RNvXsb_NtNtNtCsdVnVozic4xr_8sciparse5proto6packet4viewINtB5_15ScionPacketViewNtB5_4ScmpENtNtNtBb_4core4view4View14as_bytes_boxed
FN:526,_RNvXsi_NtNtNtCsdVnVozic4xr_8sciparse5proto6packet4viewINtNtCslL0sV90nkwC_5alloc5boxed3BoxNtB5_15ScionPacketViewEINtNtCs4eoa8Adtn6U_4core7convert4FromIBR_IB1p_NtB5_4ScmpEEE4from
FNDA:2111,_RNvXs_NtNtNtCsdVnVozic4xr_8sciparse5proto6packet4viewNtB4_15ScionPacketViewNtNtNtBa_4core4view4View17has_required_size
FNDA:628,_RNvXs_NtNtNtCsdVnVozic4xr_8sciparse5proto6packet4viewNtB4_15ScionPacketViewNtNtNtBa_4core4view4View24from_mut_slice_unchecked
FNDA:148,_RNvMNtNtNtCsdVnVozic4xr_8sciparse5proto6packet4viewINtB2_15ScionPacketViewNtB2_3UdpE10header_mutB8_
FNDA:1080,_RNvMNtNtNtCsdVnVozic4xr_8sciparse5proto6packet4viewINtB2_15ScionPacketViewNtB2_3UdpE6headerB8_
FNDA:773,_RNvMNtNtNtCsdVnVozic4xr_8sciparse5proto6packet4viewINtB2_15ScionPacketViewNtB2_3UdpE7payloadB8_
FNDA:191,_RNvMNtNtNtCsdVnVozic4xr_8sciparse5proto6packet4viewINtB2_15ScionPacketViewNtB2_4ScmpE10header_mutB8_
FNDA:1637,_RNvMNtNtNtCsdVnVozic4xr_8sciparse5proto6packet4viewINtB2_15ScionPacketViewNtB2_4ScmpE6headerB8_
FNDA:1180,_RNvMNtNtNtCsdVnVozic4xr_8sciparse5proto6packet4viewINtB2_15ScionPacketViewNtB2_4ScmpE7payloadB8_
FNDA:289,_RNvMNtNtNtCsdVnVozic4xr_8sciparse5proto6packet4viewNtB2_15ScionPacketView10header_mutB8_
FNDA:4707,_RNvMNtNtNtCsdVnVozic4xr_8sciparse5proto6packet4viewNtB2_15ScionPacketView6headerB8_
FNDA:2491,_RNvMNtNtNtCsdVnVozic4xr_8sciparse5proto6packet4viewNtB2_15ScionPacketView7payloadB8_
FNDA:628,_RNvMs1_NtNtNtCsdVnVozic4xr_8sciparse5proto6packet4viewNtB5_15ScionPacketView11payload_mut
FNDA:289,_RNvMs1_NtNtNtCsdVnVozic4xr_8sciparse5proto6packet4viewNtB5_15ScionPacketView12try_into_udp
FNDA:289,_RNvMs1_NtNtNtCsdVnVozic4xr_8sciparse5proto6packet4viewNtB5_15ScionPacketView13try_into_scmp
FNDA:0,_RNvMs1_NtNtNtCsdVnVozic4xr_8sciparse5proto6packet4viewNtB5_15ScionPacketView16parse_from_slice
FNDA:289,_RNvMs1_NtNtNtCsdVnVozic4xr_8sciparse5proto6packet4viewNtB5_15ScionPacketView16try_into_udp_mut
FNDA:289,_RNvMs1_NtNtNtCsdVnVozic4xr_8sciparse5proto6packet4viewNtB5_15ScionPacketView17try_into_scmp_mut
FNDA:0,_RNvMs1_NtNtNtCsdVnVozic4xr_8sciparse5proto6packet4viewNtB5_15ScionPacketView18try_into_udp_owned
FNDA:0,_RNvMs1_NtNtNtCsdVnVozic4xr_8sciparse5proto6packet4viewNtB5_15ScionPacketView19try_into_scmp_owned
FNDA:289,_RNvMs1_NtNtNtCsdVnVozic4xr_8sciparse5proto6packet4viewNtB5_15ScionPacketView8classify
FNDA:148,_RNvMs4_NtNtNtCsdVnVozic4xr_8sciparse5proto6packet4viewINtB5_15ScionPacketViewNtB5_3UdpE12into_raw_mut
FNDA:323,_RNvMs4_NtNtNtCsdVnVozic4xr_8sciparse5proto6packet4viewINtB5_15ScionPacketViewNtB5_3UdpE12try_from_raw
FNDA:289,_RNvMs4_NtNtNtCsdVnVozic4xr_8sciparse5proto6packet4viewINtB5_15ScionPacketViewNtB5_3UdpE16try_from_raw_mut
FNDA:0,_RNvMs4_NtNtNtCsdVnVozic4xr_8sciparse5proto6packet4viewINtB5_15ScionPacketViewNtB5_3UdpE18try_from_raw_owned
FNDA:466,_RNvMs4_NtNtNtCsdVnVozic4xr_8sciparse5proto6packet4viewINtB5_15ScionPacketViewNtB5_3UdpE3udp
FNDA:318,_RNvMs4_NtNtNtCsdVnVozic4xr_8sciparse5proto6packet4viewINtB5_15ScionPacketViewNtB5_3UdpE8into_raw
FNDA:191,_RNvMsd_NtNtNtCsdVnVozic4xr_8sciparse5proto6packet4viewINtB5_15ScionPacketViewNtB5_4ScmpE12into_raw_mut
FNDA:398,_RNvMsd_NtNtNtCsdVnVozic4xr_8sciparse5proto6packet4viewINtB5_15ScionPacketViewNtB5_4ScmpE12try_from_raw
FNDA:289,_RNvMsd_NtNtNtCsdVnVozic4xr_8sciparse5proto6packet4viewINtB5_15ScionPacketViewNtB5_4ScmpE16try_from_raw_mut
FNDA:0,_RNvMsd_NtNtNtCsdVnVozic4xr_8sciparse5proto6packet4viewINtB5_15ScionPacketViewNtB5_4ScmpE18try_from_raw_owned
FNDA:723,_RNvMsd_NtNtNtCsdVnVozic4xr_8sciparse5proto6packet4viewINtB5_15ScionPacketViewNtB5_4ScmpE4scmp
FNDA:532,_RNvMsd_NtNtNtCsdVnVozic4xr_8sciparse5proto6packet4viewINtB5_15ScionPacketViewNtB5_4ScmpE8into_raw
FNDA:0,_RNvXs0_NtNtNtCsdVnVozic4xr_8sciparse5proto6packet4viewNtB5_15ScionPacketViewNtNtCs4eoa8Adtn6U_4core3fmt5Debug3fmt
FNDA:148,_RNvXs2_NtNtNtCsdVnVozic4xr_8sciparse5proto6packet4viewINtB5_15ScionPacketViewNtB5_3UdpENtNtNtBb_4core4view4View12as_bytes_mut
FNDA:612,_RNvXs2_NtNtNtCsdVnVozic4xr_8sciparse5proto6packet4viewINtB5_15ScionPacketViewNtB5_3UdpENtNtNtBb_4core4view4View17has_required_size
FNDA:0,_RNvXs2_NtNtNtCsdVnVozic4xr_8sciparse5proto6packet4viewINtB5_15ScionPacketViewNtB5_3UdpENtNtNtBb_4core4view4View20from_boxed_unchecked
FNDA:159,_RNvXs2_NtNtNtCsdVnVozic4xr_8sciparse5proto6packet4viewINtB5_15ScionPacketViewNtB5_3UdpENtNtNtBb_4core4view4View20from_slice_unchecked
FNDA:148,_RNvXs2_NtNtNtCsdVnVozic4xr_8sciparse5proto6packet4viewINtB5_15ScionPacketViewNtB5_3UdpENtNtNtBb_4core4view4View24from_mut_slice_unchecked
FNDA:625,_RNvXs2_NtNtNtCsdVnVozic4xr_8sciparse5proto6packet4viewINtB5_15ScionPacketViewNtB5_3UdpENtNtNtBb_4core4view4View8as_bytes
FNDA:0,_RNvXs3_NtNtNtCsdVnVozic4xr_8sciparse5proto6packet4viewINtB5_15ScionPacketViewNtB5_3UdpENtNtCs4eoa8Adtn6U_4core3fmt5Debug3fmt
FNDA:0,_RNvXs5_NtNtNtCsdVnVozic4xr_8sciparse5proto6packet4viewRINtB5_15ScionPacketViewNtB5_3UdpEINtNtCs4eoa8Adtn6U_4core7convert7TryFromRBS_E8try_from
FNDA:0,_RNvXs6_NtNtNtCsdVnVozic4xr_8sciparse5proto6packet4viewQINtB5_15ScionPacketViewNtB5_3UdpEINtNtCs4eoa8Adtn6U_4core7convert7TryFromQBS_E8try_from
FNDA:0,_RNvXs7_NtNtNtCsdVnVozic4xr_8sciparse5proto6packet4viewINtNtCslL0sV90nkwC_5alloc5boxed3BoxINtB5_15ScionPacketViewNtB5_3UdpEEINtNtCs4eoa8Adtn6U_4core7convert7TryFromIBR_B1q_EE8try_from
FNDA:11,_RNvXs8_NtNtNtCsdVnVozic4xr_8sciparse5proto6packet4viewRNtB5_15ScionPacketViewINtNtCs4eoa8Adtn6U_4core7convert4FromRIBR_NtB5_3UdpEE4from
FNDA:578,_RNvXs_NtNtNtCsdVnVozic4xr_8sciparse5proto6packet4viewNtB4_15ScionPacketViewNtNtNtBa_4core4view4View12as_bytes_mut
FNDA:0,_RNvXs_NtNtNtCsdVnVozic4xr_8sciparse5proto6packet4viewNtB4_15ScionPacketViewNtNtNtBa_4core4view4View14as_bytes_boxed
FNDA:2331,_RNvXs_NtNtNtCsdVnVozic4xr_8sciparse5proto6packet4viewNtB4_15ScionPacketViewNtNtNtBa_4core4view4View20from_slice_unchecked
FNDA:1774,_RNvXs_NtNtNtCsdVnVozic4xr_8sciparse5proto6packet4viewNtB4_15ScionPacketViewNtNtNtBa_4core4view4View8as_bytes
FNDA:191,_RNvXsb_NtNtNtCsdVnVozic4xr_8sciparse5proto6packet4viewINtB5_15ScionPacketViewNtB5_4ScmpENtNtNtBb_4core4view4View12as_bytes_mut
FNDA:687,_RNvXsb_NtNtNtCsdVnVozic4xr_8sciparse5proto6packet4viewINtB5_15ScionPacketViewNtB5_4ScmpENtNtNtBb_4core4view4View17has_required_size
FNDA:0,_RNvXsb_NtNtNtCsdVnVozic4xr_8sciparse5proto6packet4viewINtB5_15ScionPacketViewNtB5_4ScmpENtNtNtBb_4core4view4View20from_boxed_unchecked
FNDA:266,_RNvXsb_NtNtNtCsdVnVozic4xr_8sciparse5proto6packet4viewINtB5_15ScionPacketViewNtB5_4ScmpENtNtNtBb_4core4view4View20from_slice_unchecked
FNDA:191,_RNvXsb_NtNtNtCsdVnVozic4xr_8sciparse5proto6packet4viewINtB5_15ScionPacketViewNtB5_4ScmpENtNtNtBb_4core4view4View24from_mut_slice_unchecked
FNDA:989,_RNvXsb_NtNtNtCsdVnVozic4xr_8sciparse5proto6packet4viewINtB5_15ScionPacketViewNtB5_4ScmpENtNtNtBb_4core4view4View8as_bytes
FNDA:0,_RNvXsc_NtNtNtCsdVnVozic4xr_8sciparse5proto6packet4viewINtB5_15ScionPacketViewNtB5_4ScmpENtNtCs4eoa8Adtn6U_4core3fmt5Debug3fmt
FNDA:0,_RNvXse_NtNtNtCsdVnVozic4xr_8sciparse5proto6packet4viewRINtB5_15ScionPacketViewNtB5_4ScmpEINtNtCs4eoa8Adtn6U_4core7convert7TryFromRBS_E8try_from
FNDA:0,_RNvXsf_NtNtNtCsdVnVozic4xr_8sciparse5proto6packet4viewQINtB5_15ScionPacketViewNtB5_4ScmpEINtNtCs4eoa8Adtn6U_4core7convert7TryFromQBS_E8try_from
FNDA:0,_RNvXsg_NtNtNtCsdVnVozic4xr_8sciparse5proto6packet4viewINtNtCslL0sV90nkwC_5alloc5boxed3BoxINtB5_15ScionPacketViewNtB5_4ScmpEEINtNtCs4eoa8Adtn6U_4core7convert7TryFromIBR_B1q_EE8try_from
FNDA:75,_RNvXsh_NtNtNtCsdVnVozic4xr_8sciparse5proto6packet4viewRNtB5_15ScionPacketViewINtNtCs4eoa8Adtn6U_4core7convert4FromRIBR_NtB5_4ScmpEE4from
FNDA:0,_RNvMs4_NtNtNtCsdVnVozic4xr_8sciparse5proto6packet4viewINtB5_15ScionPacketViewNtB5_3UdpE14into_raw_owned
FNDA:0,_RNvMsd_NtNtNtCsdVnVozic4xr_8sciparse5proto6packet4viewINtB5_15ScionPacketViewNtB5_4ScmpE14into_raw_owned
FNDA:0,_RNvXs2_NtNtNtCsdVnVozic4xr_8sciparse5proto6packet4viewINtB5_15ScionPacketViewNtB5_3UdpENtNtNtBb_4core4view4View14as_bytes_boxed
FNDA:0,_RNvXs9_NtNtNtCsdVnVozic4xr_8sciparse5proto6packet4viewQNtB5_15ScionPacketViewINtNtCs4eoa8Adtn6U_4core7convert4FromQIBR_NtB5_3UdpEE4from
FNDA:0,_RNvXs_NtNtNtCsdVnVozic4xr_8sciparse5proto6packet4viewNtB4_15ScionPacketViewNtNtNtBa_4core4view4View20from_boxed_unchecked
FNDA:0,_RNvXsa_NtNtNtCsdVnVozic4xr_8sciparse5proto6packet4viewINtNtCslL0sV90nkwC_5alloc5boxed3BoxNtB5_15ScionPacketViewEINtNtCs4eoa8Adtn6U_4core7convert4FromIBR_IB1p_NtB5_3UdpEEE4from
FNDA:0,_RNvXsb_NtNtNtCsdVnVozic4xr_8sciparse5proto6packet4viewINtB5_15ScionPacketViewNtB5_4ScmpENtNtNtBb_4core4view4View14as_bytes_boxed
FNDA:0,_RNvXsi_NtNtNtCsdVnVozic4xr_8sciparse5proto6packet4viewINtNtCslL0sV90nkwC_5alloc5boxed3BoxNtB5_15ScionPacketViewEINtNtCs4eoa8Adtn6U_4core7convert4FromIBR_IB1p_NtB5_4ScmpEEE4from
FNF:61
FNH:36
DA:42,7424
DA:45,7424
DA:46,7424
DA:48,7424
DA:52,628
DA:54,628
DA:55,628
DA:56,628
DA:57,628
DA:58,628
DA:62,4444
DA:65,4444
DA:66,4444
DA:67,4444
DA:69,4444
DA:70,4444
DA:72,4444
DA:73,4444
DA:75,4444
DA:82,2111
DA:85,2111
DA:87,1770
DA:88,1770
DA:89,2111
DA:92,2331
DA:94,2331
DA:95,2331
DA:98,628
DA:100,628
DA:101,628
DA:104,0
DA:106,0
DA:107,0
DA:110,578
DA:111,578
DA:112,578
DA:115,0
DA:118,0
DA:119,0
DA:122,1774
DA:123,1774
DA:124,1774
DA:127,0
DA:128,0
DA:129,0
DA:130,0
DA:131,0
DA:132,0
DA:140,0
DA:141,0
DA:142,0
DA:146,628
DA:148,628
DA:149,628
DA:150,628
DA:151,628
DA:152,628
DA:153,628
DA:154,628
DA:155,628
DA:156,628
DA:157,628
DA:158,628
DA:159,628
DA:171,289
DA:172,289
DA:174,11
DA:175,34
DA:176,11
DA:179,109
DA:180,109
DA:181,75
DA:183,146
DA:185,289
DA:191,289
DA:192,289
DA:193,289
DA:197,289
DA:198,289
DA:199,289
DA:203,0
DA:204,0
DA:205,0
DA:206,0
DA:207,0
DA:213,289
DA:214,289
DA:215,289
DA:219,289
DA:220,289
DA:221,289
DA:225,0
DA:226,0
DA:227,0
DA:228,0
DA:229,0
DA:236,612
DA:237,612
DA:238,612
DA:241,612
DA:242,307
DA:243,612
DA:246,159
DA:248,159
DA:249,159
DA:252,148
DA:254,148
DA:255,148
DA:258,0
DA:260,0
DA:261,0
DA:264,148
DA:265,148
DA:266,148
DA:269,0
DA:271,0
DA:272,0
DA:275,625
DA:276,625
DA:277,625
DA:280,0
DA:281,0
DA:282,0
DA:283,0
DA:284,0
DA:285,0
DA:290,323
DA:292,323
DA:293,159
DA:294,323
DA:298,289
DA:299,289
DA:300,289
DA:302,148
DA:305,289
DA:307,148
DA:308,289
DA:312,0
DA:313,0
DA:314,0
DA:315,0
DA:316,0
DA:319,318
DA:321,318
DA:322,318
DA:325,148
DA:327,148
DA:328,148
DA:331,0
DA:332,0
DA:333,0
DA:338,466
DA:340,466
DA:341,466
DA:342,466
DA:343,466
DA:348,0
DA:349,0
DA:350,0
DA:355,0
DA:356,0
DA:357,0
DA:362,0
DA:363,0
DA:364,0
DA:367,11
DA:368,11
DA:369,11
DA:372,0
DA:373,0
DA:374,0
DA:377,0
DA:378,0
DA:379,0
DA:386,687
DA:387,687
DA:388,687
DA:391,687
DA:392,457
DA:393,687
DA:396,266
DA:398,266
DA:399,266
DA:402,191
DA:404,191
DA:405,191
DA:408,0
DA:410,0
DA:411,0
DA:414,191
DA:415,191
DA:416,191
DA:419,0
DA:421,0
DA:422,0
DA:425,989
DA:426,989
DA:427,989
DA:430,0
DA:431,0
DA:432,0
DA:433,0
DA:434,0
DA:435,0
DA:440,398
DA:442,398
DA:443,266
DA:444,398
DA:448,289
DA:449,289
DA:450,289
DA:452,191
DA:455,289
DA:457,191
DA:458,289
DA:462,0
DA:463,0
DA:464,0
DA:466,0
DA:467,0
DA:470,532
DA:472,532
DA:473,532
DA:480,191
DA:481,191
DA:482,191
DA:485,0
DA:486,0
DA:487,0
DA:492,723
DA:494,723
DA:495,723
DA:496,723
DA:497,723
DA:502,0
DA:503,0
DA:504,0
DA:509,0
DA:510,0
DA:511,0
DA:516,0
DA:517,0
DA:518,0
DA:521,75
DA:522,75
DA:523,75
DA:526,0
DA:527,0
DA:528,0
BRF:0
BRH:0
LF:249
LH:157
end_of_record
SF:/home/akelbsch/projects/scion/endhost/public/scion-proto/sciparse/src/proto/payload.rs
FN:125,_RNCNvXs_NtNtNtCsdVnVozic4xr_8sciparse5proto7payload5ptestNtB8_14ProtocolNumberNtNtNtCskZahNybV1yu_8proptest9arbitrary6traits9Arbitrary14arbitrary_with0Bc_
FN:44,_RNvXNtNtCsdVnVozic4xr_8sciparse5proto7payloadNtB2_14ProtocolNumberINtNtCs4eoa8Adtn6U_4core7convert4FromhE4from
FN:57,_RNvXs_NtNtCsdVnVozic4xr_8sciparse5proto7payloadhINtNtCs4eoa8Adtn6U_4core7convert4FromNtB4_14ProtocolNumberE4from
FN:117,_RNvXs_NtNtNtCsdVnVozic4xr_8sciparse5proto7payload5ptestNtB6_14ProtocolNumberNtNtNtCskZahNybV1yu_8proptest9arbitrary6traits9Arbitrary14arbitrary_with
FN:100,_RNvXNtNtNtCsdVnVozic4xr_8sciparse5proto7payload5ptestNtB2_29ArbitraryProtocolNumberParamsNtNtCs4eoa8Adtn6U_4core7default7Default7default
FNDA:0,_RNCNvXs_NtNtNtCsdVnVozic4xr_8sciparse5proto7payload5ptestNtB8_14ProtocolNumberNtNtNtCskZahNybV1yu_8proptest9arbitrary6traits9Arbitrary14arbitrary_with0Bc_
FNDA:471,_RNvXNtNtCsdVnVozic4xr_8sciparse5proto7payloadNtB2_14ProtocolNumberINtNtCs4eoa8Adtn6U_4core7convert4FromhE4from
FNDA:0,_RNvXs_NtNtCsdVnVozic4xr_8sciparse5proto7payloadhINtNtCs4eoa8Adtn6U_4core7convert4FromNtB4_14ProtocolNumberE4from
FNDA:0,_RNvXs_NtNtNtCsdVnVozic4xr_8sciparse5proto7payload5ptestNtB6_14ProtocolNumberNtNtNtCskZahNybV1yu_8proptest9arbitrary6traits9Arbitrary14arbitrary_with
FNDA:0,_RNvXNtNtNtCsdVnVozic4xr_8sciparse5proto7payload5ptestNtB2_29ArbitraryProtocolNumberParamsNtNtCs4eoa8Adtn6U_4core7default7Default7default
FNF:5
FNH:1
DA:44,471
DA:45,471
DA:46,0
DA:47,0
DA:48,0
DA:49,173
DA:50,109
DA:51,0
DA:52,189
DA:54,471
DA:57,0
DA:58,0
DA:59,0
DA:60,0
DA:61,0
DA:62,0
DA:63,0
DA:64,0
DA:65,0
DA:67,0
DA:100,0
DA:101,0
DA:102,0
DA:103,0
DA:104,0
DA:105,0
DA:106,0
DA:107,0
DA:108,0
DA:109,0
DA:110,0
DA:117,0
DA:118,0
DA:119,0
DA:120,0
DA:121,0
DA:122,0
DA:123,0
DA:124,0
DA:125,0
DA:126,0
DA:127,0
DA:128,0
DA:129,0
DA:130,0
DA:131,0
DA:133,0
DA:134,0
BRF:0
BRH:0
LF:49
LH:6
end_of_record
SF:/home/akelbsch/projects/scion/endhost/public/scion-proto/sciparse/src/proto/payload/encode.rs
FN:107,_RNvXNtNtNtCsdVnVozic4xr_8sciparse5proto7payload6encodeRShNtB2_13PayloadEncode10wire_valid
FN:89,_RNvXNtNtNtCsdVnVozic4xr_8sciparse5proto7payload6encodeRShNtB2_13PayloadEncode13required_size
FN:93,_RNvXNtNtNtCsdVnVozic4xr_8sciparse5proto7payload6encodeRShNtB2_13PayloadEncode16encode_unchecked
FN:132,_RNvXs_NtNtNtCsdVnVozic4xr_8sciparse5proto7payload6encodeINtNtCslL0sV90nkwC_5alloc3vec3VechENtB4_13PayloadEncode10wire_valid
FN:115,_RNvXs_NtNtNtCsdVnVozic4xr_8sciparse5proto7payload6encodeINtNtCslL0sV90nkwC_5alloc3vec3VechENtB4_13PayloadEncode13required_size
FN:119,_RNvXs_NtNtNtCsdVnVozic4xr_8sciparse5proto7payload6encodeINtNtCslL0sV90nkwC_5alloc3vec3VechENtB4_13PayloadEncode16encode_unchecked
FN:61,_RNvYNtNtNtNtNtCsdVnVozic4xr_8sciparse5proto7payload3udp5model11UdpDatagramNtNtB8_6encode13PayloadEncode6encodeBc_
FN:61,_RNvYNtNtNtNtNtCsdVnVozic4xr_8sciparse5proto7payload4scmp5model11ScmpMessageNtNtB8_6encode13PayloadEncode6encodeBc_
FNDA:0,_RNvXNtNtNtCsdVnVozic4xr_8sciparse5proto7payload6encodeRShNtB2_13PayloadEncode10wire_valid
FNDA:0,_RNvXNtNtNtCsdVnVozic4xr_8sciparse5proto7payload6encodeRShNtB2_13PayloadEncode13required_size
FNDA:0,_RNvXNtNtNtCsdVnVozic4xr_8sciparse5proto7payload6encodeRShNtB2_13PayloadEncode16encode_unchecked
FNDA:0,_RNvXs_NtNtNtCsdVnVozic4xr_8sciparse5proto7payload6encodeINtNtCslL0sV90nkwC_5alloc3vec3VechENtB4_13PayloadEncode10wire_valid
FNDA:0,_RNvXs_NtNtNtCsdVnVozic4xr_8sciparse5proto7payload6encodeINtNtCslL0sV90nkwC_5alloc3vec3VechENtB4_13PayloadEncode13required_size
FNDA:0,_RNvXs_NtNtNtCsdVnVozic4xr_8sciparse5proto7payload6encodeINtNtCslL0sV90nkwC_5alloc3vec3VechENtB4_13PayloadEncode16encode_unchecked
FNDA:0,_RNvYNtNtNtNtNtCsdVnVozic4xr_8sciparse5proto7payload3udp5model11UdpDatagramNtNtB8_6encode13PayloadEncode6encodeBc_
FNDA:0,_RNvYNtNtNtNtNtCsdVnVozic4xr_8sciparse5proto7payload4scmp5model11ScmpMessageNtNtB8_6encode13PayloadEncode6encodeBc_
FNF:7
FNH:0
DA:61,0
DA:62,0
DA:63,0
DA:64,0
DA:65,0
DA:66,0
DA:67,0
DA:68,0
DA:69,0
DA:70,0
DA:71,0
DA:74,0
DA:75,0
DA:89,0
DA:90,0
DA:91,0
DA:93,0
DA:94,0
DA:95,0
DA:96,0
DA:97,0
DA:98,0
DA:101,0
DA:102,0
DA:103,0
DA:104,0
DA:105,0
DA:107,0
DA:108,0
DA:109,0
DA:115,0
DA:116,0
DA:117,0
DA:119,0
DA:120,0
DA:121,0
DA:122,0
DA:123,0
DA:124,0
DA:127,0
DA:128,0
DA:130,0
DA:132,0
DA:133,0
DA:134,0
BRF:0
BRH:0
LF:45
LH:0
end_of_record
SF:/home/akelbsch/projects/scion/endhost/public/scion-proto/sciparse/src/proto/payload/scmp/layout.rs
FN:63,_RNCNvMNtNtNtNtCsdVnVozic4xr_8sciparse5proto7payload4scmp6layoutNtB4_17ScmpMessageLayout10from_slice0Bc_
FN:62,_RNvMNtNtNtNtCsdVnVozic4xr_8sciparse5proto7payload4scmp6layoutNtB2_17ScmpMessageLayout10from_slice
FN:147,_RNvMs2_NtNtNtNtCsdVnVozic4xr_8sciparse5proto7payload4scmp6layoutNtB5_32ScmpDestinationUnreachableLayout28from_offending_packet_length
FN:142,_RNvMs2_NtNtNtNtCsdVnVozic4xr_8sciparse5proto7payload4scmp6layoutNtB5_32ScmpDestinationUnreachableLayout3new
FN:179,_RNvMs3_NtNtNtNtCsdVnVozic4xr_8sciparse5proto7payload4scmp6layoutNtB5_32ScmpDestinationUnreachableLayout20offending_packet_rng
FN:194,_RNvMs5_NtNtNtNtCsdVnVozic4xr_8sciparse5proto7payload4scmp6layoutNtB5_32ScmpDestinationUnreachableLayout10from_slice
FN:230,_RNvMs7_NtNtNtNtCsdVnVozic4xr_8sciparse5proto7payload4scmp6layoutNtB5_22ScmpPacketTooBigLayout28from_offending_packet_length
FN:225,_RNvMs7_NtNtNtNtCsdVnVozic4xr_8sciparse5proto7payload4scmp6layoutNtB5_22ScmpPacketTooBigLayout3new
FN:264,_RNvMs8_NtNtNtNtCsdVnVozic4xr_8sciparse5proto7payload4scmp6layoutNtB5_22ScmpPacketTooBigLayout20offending_packet_rng
FN:763,_RNvMsE_NtNtNtNtCsdVnVozic4xr_8sciparse5proto7payload4scmp6layoutNtB5_27ScmpTracerouteRequestLayout10from_slice
FN:822,_RNvMsJ_NtNtNtNtCsdVnVozic4xr_8sciparse5proto7payload4scmp6layoutNtB5_25ScmpTracerouteReplyLayout10from_slice
FN:849,_RNvMsL_NtNtNtNtCsdVnVozic4xr_8sciparse5proto7payload4scmp6layoutNtB5_24ScmpUnknownMessageLayout33from_message_specific_data_length
FN:875,_RNvMsM_NtNtNtNtCsdVnVozic4xr_8sciparse5proto7payload4scmp6layoutNtB5_24ScmpUnknownMessageLayout25message_specific_data_rng
FN:869,_RNvMsM_NtNtNtNtCsdVnVozic4xr_8sciparse5proto7payload4scmp6layoutNtB5_24ScmpUnknownMessageLayout3new
FN:890,_RNvMsO_NtNtNtNtCsdVnVozic4xr_8sciparse5proto7payload4scmp6layoutNtB5_24ScmpUnknownMessageLayout10from_slice
FN:279,_RNvMsa_NtNtNtNtCsdVnVozic4xr_8sciparse5proto7payload4scmp6layoutNtB5_22ScmpPacketTooBigLayout10from_slice
FN:314,_RNvMsc_NtNtNtNtCsdVnVozic4xr_8sciparse5proto7payload4scmp6layoutNtB5_26ScmpParameterProblemLayout28from_offending_packet_length
FN:309,_RNvMsc_NtNtNtNtCsdVnVozic4xr_8sciparse5proto7payload4scmp6layoutNtB5_26ScmpParameterProblemLayout3new
FN:347,_RNvMsd_NtNtNtNtCsdVnVozic4xr_8sciparse5proto7payload4scmp6layoutNtB5_26ScmpParameterProblemLayout20offending_packet_rng
FN:362,_RNvMsf_NtNtNtNtCsdVnVozic4xr_8sciparse5proto7payload4scmp6layoutNtB5_26ScmpParameterProblemLayout10from_slice
FN:397,_RNvMsh_NtNtNtNtCsdVnVozic4xr_8sciparse5proto7payload4scmp6layoutNtB5_31ScmpExternalInterfaceDownLayout28from_offending_packet_length
FN:392,_RNvMsh_NtNtNtNtCsdVnVozic4xr_8sciparse5proto7payload4scmp6layoutNtB5_31ScmpExternalInterfaceDownLayout3new
FN:438,_RNvMsi_NtNtNtNtCsdVnVozic4xr_8sciparse5proto7payload4scmp6layoutNtB5_31ScmpExternalInterfaceDownLayout20offending_packet_rng
FN:454,_RNvMsk_NtNtNtNtCsdVnVozic4xr_8sciparse5proto7payload4scmp6layoutNtB5_31ScmpExternalInterfaceDownLayout10from_slice
FN:489,_RNvMsm_NtNtNtNtCsdVnVozic4xr_8sciparse5proto7payload4scmp6layoutNtB5_34ScmpInternalConnectivityDownLayout28from_offending_packet_length
FN:484,_RNvMsm_NtNtNtNtCsdVnVozic4xr_8sciparse5proto7payload4scmp6layoutNtB5_34ScmpInternalConnectivityDownLayout3new
FN:535,_RNvMsn_NtNtNtNtCsdVnVozic4xr_8sciparse5proto7payload4scmp6layoutNtB5_34ScmpInternalConnectivityDownLayout20offending_packet_rng
FN:550,_RNvMsp_NtNtNtNtCsdVnVozic4xr_8sciparse5proto7payload4scmp6layoutNtB5_34ScmpInternalConnectivityDownLayout10from_slice
FN:585,_RNvMsr_NtNtNtNtCsdVnVozic4xr_8sciparse5proto7payload4scmp6layoutNtB5_21ScmpEchoRequestLayout16from_data_length
FN:580,_RNvMsr_NtNtNtNtCsdVnVozic4xr_8sciparse5proto7payload4scmp6layoutNtB5_21ScmpEchoRequestLayout3new
FN:611,_RNvMss_NtNtNtNtCsdVnVozic4xr_8sciparse5proto7payload4scmp6layoutNtB5_21ScmpEchoRequestLayout8data_rng
FN:626,_RNvMsu_NtNtNtNtCsdVnVozic4xr_8sciparse5proto7payload4scmp6layoutNtB5_21ScmpEchoRequestLayout10from_slice
FN:661,_RNvMsw_NtNtNtNtCsdVnVozic4xr_8sciparse5proto7payload4scmp6layoutNtB5_19ScmpEchoReplyLayout16from_data_length
FN:656,_RNvMsw_NtNtNtNtCsdVnVozic4xr_8sciparse5proto7payload4scmp6layoutNtB5_19ScmpEchoReplyLayout3new
FN:687,_RNvMsx_NtNtNtNtCsdVnVozic4xr_8sciparse5proto7payload4scmp6layoutNtB5_19ScmpEchoReplyLayout8data_rng
FN:701,_RNvMsz_NtNtNtNtCsdVnVozic4xr_8sciparse5proto7payload4scmp6layoutNtB5_19ScmpEchoReplyLayout10from_slice
FN:116,_RNvXs1_NtNtNtNtCsdVnVozic4xr_8sciparse5proto7payload4scmp6layoutNtB5_17ScmpMessageLayoutNtNtNtBd_4core6layout6Layout10size_bytes
FN:187,_RNvXs4_NtNtNtNtCsdVnVozic4xr_8sciparse5proto7payload4scmp6layoutNtB5_32ScmpDestinationUnreachableLayoutNtNtNtBd_4core6layout6Layout10size_bytes
FN:209,_RNvXs6_NtNtNtNtCsdVnVozic4xr_8sciparse5proto7payload4scmp6layoutNtB5_32ScmpDestinationUnreachableLayoutINtNtCs4eoa8Adtn6U_4core7convert7TryFromRShE8try_from
FN:272,_RNvXs9_NtNtNtNtCsdVnVozic4xr_8sciparse5proto7payload4scmp6layoutNtB5_22ScmpPacketTooBigLayoutNtNtNtBd_4core6layout6Layout10size_bytes
FN:716,_RNvXsA_NtNtNtNtCsdVnVozic4xr_8sciparse5proto7payload4scmp6layoutNtB5_19ScmpEchoReplyLayoutINtNtCs4eoa8Adtn6U_4core7convert7TryFromRShE8try_from
FN:757,_RNvXsD_NtNtNtNtCsdVnVozic4xr_8sciparse5proto7payload4scmp6layoutNtB5_27ScmpTracerouteRequestLayoutNtNtNtBd_4core6layout6Layout10size_bytes
FN:776,_RNvXsF_NtNtNtNtCsdVnVozic4xr_8sciparse5proto7payload4scmp6layoutNtB5_27ScmpTracerouteRequestLayoutINtNtCs4eoa8Adtn6U_4core7convert7TryFromRShE8try_from
FN:816,_RNvXsI_NtNtNtNtCsdVnVozic4xr_8sciparse5proto7payload4scmp6layoutNtB5_25ScmpTracerouteReplyLayoutNtNtNtBd_4core6layout6Layout10size_bytes
FN:835,_RNvXsK_NtNtNtNtCsdVnVozic4xr_8sciparse5proto7payload4scmp6layoutNtB5_25ScmpTracerouteReplyLayoutINtNtCs4eoa8Adtn6U_4core7convert7TryFromRShE8try_from
FN:883,_RNvXsN_NtNtNtNtCsdVnVozic4xr_8sciparse5proto7payload4scmp6layoutNtB5_24ScmpUnknownMessageLayoutNtNtNtBd_4core6layout6Layout10size_bytes
FN:905,_RNvXsP_NtNtNtNtCsdVnVozic4xr_8sciparse5proto7payload4scmp6layoutNtB5_24ScmpUnknownMessageLayoutINtNtCs4eoa8Adtn6U_4core7convert7TryFromRShE8try_from
FN:99,_RNvXs_NtNtNtNtCsdVnVozic4xr_8sciparse5proto7payload4scmp6layoutNtB4_17ScmpMessageLayoutINtNtCs4eoa8Adtn6U_4core7convert7TryFromRShE8try_from
FN:294,_RNvXsb_NtNtNtNtCsdVnVozic4xr_8sciparse5proto7payload4scmp6layoutNtB5_22ScmpPacketTooBigLayoutINtNtCs4eoa8Adtn6U_4core7convert7TryFromRShE8try_from
FN:355,_RNvXse_NtNtNtNtCsdVnVozic4xr_8sciparse5proto7payload4scmp6layoutNtB5_26ScmpParameterProblemLayoutNtNtNtBd_4core6layout6Layout10size_bytes
FN:377,_RNvXsg_NtNtNtNtCsdVnVozic4xr_8sciparse5proto7payload4scmp6layoutNtB5_26ScmpParameterProblemLayoutINtNtCs4eoa8Adtn6U_4core7convert7TryFromRShE8try_from
FN:447,_RNvXsj_NtNtNtNtCsdVnVozic4xr_8sciparse5proto7payload4scmp6layoutNtB5_31ScmpExternalInterfaceDownLayoutNtNtNtBd_4core6layout6Layout10size_bytes
FN:469,_RNvXsl_NtNtNtNtCsdVnVozic4xr_8sciparse5proto7payload4scmp6layoutNtB5_31ScmpExternalInterfaceDownLayoutINtNtCs4eoa8Adtn6U_4core7convert7TryFromRShE8try_from
FN:543,_RNvXso_NtNtNtNtCsdVnVozic4xr_8sciparse5proto7payload4scmp6layoutNtB5_34ScmpInternalConnectivityDownLayoutNtNtNtBd_4core6layout6Layout10size_bytes
FN:565,_RNvXsq_NtNtNtNtCsdVnVozic4xr_8sciparse5proto7payload4scmp6layoutNtB5_34ScmpInternalConnectivityDownLayoutINtNtCs4eoa8Adtn6U_4core7convert7TryFromRShE8try_from
FN:619,_RNvXst_NtNtNtNtCsdVnVozic4xr_8sciparse5proto7payload4scmp6layoutNtB5_21ScmpEchoRequestLayoutNtNtNtBd_4core6layout6Layout10size_bytes
FN:641,_RNvXsv_NtNtNtNtCsdVnVozic4xr_8sciparse5proto7payload4scmp6layoutNtB5_21ScmpEchoRequestLayoutINtNtCs4eoa8Adtn6U_4core7convert7TryFromRShE8try_from
FN:695,_RNvXsy_NtNtNtNtCsdVnVozic4xr_8sciparse5proto7payload4scmp6layoutNtB5_19ScmpEchoReplyLayoutNtNtNtBd_4core6layout6Layout10size_bytes
FNDA:135,_RNCNvMNtNtNtNtCsdVnVozic4xr_8sciparse5proto7payload4scmp6layoutNtB4_17ScmpMessageLayout10from_slice0Bc_
FNDA:1410,_RNvMNtNtNtNtCsdVnVozic4xr_8sciparse5proto7payload4scmp6layoutNtB2_17ScmpMessageLayout10from_slice
FNDA:0,_RNvMs2_NtNtNtNtCsdVnVozic4xr_8sciparse5proto7payload4scmp6layoutNtB5_32ScmpDestinationUnreachableLayout28from_offending_packet_length
FNDA:256,_RNvMs2_NtNtNtNtCsdVnVozic4xr_8sciparse5proto7payload4scmp6layoutNtB5_32ScmpDestinationUnreachableLayout3new
FNDA:256,_RNvMs3_NtNtNtNtCsdVnVozic4xr_8sciparse5proto7payload4scmp6layoutNtB5_32ScmpDestinationUnreachableLayout20offending_packet_rng
FNDA:420,_RNvMs5_NtNtNtNtCsdVnVozic4xr_8sciparse5proto7payload4scmp6layoutNtB5_32ScmpDestinationUnreachableLayout10from_slice
FNDA:0,_RNvMs7_NtNtNtNtCsdVnVozic4xr_8sciparse5proto7payload4scmp6layoutNtB5_22ScmpPacketTooBigLayout28from_offending_packet_length
FNDA:104,_RNvMs7_NtNtNtNtCsdVnVozic4xr_8sciparse5proto7payload4scmp6layoutNtB5_22ScmpPacketTooBigLayout3new
FNDA:104,_RNvMs8_NtNtNtNtCsdVnVozic4xr_8sciparse5proto7payload4scmp6layoutNtB5_22ScmpPacketTooBigLayout20offending_packet_rng
FNDA:41,_RNvMsE_NtNtNtNtCsdVnVozic4xr_8sciparse5proto7payload4scmp6layoutNtB5_27ScmpTracerouteRequestLayout10from_slice
FNDA:39,_RNvMsJ_NtNtNtNtCsdVnVozic4xr_8sciparse5proto7payload4scmp6layoutNtB5_25ScmpTracerouteReplyLayout10from_slice
FNDA:0,_RNvMsL_NtNtNtNtCsdVnVozic4xr_8sciparse5proto7payload4scmp6layoutNtB5_24ScmpUnknownMessageLayout33from_message_specific_data_length
FNDA:0,_RNvMsM_NtNtNtNtCsdVnVozic4xr_8sciparse5proto7payload4scmp6layoutNtB5_24ScmpUnknownMessageLayout25message_specific_data_rng
FNDA:0,_RNvMsM_NtNtNtNtCsdVnVozic4xr_8sciparse5proto7payload4scmp6layoutNtB5_24ScmpUnknownMessageLayout3new
FNDA:1635,_RNvMsO_NtNtNtNtCsdVnVozic4xr_8sciparse5proto7payload4scmp6layoutNtB5_24ScmpUnknownMessageLayout10from_slice
FNDA:167,_RNvMsa_NtNtNtNtCsdVnVozic4xr_8sciparse5proto7payload4scmp6layoutNtB5_22ScmpPacketTooBigLayout10from_slice
FNDA:0,_RNvMsc_NtNtNtNtCsdVnVozic4xr_8sciparse5proto7payload4scmp6layoutNtB5_26ScmpParameterProblemLayout28from_offending_packet_length
FNDA:98,_RNvMsc_NtNtNtNtCsdVnVozic4xr_8sciparse5proto7payload4scmp6layoutNtB5_26ScmpParameterProblemLayout3new
FNDA:98,_RNvMsd_NtNtNtNtCsdVnVozic4xr_8sciparse5proto7payload4scmp6layoutNtB5_26ScmpParameterProblemLayout20offending_packet_rng
FNDA:160,_RNvMsf_NtNtNtNtCsdVnVozic4xr_8sciparse5proto7payload4scmp6layoutNtB5_26ScmpParameterProblemLayout10from_slice
FNDA:0,_RNvMsh_NtNtNtNtCsdVnVozic4xr_8sciparse5proto7payload4scmp6layoutNtB5_31ScmpExternalInterfaceDownLayout28from_offending_packet_length
FNDA:38,_RNvMsh_NtNtNtNtCsdVnVozic4xr_8sciparse5proto7payload4scmp6layoutNtB5_31ScmpExternalInterfaceDownLayout3new
FNDA:38,_RNvMsi_NtNtNtNtCsdVnVozic4xr_8sciparse5proto7payload4scmp6layoutNtB5_31ScmpExternalInterfaceDownLayout20offending_packet_rng
FNDA:86,_RNvMsk_NtNtNtNtCsdVnVozic4xr_8sciparse5proto7payload4scmp6layoutNtB5_31ScmpExternalInterfaceDownLayout10from_slice
FNDA:0,_RNvMsm_NtNtNtNtCsdVnVozic4xr_8sciparse5proto7payload4scmp6layoutNtB5_34ScmpInternalConnectivityDownLayout28from_offending_packet_length
FNDA:8,_RNvMsm_NtNtNtNtCsdVnVozic4xr_8sciparse5proto7payload4scmp6layoutNtB5_34ScmpInternalConnectivityDownLayout3new
FNDA:8,_RNvMsn_NtNtNtNtCsdVnVozic4xr_8sciparse5proto7payload4scmp6layoutNtB5_34ScmpInternalConnectivityDownLayout20offending_packet_rng
FNDA:37,_RNvMsp_NtNtNtNtCsdVnVozic4xr_8sciparse5proto7payload4scmp6layoutNtB5_34ScmpInternalConnectivityDownLayout10from_slice
FNDA:0,_RNvMsr_NtNtNtNtCsdVnVozic4xr_8sciparse5proto7payload4scmp6layoutNtB5_21ScmpEchoRequestLayout16from_data_length
FNDA:0,_RNvMsr_NtNtNtNtCsdVnVozic4xr_8sciparse5proto7payload4scmp6layoutNtB5_21ScmpEchoRequestLayout3new
FNDA:0,_RNvMss_NtNtNtNtCsdVnVozic4xr_8sciparse5proto7payload4scmp6layoutNtB5_21ScmpEchoRequestLayout8data_rng
FNDA:50,_RNvMsu_NtNtNtNtCsdVnVozic4xr_8sciparse5proto7payload4scmp6layoutNtB5_21ScmpEchoRequestLayout10from_slice
FNDA:0,_RNvMsw_NtNtNtNtCsdVnVozic4xr_8sciparse5proto7payload4scmp6layoutNtB5_19ScmpEchoReplyLayout16from_data_length
FNDA:0,_RNvMsw_NtNtNtNtCsdVnVozic4xr_8sciparse5proto7payload4scmp6layoutNtB5_19ScmpEchoReplyLayout3new
FNDA:0,_RNvMsx_NtNtNtNtCsdVnVozic4xr_8sciparse5proto7payload4scmp6layoutNtB5_19ScmpEchoReplyLayout8data_rng
FNDA:50,_RNvMsz_NtNtNtNtCsdVnVozic4xr_8sciparse5proto7payload4scmp6layoutNtB5_19ScmpEchoReplyLayout10from_slice
FNDA:1180,_RNvXs1_NtNtNtNtCsdVnVozic4xr_8sciparse5proto7payload4scmp6layoutNtB5_17ScmpMessageLayoutNtNtNtBd_4core6layout6Layout10size_bytes
FNDA:420,_RNvXs4_NtNtNtNtCsdVnVozic4xr_8sciparse5proto7payload4scmp6layoutNtB5_32ScmpDestinationUnreachableLayoutNtNtNtBd_4core6layout6Layout10size_bytes
FNDA:420,_RNvXs6_NtNtNtNtCsdVnVozic4xr_8sciparse5proto7payload4scmp6layoutNtB5_32ScmpDestinationUnreachableLayoutINtNtCs4eoa8Adtn6U_4core7convert7TryFromRShE8try_from
FNDA:167,_RNvXs9_NtNtNtNtCsdVnVozic4xr_8sciparse5proto7payload4scmp6layoutNtB5_22ScmpPacketTooBigLayoutNtNtNtBd_4core6layout6Layout10size_bytes
FNDA:50,_RNvXsA_NtNtNtNtCsdVnVozic4xr_8sciparse5proto7payload4scmp6layoutNtB5_19ScmpEchoReplyLayoutINtNtCs4eoa8Adtn6U_4core7convert7TryFromRShE8try_from
FNDA:21,_RNvXsD_NtNtNtNtCsdVnVozic4xr_8sciparse5proto7payload4scmp6layoutNtB5_27ScmpTracerouteRequestLayoutNtNtNtBd_4core6layout6Layout10size_bytes
FNDA:41,_RNvXsF_NtNtNtNtCsdVnVozic4xr_8sciparse5proto7payload4scmp6layoutNtB5_27ScmpTracerouteRequestLayoutINtNtCs4eoa8Adtn6U_4core7convert7TryFromRShE8try_from
FNDA:13,_RNvXsI_NtNtNtNtCsdVnVozic4xr_8sciparse5proto7payload4scmp6layoutNtB5_25ScmpTracerouteReplyLayoutNtNtNtBd_4core6layout6Layout10size_bytes
FNDA:39,_RNvXsK_NtNtNtNtCsdVnVozic4xr_8sciparse5proto7payload4scmp6layoutNtB5_25ScmpTracerouteReplyLayoutINtNtCs4eoa8Adtn6U_4core7convert7TryFromRShE8try_from
FNDA:1500,_RNvXsN_NtNtNtNtCsdVnVozic4xr_8sciparse5proto7payload4scmp6layoutNtB5_24ScmpUnknownMessageLayoutNtNtNtBd_4core6layout6Layout10size_bytes
FNDA:1635,_RNvXsP_NtNtNtNtCsdVnVozic4xr_8sciparse5proto7payload4scmp6layoutNtB5_24ScmpUnknownMessageLayoutINtNtCs4eoa8Adtn6U_4core7convert7TryFromRShE8try_from
FNDA:1410,_RNvXs_NtNtNtNtCsdVnVozic4xr_8sciparse5proto7payload4scmp6layoutNtB4_17ScmpMessageLayoutINtNtCs4eoa8Adtn6U_4core7convert7TryFromRShE8try_from
FNDA:167,_RNvXsb_NtNtNtNtCsdVnVozic4xr_8sciparse5proto7payload4scmp6layoutNtB5_22ScmpPacketTooBigLayoutINtNtCs4eoa8Adtn6U_4core7convert7TryFromRShE8try_from
FNDA:160,_RNvXse_NtNtNtNtCsdVnVozic4xr_8sciparse5proto7payload4scmp6layoutNtB5_26ScmpParameterProblemLayoutNtNtNtBd_4core6layout6Layout10size_bytes
FNDA:160,_RNvXsg_NtNtNtNtCsdVnVozic4xr_8sciparse5proto7payload4scmp6layoutNtB5_26ScmpParameterProblemLayoutINtNtCs4eoa8Adtn6U_4core7convert7TryFromRShE8try_from
FNDA:61,_RNvXsj_NtNtNtNtCsdVnVozic4xr_8sciparse5proto7payload4scmp6layoutNtB5_31ScmpExternalInterfaceDownLayoutNtNtNtBd_4core6layout6Layout10size_bytes
FNDA:86,_RNvXsl_NtNtNtNtCsdVnVozic4xr_8sciparse5proto7payload4scmp6layoutNtB5_31ScmpExternalInterfaceDownLayoutINtNtCs4eoa8Adtn6U_4core7convert7TryFromRShE8try_from
FNDA:13,_RNvXso_NtNtNtNtCsdVnVozic4xr_8sciparse5proto7payload4scmp6layoutNtB5_34ScmpInternalConnectivityDownLayoutNtNtNtBd_4core6layout6Layout10size_bytes
FNDA:37,_RNvXsq_NtNtNtNtCsdVnVozic4xr_8sciparse5proto7payload4scmp6layoutNtB5_34ScmpInternalConnectivityDownLayoutINtNtCs4eoa8Adtn6U_4core7convert7TryFromRShE8try_from
FNDA:50,_RNvXst_NtNtNtNtCsdVnVozic4xr_8sciparse5proto7payload4scmp6layoutNtB5_21ScmpEchoRequestLayoutNtNtNtBd_4core6layout6Layout10size_bytes
FNDA:50,_RNvXsv_NtNtNtNtCsdVnVozic4xr_8sciparse5proto7payload4scmp6layoutNtB5_21ScmpEchoRequestLayoutINtNtCs4eoa8Adtn6U_4core7convert7TryFromRShE8try_from
FNDA:50,_RNvXsy_NtNtNtNtCsdVnVozic4xr_8sciparse5proto7payload4scmp6layoutNtB5_19ScmpEchoReplyLayoutNtNtNtBd_4core6layout6Layout10size_bytes
FNF:58
FNH:44
DA:62,1410
DA:63,1410
DA:64,135
DA:66,135
DA:68,135
DA:69,135
DA:70,135
DA:71,135
DA:72,135
DA:74,0
DA:76,135
DA:82,1275
DA:83,420
DA:84,167
DA:85,160
DA:86,86
DA:87,37
DA:88,50
DA:89,50
DA:90,41
DA:91,39
DA:92,225
DA:94,1180
DA:95,1410
DA:99,1410
DA:100,1410
DA:101,1410
DA:116,1180
DA:117,1180
DA:118,420
DA:119,167
DA:120,160
DA:121,61
DA:122,13
DA:123,50
DA:124,50
DA:125,21
DA:126,13
DA:127,225
DA:129,1180
DA:142,256
DA:143,256
DA:144,256
DA:147,0
DA:148,0
DA:149,0
DA:150,0
DA:151,0
DA:152,0
DA:153,0
DA:154,0
DA:155,0
DA:156,0
DA:157,0
DA:179,256
DA:180,256
DA:181,256
DA:182,256
DA:184,256
DA:187,420
DA:188,420
DA:189,420
DA:194,420
DA:195,420
DA:196,0
DA:197,0
DA:198,0
DA:199,0
DA:200,0
DA:201,420
DA:202,420
DA:203,420
DA:204,420
DA:205,420
DA:209,420
DA:210,420
DA:211,420
DA:225,104
DA:226,104
DA:227,104
DA:230,0
DA:231,0
DA:232,0
DA:233,0
DA:234,0
DA:235,0
DA:236,0
DA:237,0
DA:238,0
DA:239,0
DA:240,0
DA:264,104
DA:265,104
DA:266,104
DA:267,104
DA:269,104
DA:272,167
DA:273,167
DA:274,167
DA:279,167
DA:280,167
DA:281,0
DA:282,0
DA:283,0
DA:284,0
DA:285,0
DA:286,167
DA:287,167
DA:288,167
DA:289,167
DA:290,167
DA:294,167
DA:295,167
DA:296,167
DA:309,98
DA:310,98
DA:311,98
DA:314,0
DA:315,0
DA:316,0
DA:317,0
DA:318,0
DA:319,0
DA:320,0
DA:321,0
DA:322,0
DA:323,0
DA:324,0
DA:347,98
DA:348,98
DA:349,98
DA:350,98
DA:352,98
DA:355,160
DA:356,160
DA:357,160
DA:362,160
DA:363,160
DA:364,0
DA:365,0
DA:366,0
DA:367,0
DA:368,0
DA:369,160
DA:370,160
DA:371,160
DA:372,160
DA:373,160
DA:377,160
DA:378,160
DA:379,160
DA:392,38
DA:393,38
DA:394,38
DA:397,0
DA:398,0
DA:399,0
DA:400,0
DA:401,0
DA:402,0
DA:403,0
DA:404,0
DA:405,0
DA:406,0
DA:407,0
DA:438,38
DA:439,38
DA:440,38
DA:441,38
DA:443,38
DA:447,61
DA:448,61
DA:449,61
DA:454,86
DA:455,86
DA:456,25
DA:457,25
DA:458,25
DA:459,25
DA:460,25
DA:461,61
DA:462,61
DA:463,61
DA:464,61
DA:465,86
DA:469,86
DA:470,86
DA:471,86
DA:484,8
DA:485,8
DA:486,8
DA:489,0
DA:490,0
DA:491,0
DA:492,0
DA:493,0
DA:494,0
DA:495,0
DA:496,0
DA:497,0
DA:498,0
DA:499,0
DA:535,8
DA:536,8
DA:537,8
DA:538,8
DA:540,8
DA:543,13
DA:544,13
DA:545,13
DA:550,37
DA:551,37
DA:552,24
DA:553,24
DA:554,24
DA:555,24
DA:556,24
DA:557,13
DA:558,13
DA:559,13
DA:560,13
DA:561,37
DA:565,37
DA:566,37
DA:567,37
DA:580,0
DA:581,0
DA:582,0
DA:585,0
DA:586,0
DA:587,0
DA:588,0
DA:589,0
DA:611,0
DA:612,0
DA:613,0
DA:614,0
DA:616,0
DA:619,50
DA:620,50
DA:621,50
DA:626,50
DA:627,50
DA:628,0
DA:629,0
DA:630,0
DA:631,0
DA:632,0
DA:633,50
DA:634,50
DA:635,50
DA:636,50
DA:637,50
DA:641,50
DA:642,50
DA:643,50
DA:656,0
DA:657,0
DA:658,0
DA:661,0
DA:662,0
DA:663,0
DA:664,0
DA:665,0
DA:687,0
DA:688,0
DA:689,0
DA:690,0
DA:692,0
DA:695,50
DA:696,50
DA:697,50
DA:701,50
DA:702,50
DA:703,0
DA:704,0
DA:705,0
DA:706,0
DA:707,0
DA:708,50
DA:709,50
DA:710,50
DA:711,50
DA:712,50
DA:716,50
DA:717,50
DA:718,50
DA:757,21
DA:758,21
DA:759,21
DA:763,41
DA:764,41
DA:765,20
DA:766,20
DA:767,20
DA:768,20
DA:769,20
DA:770,21
DA:771,21
DA:772,41
DA:776,41
DA:777,41
DA:778,41
DA:816,13
DA:817,13
DA:818,13
DA:822,39
DA:823,39
DA:824,26
DA:825,26
DA:826,26
DA:827,26
DA:828,26
DA:829,13
DA:830,13
DA:831,39
DA:835,39
DA:836,39
DA:837,39
DA:849,0
DA:850,0
DA:851,0
DA:852,0
DA:853,0
DA:869,0
DA:870,0
DA:871,0
DA:875,0
DA:876,0
DA:877,0
DA:878,0
DA:880,0
DA:883,1500
DA:884,1500
DA:885,1500
DA:890,1635
DA:891,1635
DA:892,135
DA:893,135
DA:894,135
DA:895,135
DA:896,135
DA:897,1500
DA:898,1500
DA:899,1500
DA:900,1500
DA:901,1635
DA:905,1635
DA:906,1635
DA:907,1635
BRF:0
BRH:0
LF:352
LH:232
end_of_record
SF:/home/akelbsch/projects/scion/endhost/public/scion-proto/sciparse/src/proto/payload/scmp/model.rs
FN:179,_RNCNvMs_NtNtNtNtCsdVnVozic4xr_8sciparse5proto7payload4scmp5modelNtB6_11ScmpMessage8dst_port0Be_
FN:1429,_RNCNvXs0_NtNtNtNtNtCsdVnVozic4xr_8sciparse5proto7payload4scmp5model5ptestNtB9_18ScmpMessageUnknownNtNtNtCskZahNybV1yu_8proptest9arbitrary6traits9Arbitrary14arbitrary_with0Bh_
FN:119,_RNvMNtNtNtNtCsdVnVozic4xr_8sciparse5proto7payload4scmp5modelNtB2_11ScmpMessage10from_slice
FN:125,_RNvMNtNtNtNtCsdVnVozic4xr_8sciparse5proto7payload4scmp5modelNtB2_11ScmpMessage9from_view
FN:577,_RNvMs8_NtNtNtNtCsdVnVozic4xr_8sciparse5proto7payload4scmp5modelNtB5_26ScmpDestinationUnreachable9from_view
FN:215,_RNvMs_NtNtNtNtCsdVnVozic4xr_8sciparse5proto7payload4scmp5modelNtB4_11ScmpMessage22try_into_error_message
FN:204,_RNvMs_NtNtNtNtCsdVnVozic4xr_8sciparse5proto7payload4scmp5modelNtB4_11ScmpMessage30try_into_informational_message
FN:178,_RNvMs_NtNtNtNtCsdVnVozic4xr_8sciparse5proto7payload4scmp5modelNtB4_11ScmpMessage8dst_port
FN:648,_RNvMsa_NtNtNtNtCsdVnVozic4xr_8sciparse5proto7payload4scmp5modelNtB5_16ScmpPacketTooBig9from_view
FN:725,_RNvMsc_NtNtNtNtCsdVnVozic4xr_8sciparse5proto7payload4scmp5modelNtB5_20ScmpParameterProblem9from_view
FN:800,_RNvMse_NtNtNtNtCsdVnVozic4xr_8sciparse5proto7payload4scmp5modelNtB5_25ScmpExternalInterfaceDown9from_view
FN:877,_RNvMsg_NtNtNtNtCsdVnVozic4xr_8sciparse5proto7payload4scmp5modelNtB5_28ScmpInternalConnectivityDown9from_view
FN:1006,_RNvMsi_NtNtNtNtCsdVnVozic4xr_8sciparse5proto7payload4scmp5modelNtB5_15ScmpEchoRequest9from_view
FN:1070,_RNvMsk_NtNtNtNtCsdVnVozic4xr_8sciparse5proto7payload4scmp5modelNtB5_13ScmpEchoReply9from_view
FN:1127,_RNvMsm_NtNtNtNtCsdVnVozic4xr_8sciparse5proto7payload4scmp5modelNtB5_21ScmpTracerouteRequest9from_view
FN:1190,_RNvMso_NtNtNtNtCsdVnVozic4xr_8sciparse5proto7payload4scmp5modelNtB5_19ScmpTracerouteReply9from_view
FN:1264,_RNvMsq_NtNtNtNtCsdVnVozic4xr_8sciparse5proto7payload4scmp5modelNtB5_18ScmpMessageUnknown9from_view
FN:242,_RNvXs0_NtNtNtNtCsdVnVozic4xr_8sciparse5proto7payload4scmp5modelRNtB5_11ScmpMessageNtNtB9_6encode13PayloadEncode10wire_valid
FN:227,_RNvXs0_NtNtNtNtCsdVnVozic4xr_8sciparse5proto7payload4scmp5modelRNtB5_11ScmpMessageNtNtB9_6encode13PayloadEncode13required_size
FN:257,_RNvXs0_NtNtNtNtCsdVnVozic4xr_8sciparse5proto7payload4scmp5modelRNtB5_11ScmpMessageNtNtB9_6encode13PayloadEncode16encode_unchecked
FN:1423,_RNvXs0_NtNtNtNtNtCsdVnVozic4xr_8sciparse5proto7payload4scmp5model5ptestNtB7_18ScmpMessageUnknownNtNtNtCskZahNybV1yu_8proptest9arbitrary6traits9Arbitrary14arbitrary_with
FN:303,_RNvXs1_NtNtNtNtCsdVnVozic4xr_8sciparse5proto7payload4scmp5modelNtB5_11ScmpMessageNtNtB9_6encode13PayloadEncode10wire_valid
FN:300,_RNvXs1_NtNtNtNtCsdVnVozic4xr_8sciparse5proto7payload4scmp5modelNtB5_11ScmpMessageNtNtB9_6encode13PayloadEncode13required_size
FN:306,_RNvXs1_NtNtNtNtCsdVnVozic4xr_8sciparse5proto7payload4scmp5modelNtB5_11ScmpMessageNtNtB9_6encode13PayloadEncode16encode_unchecked
FN:379,_RNvXs5_NtNtNtNtCsdVnVozic4xr_8sciparse5proto7payload4scmp5modelNtB5_16ScmpErrorMessageNtNtB9_6encode13PayloadEncode13required_size
FN:399,_RNvXs5_NtNtNtNtCsdVnVozic4xr_8sciparse5proto7payload4scmp5modelNtB5_16ScmpErrorMessageNtNtB9_6encode13PayloadEncode16encode_unchecked
FN:467,_RNvXs7_NtNtNtNtCsdVnVozic4xr_8sciparse5proto7payload4scmp5modelNtB5_24ScmpInformationalMessageNtNtB9_6encode13PayloadEncode13required_size
FN:485,_RNvXs7_NtNtNtNtCsdVnVozic4xr_8sciparse5proto7payload4scmp5modelNtB5_24ScmpInformationalMessageNtNtB9_6encode13PayloadEncode16encode_unchecked
FN:593,_RNvXs9_NtNtNtNtCsdVnVozic4xr_8sciparse5proto7payload4scmp5modelNtB5_26ScmpDestinationUnreachableNtNtB9_6encode13PayloadEncode10wire_valid
FN:585,_RNvXs9_NtNtNtNtCsdVnVozic4xr_8sciparse5proto7payload4scmp5modelNtB5_26ScmpDestinationUnreachableNtNtB9_6encode13PayloadEncode13required_size
FN:597,_RNvXs9_NtNtNtNtCsdVnVozic4xr_8sciparse5proto7payload4scmp5modelNtB5_26ScmpDestinationUnreachableNtNtB9_6encode13PayloadEncode16encode_unchecked
FN:1382,_RNvXs_NtNtNtNtNtCsdVnVozic4xr_8sciparse5proto7payload4scmp5model5ptestNtB6_11ScmpMessageNtNtNtCskZahNybV1yu_8proptest9arbitrary6traits9Arbitrary14arbitrary_with
FN:664,_RNvXsb_NtNtNtNtCsdVnVozic4xr_8sciparse5proto7payload4scmp5modelNtB5_16ScmpPacketTooBigNtNtB9_6encode13PayloadEncode10wire_valid
FN:656,_RNvXsb_NtNtNtNtCsdVnVozic4xr_8sciparse5proto7payload4scmp5modelNtB5_16ScmpPacketTooBigNtNtB9_6encode13PayloadEncode13required_size
FN:668,_RNvXsb_NtNtNtNtCsdVnVozic4xr_8sciparse5proto7payload4scmp5modelNtB5_16ScmpPacketTooBigNtNtB9_6encode13PayloadEncode16encode_unchecked
FN:742,_RNvXsd_NtNtNtNtCsdVnVozic4xr_8sciparse5proto7payload4scmp5modelNtB5_20ScmpParameterProblemNtNtB9_6encode13PayloadEncode10wire_valid
FN:734,_RNvXsd_NtNtNtNtCsdVnVozic4xr_8sciparse5proto7payload4scmp5modelNtB5_20ScmpParameterProblemNtNtB9_6encode13PayloadEncode13required_size
FN:746,_RNvXsd_NtNtNtNtCsdVnVozic4xr_8sciparse5proto7payload4scmp5modelNtB5_20ScmpParameterProblemNtNtB9_6encode13PayloadEncode16encode_unchecked
FN:817,_RNvXsf_NtNtNtNtCsdVnVozic4xr_8sciparse5proto7payload4scmp5modelNtB5_25ScmpExternalInterfaceDownNtNtB9_6encode13PayloadEncode10wire_valid
FN:809,_RNvXsf_NtNtNtNtCsdVnVozic4xr_8sciparse5proto7payload4scmp5modelNtB5_25ScmpExternalInterfaceDownNtNtB9_6encode13PayloadEncode13required_size
FN:821,_RNvXsf_NtNtNtNtCsdVnVozic4xr_8sciparse5proto7payload4scmp5modelNtB5_25ScmpExternalInterfaceDownNtNtB9_6encode13PayloadEncode16encode_unchecked
FN:895,_RNvXsh_NtNtNtNtCsdVnVozic4xr_8sciparse5proto7payload4scmp5modelNtB5_28ScmpInternalConnectivityDownNtNtB9_6encode13PayloadEncode10wire_valid
FN:887,_RNvXsh_NtNtNtNtCsdVnVozic4xr_8sciparse5proto7payload4scmp5modelNtB5_28ScmpInternalConnectivityDownNtNtB9_6encode13PayloadEncode13required_size
FN:899,_RNvXsh_NtNtNtNtCsdVnVozic4xr_8sciparse5proto7payload4scmp5modelNtB5_28ScmpInternalConnectivityDownNtNtB9_6encode13PayloadEncode16encode_unchecked
FN:1021,_RNvXsj_NtNtNtNtCsdVnVozic4xr_8sciparse5proto7payload4scmp5modelNtB5_15ScmpEchoRequestNtNtB9_6encode13PayloadEncode10wire_valid
FN:1017,_RNvXsj_NtNtNtNtCsdVnVozic4xr_8sciparse5proto7payload4scmp5modelNtB5_15ScmpEchoRequestNtNtB9_6encode13PayloadEncode13required_size
FN:1025,_RNvXsj_NtNtNtNtCsdVnVozic4xr_8sciparse5proto7payload4scmp5modelNtB5_15ScmpEchoRequestNtNtB9_6encode13PayloadEncode16encode_unchecked
FN:1085,_RNvXsl_NtNtNtNtCsdVnVozic4xr_8sciparse5proto7payload4scmp5modelNtB5_13ScmpEchoReplyNtNtB9_6encode13PayloadEncode10wire_valid
FN:1081,_RNvXsl_NtNtNtNtCsdVnVozic4xr_8sciparse5proto7payload4scmp5modelNtB5_13ScmpEchoReplyNtNtB9_6encode13PayloadEncode13required_size
FN:1089,_RNvXsl_NtNtNtNtCsdVnVozic4xr_8sciparse5proto7payload4scmp5modelNtB5_13ScmpEchoReplyNtNtB9_6encode13PayloadEncode16encode_unchecked
FN:1141,_RNvXsn_NtNtNtNtCsdVnVozic4xr_8sciparse5proto7payload4scmp5modelNtB5_21ScmpTracerouteRequestNtNtB9_6encode13PayloadEncode10wire_valid
FN:1137,_RNvXsn_NtNtNtNtCsdVnVozic4xr_8sciparse5proto7payload4scmp5modelNtB5_21ScmpTracerouteRequestNtNtB9_6encode13PayloadEncode13required_size
FN:1145,_RNvXsn_NtNtNtNtCsdVnVozic4xr_8sciparse5proto7payload4scmp5modelNtB5_21ScmpTracerouteRequestNtNtB9_6encode13PayloadEncode16encode_unchecked
FN:1206,_RNvXsp_NtNtNtNtCsdVnVozic4xr_8sciparse5proto7payload4scmp5modelNtB5_19ScmpTracerouteReplyNtNtB9_6encode13PayloadEncode10wire_valid
FN:1202,_RNvXsp_NtNtNtNtCsdVnVozic4xr_8sciparse5proto7payload4scmp5modelNtB5_19ScmpTracerouteReplyNtNtB9_6encode13PayloadEncode13required_size
FN:1210,_RNvXsp_NtNtNtNtCsdVnVozic4xr_8sciparse5proto7payload4scmp5modelNtB5_19ScmpTracerouteReplyNtNtB9_6encode13PayloadEncode16encode_unchecked
FN:1282,_RNvXsr_NtNtNtNtCsdVnVozic4xr_8sciparse5proto7payload4scmp5modelNtB5_18ScmpMessageUnknownNtNtB9_6encode13PayloadEncode10wire_valid
FN:1275,_RNvXsr_NtNtNtNtCsdVnVozic4xr_8sciparse5proto7payload4scmp5modelNtB5_18ScmpMessageUnknownNtNtB9_6encode13PayloadEncode13required_size
FN:1286,_RNvXsr_NtNtNtNtCsdVnVozic4xr_8sciparse5proto7payload4scmp5modelNtB5_18ScmpMessageUnknownNtNtB9_6encode13PayloadEncode16encode_unchecked
FN:543,_RNvMs12_NtNtNtNtCsdVnVozic4xr_8sciparse5proto7payload4scmp5modelNtB6_16ScmpPacketTooBig20get_offending_packet
FN:549,_RNvMs12_NtNtNtNtCsdVnVozic4xr_8sciparse5proto7payload4scmp5modelNtB6_16ScmpPacketTooBig20set_offending_packet
FN:534,_RNvMs12_NtNtNtNtCsdVnVozic4xr_8sciparse5proto7payload4scmp5modelNtB6_16ScmpPacketTooBig3new
FN:974,_RNvMs1K_NtNtNtNtCsdVnVozic4xr_8sciparse5proto7payload4scmp5modelNtB6_15ScmpEchoRequest3new
FN:974,_RNvMs1V_NtNtNtNtCsdVnVozic4xr_8sciparse5proto7payload4scmp5modelNtB6_13ScmpEchoReply3new
FN:543,_RNvMs1d_NtNtNtNtCsdVnVozic4xr_8sciparse5proto7payload4scmp5modelNtB6_20ScmpParameterProblem20get_offending_packet
FN:549,_RNvMs1d_NtNtNtNtCsdVnVozic4xr_8sciparse5proto7payload4scmp5modelNtB6_20ScmpParameterProblem20set_offending_packet
FN:534,_RNvMs1d_NtNtNtNtCsdVnVozic4xr_8sciparse5proto7payload4scmp5modelNtB6_20ScmpParameterProblem3new
FN:543,_RNvMs1o_NtNtNtNtCsdVnVozic4xr_8sciparse5proto7payload4scmp5modelNtB6_25ScmpExternalInterfaceDown20get_offending_packet
FN:549,_RNvMs1o_NtNtNtNtCsdVnVozic4xr_8sciparse5proto7payload4scmp5modelNtB6_25ScmpExternalInterfaceDown20set_offending_packet
FN:534,_RNvMs1o_NtNtNtNtCsdVnVozic4xr_8sciparse5proto7payload4scmp5modelNtB6_25ScmpExternalInterfaceDown3new
FN:543,_RNvMs1z_NtNtNtNtCsdVnVozic4xr_8sciparse5proto7payload4scmp5modelNtB6_28ScmpInternalConnectivityDown20get_offending_packet
FN:549,_RNvMs1z_NtNtNtNtCsdVnVozic4xr_8sciparse5proto7payload4scmp5modelNtB6_28ScmpInternalConnectivityDown20set_offending_packet
FN:534,_RNvMs1z_NtNtNtNtCsdVnVozic4xr_8sciparse5proto7payload4scmp5modelNtB6_28ScmpInternalConnectivityDown3new
FN:974,_RNvMs26_NtNtNtNtCsdVnVozic4xr_8sciparse5proto7payload4scmp5modelNtB6_21ScmpTracerouteRequest3new
FN:974,_RNvMs2h_NtNtNtNtCsdVnVozic4xr_8sciparse5proto7payload4scmp5modelNtB6_19ScmpTracerouteReply3new
FN:368,_RNvMs4_NtNtNtNtCsdVnVozic4xr_8sciparse5proto7payload4scmp5modelNtB5_16ScmpErrorMessage12message_type
FN:457,_RNvMs6_NtNtNtNtCsdVnVozic4xr_8sciparse5proto7payload4scmp5modelNtB5_24ScmpInformationalMessage12message_type
FN:543,_RNvMsR_NtNtNtNtCsdVnVozic4xr_8sciparse5proto7payload4scmp5modelNtB5_26ScmpDestinationUnreachable20get_offending_packet
FN:549,_RNvMsR_NtNtNtNtCsdVnVozic4xr_8sciparse5proto7payload4scmp5modelNtB5_26ScmpDestinationUnreachable20set_offending_packet
FN:534,_RNvMsR_NtNtNtNtCsdVnVozic4xr_8sciparse5proto7payload4scmp5modelNtB5_26ScmpDestinationUnreachable3new
FN:158,_RNvMs_NtNtNtNtCsdVnVozic4xr_8sciparse5proto7payload4scmp5modelNtB4_11ScmpMessage12message_type
FN:1255,_RNvMsq_NtNtNtNtCsdVnVozic4xr_8sciparse5proto7payload4scmp5modelNtB5_18ScmpMessageUnknown3new
FN:1362,_RNvXNtNtNtNtNtCsdVnVozic4xr_8sciparse5proto7payload4scmp5model5ptestNtB2_26ArbitraryScmpMessageParamsNtNtCs4eoa8Adtn6U_4core7default7Default7default
FN:555,_RNvXs13_NtNtNtNtCsdVnVozic4xr_8sciparse5proto7payload4scmp5modelNtB6_16ScmpErrorMessageINtNtCs4eoa8Adtn6U_4core7convert4FromNtB6_16ScmpPacketTooBigE4from
FN:560,_RNvXs14_NtNtNtNtCsdVnVozic4xr_8sciparse5proto7payload4scmp5modelNtB6_11ScmpMessageINtNtCs4eoa8Adtn6U_4core7convert4FromNtB6_16ScmpPacketTooBigE4from
FN:555,_RNvXs1A_NtNtNtNtCsdVnVozic4xr_8sciparse5proto7payload4scmp5modelNtB6_16ScmpErrorMessageINtNtCs4eoa8Adtn6U_4core7convert4FromNtB6_28ScmpInternalConnectivityDownE4from
FN:560,_RNvXs1B_NtNtNtNtCsdVnVozic4xr_8sciparse5proto7payload4scmp5modelNtB6_11ScmpMessageINtNtCs4eoa8Adtn6U_4core7convert4FromNtB6_28ScmpInternalConnectivityDownE4from
FN:984,_RNvXs1L_NtNtNtNtCsdVnVozic4xr_8sciparse5proto7payload4scmp5modelNtB6_24ScmpInformationalMessageINtNtCs4eoa8Adtn6U_4core7convert4FromNtB6_15ScmpEchoRequestE4from
FN:989,_RNvXs1M_NtNtNtNtCsdVnVozic4xr_8sciparse5proto7payload4scmp5modelNtB6_11ScmpMessageINtNtCs4eoa8Adtn6U_4core7convert4FromNtB6_15ScmpEchoRequestE4from
FN:984,_RNvXs1W_NtNtNtNtCsdVnVozic4xr_8sciparse5proto7payload4scmp5modelNtB6_24ScmpInformationalMessageINtNtCs4eoa8Adtn6U_4core7convert4FromNtB6_13ScmpEchoReplyE4from
FN:989,_RNvXs1X_NtNtNtNtCsdVnVozic4xr_8sciparse5proto7payload4scmp5modelNtB6_11ScmpMessageINtNtCs4eoa8Adtn6U_4core7convert4FromNtB6_13ScmpEchoReplyE4from
FN:555,_RNvXs1e_NtNtNtNtCsdVnVozic4xr_8sciparse5proto7payload4scmp5modelNtB6_16ScmpErrorMessageINtNtCs4eoa8Adtn6U_4core7convert4FromNtB6_20ScmpParameterProblemE4from
FN:560,_RNvXs1f_NtNtNtNtCsdVnVozic4xr_8sciparse5proto7payload4scmp5modelNtB6_11ScmpMessageINtNtCs4eoa8Adtn6U_4core7convert4FromNtB6_20ScmpParameterProblemE4from
FN:555,_RNvXs1p_NtNtNtNtCsdVnVozic4xr_8sciparse5proto7payload4scmp5modelNtB6_16ScmpErrorMessageINtNtCs4eoa8Adtn6U_4core7convert4FromNtB6_25ScmpExternalInterfaceDownE4from
FN:560,_RNvXs1q_NtNtNtNtCsdVnVozic4xr_8sciparse5proto7payload4scmp5modelNtB6_11ScmpMessageINtNtCs4eoa8Adtn6U_4core7convert4FromNtB6_25ScmpExternalInterfaceDownE4from
FN:984,_RNvXs27_NtNtNtNtCsdVnVozic4xr_8sciparse5proto7payload4scmp5modelNtB6_24ScmpInformationalMessageINtNtCs4eoa8Adtn6U_4core7convert4FromNtB6_21ScmpTracerouteRequestE4from
FN:989,_RNvXs28_NtNtNtNtCsdVnVozic4xr_8sciparse5proto7payload4scmp5modelNtB6_11ScmpMessageINtNtCs4eoa8Adtn6U_4core7convert4FromNtB6_21ScmpTracerouteRequestE4from
FN:316,_RNvXs2_NtNtNtNtCsdVnVozic4xr_8sciparse5proto7payload4scmp5modelNtB5_11ScmpMessageINtNtCs4eoa8Adtn6U_4core7convert4FromNtB5_16ScmpErrorMessageE4from
FN:984,_RNvXs2i_NtNtNtNtCsdVnVozic4xr_8sciparse5proto7payload4scmp5modelNtB6_24ScmpInformationalMessageINtNtCs4eoa8Adtn6U_4core7convert4FromNtB6_19ScmpTracerouteReplyE4from
FN:989,_RNvXs2j_NtNtNtNtCsdVnVozic4xr_8sciparse5proto7payload4scmp5modelNtB6_11ScmpMessageINtNtCs4eoa8Adtn6U_4core7convert4FromNtB6_19ScmpTracerouteReplyE4from
FN:327,_RNvXs3_NtNtNtNtCsdVnVozic4xr_8sciparse5proto7payload4scmp5modelNtB5_11ScmpMessageINtNtCs4eoa8Adtn6U_4core7convert4FromNtB5_24ScmpInformationalMessageE4from
FN:389,_RNvXs5_NtNtNtNtCsdVnVozic4xr_8sciparse5proto7payload4scmp5modelNtB5_16ScmpErrorMessageNtNtB9_6encode13PayloadEncode10wire_valid
FN:476,_RNvXs7_NtNtNtNtCsdVnVozic4xr_8sciparse5proto7payload4scmp5modelNtB5_24ScmpInformationalMessageNtNtB9_6encode13PayloadEncode10wire_valid
FN:555,_RNvXsS_NtNtNtNtCsdVnVozic4xr_8sciparse5proto7payload4scmp5modelNtB5_16ScmpErrorMessageINtNtCs4eoa8Adtn6U_4core7convert4FromNtB5_26ScmpDestinationUnreachableE4from
FN:560,_RNvXsT_NtNtNtNtCsdVnVozic4xr_8sciparse5proto7payload4scmp5modelNtB5_11ScmpMessageINtNtCs4eoa8Adtn6U_4core7convert4FromNtB5_26ScmpDestinationUnreachableE4from
FN:1321,_RNvXss_NtNtNtNtCsdVnVozic4xr_8sciparse5proto7payload4scmp5modelNtB5_11ScmpMessageINtNtCs4eoa8Adtn6U_4core7convert4FromNtB5_18ScmpMessageUnknownE4from
FNDA:0,_RNCNvMs_NtNtNtNtCsdVnVozic4xr_8sciparse5proto7payload4scmp5modelNtB6_11ScmpMessage8dst_port0Be_
FNDA:0,_RNCNvXs0_NtNtNtNtNtCsdVnVozic4xr_8sciparse5proto7payload4scmp5model5ptestNtB9_18ScmpMessageUnknownNtNtNtCskZahNybV1yu_8proptest9arbitrary6traits9Arbitrary14arbitrary_with0Bh_
FNDA:0,_RNvMNtNtNtNtCsdVnVozic4xr_8sciparse5proto7payload4scmp5modelNtB2_11ScmpMessage10from_slice
FNDA:0,_RNvMNtNtNtNtCsdVnVozic4xr_8sciparse5proto7payload4scmp5modelNtB2_11ScmpMessage9from_view
FNDA:0,_RNvMs8_NtNtNtNtCsdVnVozic4xr_8sciparse5proto7payload4scmp5modelNtB5_26ScmpDestinationUnreachable9from_view
FNDA:0,_RNvMs_NtNtNtNtCsdVnVozic4xr_8sciparse5proto7payload4scmp5modelNtB4_11ScmpMessage22try_into_error_message
FNDA:0,_RNvMs_NtNtNtNtCsdVnVozic4xr_8sciparse5proto7payload4scmp5modelNtB4_11ScmpMessage30try_into_informational_message
FNDA:0,_RNvMs_NtNtNtNtCsdVnVozic4xr_8sciparse5proto7payload4scmp5modelNtB4_11ScmpMessage8dst_port
FNDA:0,_RNvMsa_NtNtNtNtCsdVnVozic4xr_8sciparse5proto7payload4scmp5modelNtB5_16ScmpPacketTooBig9from_view
FNDA:0,_RNvMsc_NtNtNtNtCsdVnVozic4xr_8sciparse5proto7payload4scmp5modelNtB5_20ScmpParameterProblem9from_view
FNDA:0,_RNvMse_NtNtNtNtCsdVnVozic4xr_8sciparse5proto7payload4scmp5modelNtB5_25ScmpExternalInterfaceDown9from_view
FNDA:0,_RNvMsg_NtNtNtNtCsdVnVozic4xr_8sciparse5proto7payload4scmp5modelNtB5_28ScmpInternalConnectivityDown9from_view
FNDA:0,_RNvMsi_NtNtNtNtCsdVnVozic4xr_8sciparse5proto7payload4scmp5modelNtB5_15ScmpEchoRequest9from_view
FNDA:0,_RNvMsk_NtNtNtNtCsdVnVozic4xr_8sciparse5proto7payload4scmp5modelNtB5_13ScmpEchoReply9from_view
FNDA:0,_RNvMsm_NtNtNtNtCsdVnVozic4xr_8sciparse5proto7payload4scmp5modelNtB5_21ScmpTracerouteRequest9from_view
FNDA:0,_RNvMso_NtNtNtNtCsdVnVozic4xr_8sciparse5proto7payload4scmp5modelNtB5_19ScmpTracerouteReply9from_view
FNDA:0,_RNvMsq_NtNtNtNtCsdVnVozic4xr_8sciparse5proto7payload4scmp5modelNtB5_18ScmpMessageUnknown9from_view
FNDA:0,_RNvXs0_NtNtNtNtCsdVnVozic4xr_8sciparse5proto7payload4scmp5modelRNtB5_11ScmpMessageNtNtB9_6encode13PayloadEncode10wire_valid
FNDA:0,_RNvXs0_NtNtNtNtCsdVnVozic4xr_8sciparse5proto7payload4scmp5modelRNtB5_11ScmpMessageNtNtB9_6encode13PayloadEncode13required_size
FNDA:0,_RNvXs0_NtNtNtNtCsdVnVozic4xr_8sciparse5proto7payload4scmp5modelRNtB5_11ScmpMessageNtNtB9_6encode13PayloadEncode16encode_unchecked
FNDA:0,_RNvXs0_NtNtNtNtNtCsdVnVozic4xr_8sciparse5proto7payload4scmp5model5ptestNtB7_18ScmpMessageUnknownNtNtNtCskZahNybV1yu_8proptest9arbitrary6traits9Arbitrary14arbitrary_with
FNDA:0,_RNvXs1_NtNtNtNtCsdVnVozic4xr_8sciparse5proto7payload4scmp5modelNtB5_11ScmpMessageNtNtB9_6encode13PayloadEncode10wire_valid
FNDA:0,_RNvXs1_NtNtNtNtCsdVnVozic4xr_8sciparse5proto7payload4scmp5modelNtB5_11ScmpMessageNtNtB9_6encode13PayloadEncode13required_size
FNDA:0,_RNvXs1_NtNtNtNtCsdVnVozic4xr_8sciparse5proto7payload4scmp5modelNtB5_11ScmpMessageNtNtB9_6encode13PayloadEncode16encode_unchecked
FNDA:0,_RNvXs5_NtNtNtNtCsdVnVozic4xr_8sciparse5proto7payload4scmp5modelNtB5_16ScmpErrorMessageNtNtB9_6encode13PayloadEncode13required_size
FNDA:0,_RNvXs5_NtNtNtNtCsdVnVozic4xr_8sciparse5proto7payload4scmp5modelNtB5_16ScmpErrorMessageNtNtB9_6encode13PayloadEncode16encode_unchecked
FNDA:0,_RNvXs7_NtNtNtNtCsdVnVozic4xr_8sciparse5proto7payload4scmp5modelNtB5_24ScmpInformationalMessageNtNtB9_6encode13PayloadEncode13required_size
FNDA:0,_RNvXs7_NtNtNtNtCsdVnVozic4xr_8sciparse5proto7payload4scmp5modelNtB5_24ScmpInformationalMessageNtNtB9_6encode13PayloadEncode16encode_unchecked
FNDA:0,_RNvXs9_NtNtNtNtCsdVnVozic4xr_8sciparse5proto7payload4scmp5modelNtB5_26ScmpDestinationUnreachableNtNtB9_6encode13PayloadEncode10wire_valid
FNDA:0,_RNvXs9_NtNtNtNtCsdVnVozic4xr_8sciparse5proto7payload4scmp5modelNtB5_26ScmpDestinationUnreachableNtNtB9_6encode13PayloadEncode13required_size
FNDA:0,_RNvXs9_NtNtNtNtCsdVnVozic4xr_8sciparse5proto7payload4scmp5modelNtB5_26ScmpDestinationUnreachableNtNtB9_6encode13PayloadEncode16encode_unchecked
FNDA:0,_RNvXs_NtNtNtNtNtCsdVnVozic4xr_8sciparse5proto7payload4scmp5model5ptestNtB6_11ScmpMessageNtNtNtCskZahNybV1yu_8proptest9arbitrary6traits9Arbitrary14arbitrary_with
FNDA:0,_RNvXsb_NtNtNtNtCsdVnVozic4xr_8sciparse5proto7payload4scmp5modelNtB5_16ScmpPacketTooBigNtNtB9_6encode13PayloadEncode10wire_valid
FNDA:0,_RNvXsb_NtNtNtNtCsdVnVozic4xr_8sciparse5proto7payload4scmp5modelNtB5_16ScmpPacketTooBigNtNtB9_6encode13PayloadEncode13required_size
FNDA:0,_RNvXsb_NtNtNtNtCsdVnVozic4xr_8sciparse5proto7payload4scmp5modelNtB5_16ScmpPacketTooBigNtNtB9_6encode13PayloadEncode16encode_unchecked
FNDA:0,_RNvXsd_NtNtNtNtCsdVnVozic4xr_8sciparse5proto7payload4scmp5modelNtB5_20ScmpParameterProblemNtNtB9_6encode13PayloadEncode10wire_valid
FNDA:0,_RNvXsd_NtNtNtNtCsdVnVozic4xr_8sciparse5proto7payload4scmp5modelNtB5_20ScmpParameterProblemNtNtB9_6encode13PayloadEncode13required_size
FNDA:0,_RNvXsd_NtNtNtNtCsdVnVozic4xr_8sciparse5proto7payload4scmp5modelNtB5_20ScmpParameterProblemNtNtB9_6encode13PayloadEncode16encode_unchecked
FNDA:0,_RNvXsf_NtNtNtNtCsdVnVozic4xr_8sciparse5proto7payload4scmp5modelNtB5_25ScmpExternalInterfaceDownNtNtB9_6encode13PayloadEncode10wire_valid
FNDA:0,_RNvXsf_NtNtNtNtCsdVnVozic4xr_8sciparse5proto7payload4scmp5modelNtB5_25ScmpExternalInterfaceDownNtNtB9_6encode13PayloadEncode13required_size
FNDA:0,_RNvXsf_NtNtNtNtCsdVnVozic4xr_8sciparse5proto7payload4scmp5modelNtB5_25ScmpExternalInterfaceDownNtNtB9_6encode13PayloadEncode16encode_unchecked
FNDA:0,_RNvXsh_NtNtNtNtCsdVnVozic4xr_8sciparse5proto7payload4scmp5modelNtB5_28ScmpInternalConnectivityDownNtNtB9_6encode13PayloadEncode10wire_valid
FNDA:0,_RNvXsh_NtNtNtNtCsdVnVozic4xr_8sciparse5proto7payload4scmp5modelNtB5_28ScmpInternalConnectivityDownNtNtB9_6encode13PayloadEncode13required_size
FNDA:0,_RNvXsh_NtNtNtNtCsdVnVozic4xr_8sciparse5proto7payload4scmp5modelNtB5_28ScmpInternalConnectivityDownNtNtB9_6encode13PayloadEncode16encode_unchecked
FNDA:0,_RNvXsj_NtNtNtNtCsdVnVozic4xr_8sciparse5proto7payload4scmp5modelNtB5_15ScmpEchoRequestNtNtB9_6encode13PayloadEncode10wire_valid
FNDA:0,_RNvXsj_NtNtNtNtCsdVnVozic4xr_8sciparse5proto7payload4scmp5modelNtB5_15ScmpEchoRequestNtNtB9_6encode13PayloadEncode13required_size
FNDA:0,_RNvXsj_NtNtNtNtCsdVnVozic4xr_8sciparse5proto7payload4scmp5modelNtB5_15ScmpEchoRequestNtNtB9_6encode13PayloadEncode16encode_unchecked
FNDA:0,_RNvXsl_NtNtNtNtCsdVnVozic4xr_8sciparse5proto7payload4scmp5modelNtB5_13ScmpEchoReplyNtNtB9_6encode13PayloadEncode10wire_valid
FNDA:0,_RNvXsl_NtNtNtNtCsdVnVozic4xr_8sciparse5proto7payload4scmp5modelNtB5_13ScmpEchoReplyNtNtB9_6encode13PayloadEncode13required_size
FNDA:0,_RNvXsl_NtNtNtNtCsdVnVozic4xr_8sciparse5proto7payload4scmp5modelNtB5_13ScmpEchoReplyNtNtB9_6encode13PayloadEncode16encode_unchecked
FNDA:0,_RNvXsn_NtNtNtNtCsdVnVozic4xr_8sciparse5proto7payload4scmp5modelNtB5_21ScmpTracerouteRequestNtNtB9_6encode13PayloadEncode10wire_valid
FNDA:0,_RNvXsn_NtNtNtNtCsdVnVozic4xr_8sciparse5proto7payload4scmp5modelNtB5_21ScmpTracerouteRequestNtNtB9_6encode13PayloadEncode13required_size
FNDA:0,_RNvXsn_NtNtNtNtCsdVnVozic4xr_8sciparse5proto7payload4scmp5modelNtB5_21ScmpTracerouteRequestNtNtB9_6encode13PayloadEncode16encode_unchecked
FNDA:0,_RNvXsp_NtNtNtNtCsdVnVozic4xr_8sciparse5proto7payload4scmp5modelNtB5_19ScmpTracerouteReplyNtNtB9_6encode13PayloadEncode10wire_valid
FNDA:0,_RNvXsp_NtNtNtNtCsdVnVozic4xr_8sciparse5proto7payload4scmp5modelNtB5_19ScmpTracerouteReplyNtNtB9_6encode13PayloadEncode13required_size
FNDA:0,_RNvXsp_NtNtNtNtCsdVnVozic4xr_8sciparse5proto7payload4scmp5modelNtB5_19ScmpTracerouteReplyNtNtB9_6encode13PayloadEncode16encode_unchecked
FNDA:0,_RNvXsr_NtNtNtNtCsdVnVozic4xr_8sciparse5proto7payload4scmp5modelNtB5_18ScmpMessageUnknownNtNtB9_6encode13PayloadEncode10wire_valid
FNDA:0,_RNvXsr_NtNtNtNtCsdVnVozic4xr_8sciparse5proto7payload4scmp5modelNtB5_18ScmpMessageUnknownNtNtB9_6encode13PayloadEncode13required_size
FNDA:0,_RNvXsr_NtNtNtNtCsdVnVozic4xr_8sciparse5proto7payload4scmp5modelNtB5_18ScmpMessageUnknownNtNtB9_6encode13PayloadEncode16encode_unchecked
FNDA:0,_RNvMs12_NtNtNtNtCsdVnVozic4xr_8sciparse5proto7payload4scmp5modelNtB6_16ScmpPacketTooBig20get_offending_packet
FNDA:0,_RNvMs12_NtNtNtNtCsdVnVozic4xr_8sciparse5proto7payload4scmp5modelNtB6_16ScmpPacketTooBig20set_offending_packet
FNDA:0,_RNvMs12_NtNtNtNtCsdVnVozic4xr_8sciparse5proto7payload4scmp5modelNtB6_16ScmpPacketTooBig3new
FNDA:0,_RNvMs1K_NtNtNtNtCsdVnVozic4xr_8sciparse5proto7payload4scmp5modelNtB6_15ScmpEchoRequest3new
FNDA:0,_RNvMs1V_NtNtNtNtCsdVnVozic4xr_8sciparse5proto7payload4scmp5modelNtB6_13ScmpEchoReply3new
FNDA:0,_RNvMs1d_NtNtNtNtCsdVnVozic4xr_8sciparse5proto7payload4scmp5modelNtB6_20ScmpParameterProblem20get_offending_packet
FNDA:0,_RNvMs1d_NtNtNtNtCsdVnVozic4xr_8sciparse5proto7payload4scmp5modelNtB6_20ScmpParameterProblem20set_offending_packet
FNDA:0,_RNvMs1d_NtNtNtNtCsdVnVozic4xr_8sciparse5proto7payload4scmp5modelNtB6_20ScmpParameterProblem3new
FNDA:0,_RNvMs1o_NtNtNtNtCsdVnVozic4xr_8sciparse5proto7payload4scmp5modelNtB6_25ScmpExternalInterfaceDown20get_offending_packet
FNDA:0,_RNvMs1o_NtNtNtNtCsdVnVozic4xr_8sciparse5proto7payload4scmp5modelNtB6_25ScmpExternalInterfaceDown20set_offending_packet
FNDA:0,_RNvMs1o_NtNtNtNtCsdVnVozic4xr_8sciparse5proto7payload4scmp5modelNtB6_25ScmpExternalInterfaceDown3new
FNDA:0,_RNvMs1z_NtNtNtNtCsdVnVozic4xr_8sciparse5proto7payload4scmp5modelNtB6_28ScmpInternalConnectivityDown20get_offending_packet
FNDA:0,_RNvMs1z_NtNtNtNtCsdVnVozic4xr_8sciparse5proto7payload4scmp5modelNtB6_28ScmpInternalConnectivityDown20set_offending_packet
FNDA:0,_RNvMs1z_NtNtNtNtCsdVnVozic4xr_8sciparse5proto7payload4scmp5modelNtB6_28ScmpInternalConnectivityDown3new
FNDA:0,_RNvMs26_NtNtNtNtCsdVnVozic4xr_8sciparse5proto7payload4scmp5modelNtB6_21ScmpTracerouteRequest3new
FNDA:0,_RNvMs2h_NtNtNtNtCsdVnVozic4xr_8sciparse5proto7payload4scmp5modelNtB6_19ScmpTracerouteReply3new
FNDA:0,_RNvMs4_NtNtNtNtCsdVnVozic4xr_8sciparse5proto7payload4scmp5modelNtB5_16ScmpErrorMessage12message_type
FNDA:0,_RNvMs6_NtNtNtNtCsdVnVozic4xr_8sciparse5proto7payload4scmp5modelNtB5_24ScmpInformationalMessage12message_type
FNDA:0,_RNvMsR_NtNtNtNtCsdVnVozic4xr_8sciparse5proto7payload4scmp5modelNtB5_26ScmpDestinationUnreachable20get_offending_packet
FNDA:0,_RNvMsR_NtNtNtNtCsdVnVozic4xr_8sciparse5proto7payload4scmp5modelNtB5_26ScmpDestinationUnreachable20set_offending_packet
FNDA:0,_RNvMsR_NtNtNtNtCsdVnVozic4xr_8sciparse5proto7payload4scmp5modelNtB5_26ScmpDestinationUnreachable3new
FNDA:0,_RNvMs_NtNtNtNtCsdVnVozic4xr_8sciparse5proto7payload4scmp5modelNtB4_11ScmpMessage12message_type
FNDA:0,_RNvMsq_NtNtNtNtCsdVnVozic4xr_8sciparse5proto7payload4scmp5modelNtB5_18ScmpMessageUnknown3new
FNDA:0,_RNvXNtNtNtNtNtCsdVnVozic4xr_8sciparse5proto7payload4scmp5model5ptestNtB2_26ArbitraryScmpMessageParamsNtNtCs4eoa8Adtn6U_4core7default7Default7default
FNDA:0,_RNvXs13_NtNtNtNtCsdVnVozic4xr_8sciparse5proto7payload4scmp5modelNtB6_16ScmpErrorMessageINtNtCs4eoa8Adtn6U_4core7convert4FromNtB6_16ScmpPacketTooBigE4from
FNDA:0,_RNvXs14_NtNtNtNtCsdVnVozic4xr_8sciparse5proto7payload4scmp5modelNtB6_11ScmpMessageINtNtCs4eoa8Adtn6U_4core7convert4FromNtB6_16ScmpPacketTooBigE4from
FNDA:0,_RNvXs1A_NtNtNtNtCsdVnVozic4xr_8sciparse5proto7payload4scmp5modelNtB6_16ScmpErrorMessageINtNtCs4eoa8Adtn6U_4core7convert4FromNtB6_28ScmpInternalConnectivityDownE4from
FNDA:0,_RNvXs1B_NtNtNtNtCsdVnVozic4xr_8sciparse5proto7payload4scmp5modelNtB6_11ScmpMessageINtNtCs4eoa8Adtn6U_4core7convert4FromNtB6_28ScmpInternalConnectivityDownE4from
FNDA:0,_RNvXs1L_NtNtNtNtCsdVnVozic4xr_8sciparse5proto7payload4scmp5modelNtB6_24ScmpInformationalMessageINtNtCs4eoa8Adtn6U_4core7convert4FromNtB6_15ScmpEchoRequestE4from
FNDA:0,_RNvXs1M_NtNtNtNtCsdVnVozic4xr_8sciparse5proto7payload4scmp5modelNtB6_11ScmpMessageINtNtCs4eoa8Adtn6U_4core7convert4FromNtB6_15ScmpEchoRequestE4from
FNDA:0,_RNvXs1W_NtNtNtNtCsdVnVozic4xr_8sciparse5proto7payload4scmp5modelNtB6_24ScmpInformationalMessageINtNtCs4eoa8Adtn6U_4core7convert4FromNtB6_13ScmpEchoReplyE4from
FNDA:0,_RNvXs1X_NtNtNtNtCsdVnVozic4xr_8sciparse5proto7payload4scmp5modelNtB6_11ScmpMessageINtNtCs4eoa8Adtn6U_4core7convert4FromNtB6_13ScmpEchoReplyE4from
FNDA:0,_RNvXs1e_NtNtNtNtCsdVnVozic4xr_8sciparse5proto7payload4scmp5modelNtB6_16ScmpErrorMessageINtNtCs4eoa8Adtn6U_4core7convert4FromNtB6_20ScmpParameterProblemE4from
FNDA:0,_RNvXs1f_NtNtNtNtCsdVnVozic4xr_8sciparse5proto7payload4scmp5modelNtB6_11ScmpMessageINtNtCs4eoa8Adtn6U_4core7convert4FromNtB6_20ScmpParameterProblemE4from
FNDA:0,_RNvXs1p_NtNtNtNtCsdVnVozic4xr_8sciparse5proto7payload4scmp5modelNtB6_16ScmpErrorMessageINtNtCs4eoa8Adtn6U_4core7convert4FromNtB6_25ScmpExternalInterfaceDownE4from
FNDA:0,_RNvXs1q_NtNtNtNtCsdVnVozic4xr_8sciparse5proto7payload4scmp5modelNtB6_11ScmpMessageINtNtCs4eoa8Adtn6U_4core7convert4FromNtB6_25ScmpExternalInterfaceDownE4from
FNDA:0,_RNvXs27_NtNtNtNtCsdVnVozic4xr_8sciparse5proto7payload4scmp5modelNtB6_24ScmpInformationalMessageINtNtCs4eoa8Adtn6U_4core7convert4FromNtB6_21ScmpTracerouteRequestE4from
FNDA:0,_RNvXs28_NtNtNtNtCsdVnVozic4xr_8sciparse5proto7payload4scmp5modelNtB6_11ScmpMessageINtNtCs4eoa8Adtn6U_4core7convert4FromNtB6_21ScmpTracerouteRequestE4from
FNDA:0,_RNvXs2_NtNtNtNtCsdVnVozic4xr_8sciparse5proto7payload4scmp5modelNtB5_11ScmpMessageINtNtCs4eoa8Adtn6U_4core7convert4FromNtB5_16ScmpErrorMessageE4from
FNDA:0,_RNvXs2i_NtNtNtNtCsdVnVozic4xr_8sciparse5proto7payload4scmp5modelNtB6_24ScmpInformationalMessageINtNtCs4eoa8Adtn6U_4core7convert4FromNtB6_19ScmpTracerouteReplyE4from
FNDA:0,_RNvXs2j_NtNtNtNtCsdVnVozic4xr_8sciparse5proto7payload4scmp5modelNtB6_11ScmpMessageINtNtCs4eoa8Adtn6U_4core7convert4FromNtB6_19ScmpTracerouteReplyE4from
FNDA:0,_RNvXs3_NtNtNtNtCsdVnVozic4xr_8sciparse5proto7payload4scmp5modelNtB5_11ScmpMessageINtNtCs4eoa8Adtn6U_4core7convert4FromNtB5_24ScmpInformationalMessageE4from
FNDA:0,_RNvXs5_NtNtNtNtCsdVnVozic4xr_8sciparse5proto7payload4scmp5modelNtB5_16ScmpErrorMessageNtNtB9_6encode13PayloadEncode10wire_valid
FNDA:0,_RNvXs7_NtNtNtNtCsdVnVozic4xr_8sciparse5proto7payload4scmp5modelNtB5_24ScmpInformationalMessageNtNtB9_6encode13PayloadEncode10wire_valid
FNDA:0,_RNvXsS_NtNtNtNtCsdVnVozic4xr_8sciparse5proto7payload4scmp5modelNtB5_16ScmpErrorMessageINtNtCs4eoa8Adtn6U_4core7convert4FromNtB5_26ScmpDestinationUnreachableE4from
FNDA:0,_RNvXsT_NtNtNtNtCsdVnVozic4xr_8sciparse5proto7payload4scmp5modelNtB5_11ScmpMessageINtNtCs4eoa8Adtn6U_4core7convert4FromNtB5_26ScmpDestinationUnreachableE4from
FNDA:0,_RNvXss_NtNtNtNtCsdVnVozic4xr_8sciparse5proto7payload4scmp5modelNtB5_11ScmpMessageINtNtCs4eoa8Adtn6U_4core7convert4FromNtB5_18ScmpMessageUnknownE4from
FNF:77
FNH:0
DA:119,0
DA:120,0
DA:121,0
DA:122,0
DA:125,0
DA:126,0
DA:127,0
DA:128,0
DA:130,0
DA:131,0
DA:133,0
DA:134,0
DA:136,0
DA:137,0
DA:139,0
DA:140,0
DA:142,0
DA:143,0
DA:145,0
DA:146,0
DA:147,0
DA:149,0
DA:150,0
DA:152,0
DA:154,0
DA:158,0
DA:159,0
DA:160,0
DA:161,0
DA:162,0
DA:163,0
DA:164,0
DA:165,0
DA:166,0
DA:167,0
DA:168,0
DA:169,0
DA:171,0
DA:178,0
DA:179,0
DA:180,0
DA:181,0
DA:182,0
DA:184,0
DA:185,0
DA:186,0
DA:187,0
DA:188,0
DA:189,0
DA:190,0
DA:191,0
DA:192,0
DA:193,0
DA:194,0
DA:195,0
DA:196,0
DA:197,0
DA:198,0
DA:199,0
DA:201,0
DA:204,0
DA:205,0
DA:206,0
DA:207,0
DA:208,0
DA:209,0
DA:210,0
DA:212,0
DA:215,0
DA:216,0
DA:217,0
DA:218,0
DA:219,0
DA:220,0
DA:221,0
DA:222,0
DA:224,0
DA:227,0
DA:228,0
DA:229,0
DA:230,0
DA:231,0
DA:232,0
DA:233,0
DA:234,0
DA:235,0
DA:236,0
DA:237,0
DA:238,0
DA:240,0
DA:242,0
DA:243,0
DA:244,0
DA:245,0
DA:246,0
DA:247,0
DA:248,0
DA:249,0
DA:250,0
DA:251,0
DA:252,0
DA:253,0
DA:255,0
DA:257,0
DA:258,0
DA:259,0
DA:260,0
DA:261,0
DA:262,0
DA:264,0
DA:265,0
DA:266,0
DA:268,0
DA:269,0
DA:271,0
DA:272,0
DA:274,0
DA:275,0
DA:277,0
DA:278,0
DA:280,0
DA:281,0
DA:283,0
DA:284,0
DA:286,0
DA:287,0
DA:289,0
DA:290,0
DA:292,0
DA:293,0
DA:297,0
DA:300,0
DA:301,0
DA:302,0
DA:303,0
DA:304,0
DA:305,0
DA:306,0
DA:307,0
DA:308,0
DA:309,0
DA:310,0
DA:311,0
DA:312,0
DA:313,0
DA:316,0
DA:317,0
DA:318,0
DA:319,0
DA:320,0
DA:321,0
DA:322,0
DA:324,0
DA:327,0
DA:328,0
DA:329,0
DA:330,0
DA:331,0
DA:332,0
DA:334,0
DA:368,0
DA:369,0
DA:370,0
DA:371,0
DA:372,0
DA:373,0
DA:374,0
DA:376,0
DA:379,0
DA:380,0
DA:381,0
DA:382,0
DA:383,0
DA:384,0
DA:385,0
DA:387,0
DA:389,0
DA:390,0
DA:391,0
DA:392,0
DA:393,0
DA:394,0
DA:395,0
DA:397,0
DA:399,0
DA:400,0
DA:401,0
DA:402,0
DA:403,0
DA:404,0
DA:406,0
DA:407,0
DA:408,0
DA:410,0
DA:411,0
DA:413,0
DA:414,0
DA:416,0
DA:417,0
DA:419,0
DA:420,0
DA:424,0
DA:457,0
DA:458,0
DA:459,0
DA:460,0
DA:461,0
DA:462,0
DA:464,0
DA:467,0
DA:468,0
DA:469,0
DA:470,0
DA:471,0
DA:472,0
DA:474,0
DA:476,0
DA:477,0
DA:478,0
DA:479,0
DA:480,0
DA:481,0
DA:483,0
DA:485,0
DA:486,0
DA:487,0
DA:488,0
DA:489,0
DA:490,0
DA:492,0
DA:493,0
DA:494,0
DA:496,0
DA:497,0
DA:499,0
DA:500,0
DA:502,0
DA:503,0
DA:507,0
DA:534,0
DA:535,0
DA:536,0
DA:537,0
DA:538,0
DA:539,0
DA:543,0
DA:544,0
DA:545,0
DA:549,0
DA:550,0
DA:551,0
DA:555,0
DA:556,0
DA:557,0
DA:560,0
DA:561,0
DA:562,0
DA:577,0
DA:578,0
DA:579,0
DA:580,0
DA:581,0
DA:582,0
DA:585,0
DA:586,0
DA:587,0
DA:588,0
DA:589,0
DA:590,0
DA:591,0
DA:593,0
DA:594,0
DA:595,0
DA:597,0
DA:598,0
DA:599,0
DA:600,0
DA:601,0
DA:602,0
DA:605,0
DA:606,0
DA:608,0
DA:610,0
DA:611,0
DA:612,0
DA:614,0
DA:615,0
DA:616,0
DA:618,0
DA:619,0
DA:621,0
DA:622,0
DA:623,0
DA:626,0
DA:627,0
DA:628,0
DA:629,0
DA:630,0
DA:631,0
DA:632,0
DA:633,0
DA:635,0
DA:648,0
DA:649,0
DA:650,0
DA:651,0
DA:652,0
DA:653,0
DA:656,0
DA:657,0
DA:658,0
DA:659,0
DA:660,0
DA:661,0
DA:662,0
DA:664,0
DA:665,0
DA:666,0
DA:668,0
DA:669,0
DA:670,0
DA:671,0
DA:672,0
DA:673,0
DA:676,0
DA:677,0
DA:679,0
DA:681,0
DA:682,0
DA:683,0
DA:684,0
DA:686,0
DA:687,0
DA:688,0
DA:690,0
DA:691,0
DA:693,0
DA:694,0
DA:695,0
DA:698,0
DA:699,0
DA:700,0
DA:701,0
DA:702,0
DA:703,0
DA:704,0
DA:705,0
DA:707,0
DA:725,0
DA:726,0
DA:727,0
DA:728,0
DA:729,0
DA:730,0
DA:731,0
DA:734,0
DA:735,0
DA:736,0
DA:737,0
DA:738,0
DA:739,0
DA:740,0
DA:742,0
DA:743,0
DA:744,0
DA:746,0
DA:747,0
DA:748,0
DA:749,0
DA:750,0
DA:751,0
DA:754,0
DA:755,0
DA:757,0
DA:759,0
DA:760,0
DA:761,0
DA:762,0
DA:764,0
DA:765,0
DA:766,0
DA:768,0
DA:769,0
DA:771,0
DA:772,0
DA:773,0
DA:776,0
DA:777,0
DA:778,0
DA:779,0
DA:780,0
DA:781,0
DA:782,0
DA:783,0
DA:785,0
DA:800,0
DA:801,0
DA:802,0
DA:803,0
DA:804,0
DA:805,0
DA:806,0
DA:809,0
DA:810,0
DA:811,0
DA:812,0
DA:813,0
DA:814,0
DA:815,0
DA:817,0
DA:818,0
DA:819,0
DA:821,0
DA:822,0
DA:823,0
DA:824,0
DA:825,0
DA:826,0
DA:829,0
DA:830,0
DA:832,0
DA:834,0
DA:835,0
DA:836,0
DA:837,0
DA:839,0
DA:840,0
DA:841,0
DA:843,0
DA:844,0
DA:846,0
DA:847,0
DA:848,0
DA:851,0
DA:852,0
DA:853,0
DA:854,0
DA:855,0
DA:856,0
DA:857,0
DA:858,0
DA:860,0
DA:877,0
DA:878,0
DA:879,0
DA:880,0
DA:881,0
DA:882,0
DA:883,0
DA:884,0
DA:887,0
DA:888,0
DA:889,0
DA:890,0
DA:891,0
DA:892,0
DA:893,0
DA:895,0
DA:896,0
DA:897,0
DA:899,0
DA:900,0
DA:901,0
DA:902,0
DA:903,0
DA:904,0
DA:907,0
DA:908,0
DA:910,0
DA:912,0
DA:913,0
DA:914,0
DA:915,0
DA:916,0
DA:918,0
DA:920,0
DA:921,0
DA:923,0
DA:926,0
DA:927,0
DA:928,0
DA:930,0
DA:931,0
DA:933,0
DA:934,0
DA:935,0
DA:938,0
DA:939,0
DA:940,0
DA:941,0
DA:942,0
DA:943,0
DA:944,0
DA:945,0
DA:947,0
DA:974,0
DA:975,0
DA:976,0
DA:977,0
DA:978,0
DA:979,0
DA:980,0
DA:984,0
DA:985,0
DA:986,0
DA:989,0
DA:990,0
DA:991,0
DA:1006,0
DA:1007,0
DA:1008,0
DA:1009,0
DA:1010,0
DA:1011,0
DA:1012,0
DA:1017,0
DA:1018,0
DA:1019,0
DA:1021,0
DA:1022,0
DA:1023,0
DA:1025,0
DA:1026,0
DA:1027,0
DA:1028,0
DA:1029,0
DA:1030,0
DA:1033,0
DA:1034,0
DA:1036,0
DA:1038,0
DA:1039,0
DA:1040,0
DA:1041,0
DA:1042,0
DA:1043,0
DA:1044,0
DA:1045,0
DA:1046,0
DA:1049,0
DA:1050,0
DA:1051,0
DA:1052,0
DA:1053,0
DA:1054,0
DA:1055,0
DA:1056,0
DA:1058,0
DA:1070,0
DA:1071,0
DA:1072,0
DA:1073,0
DA:1074,0
DA:1075,0
DA:1076,0
DA:1081,0
DA:1082,0
DA:1083,0
DA:1085,0
DA:1086,0
DA:1087,0
DA:1089,0
DA:1090,0
DA:1091,0
DA:1092,0
DA:1093,0
DA:1094,0
DA:1097,0
DA:1098,0
DA:1099,0
DA:1100,0
DA:1101,0
DA:1102,0
DA:1103,0
DA:1104,0
DA:1105,0
DA:1106,0
DA:1109,0
DA:1110,0
DA:1111,0
DA:1112,0
DA:1113,0
DA:1114,0
DA:1115,0
DA:1116,0
DA:1118,0
DA:1127,0
DA:1128,0
DA:1129,0
DA:1130,0
DA:1131,0
DA:1132,0
DA:1137,0
DA:1138,0
DA:1139,0
DA:1141,0
DA:1142,0
DA:1143,0
DA:1145,0
DA:1146,0
DA:1147,0
DA:1148,0
DA:1149,0
DA:1150,0
DA:1153,0
DA:1154,0
DA:1156,0
DA:1158,0
DA:1159,0
DA:1160,0
DA:1161,0
DA:1163,0
DA:1164,0
DA:1167,0
DA:1168,0
DA:1169,0
DA:1170,0
DA:1171,0
DA:1172,0
DA:1173,0
DA:1174,0
DA:1176,0
DA:1190,0
DA:1191,0
DA:1192,0
DA:1193,0
DA:1194,0
DA:1195,0
DA:1196,0
DA:1197,0
DA:1202,0
DA:1203,0
DA:1204,0
DA:1206,0
DA:1207,0
DA:1208,0
DA:1210,0
DA:1211,0
DA:1212,0
DA:1213,0
DA:1214,0
DA:1215,0
DA:1218,0
DA:1219,0
DA:1221,0
DA:1223,0
DA:1224,0
DA:1225,0
DA:1226,0
DA:1227,0
DA:1228,0
DA:1231,0
DA:1232,0
DA:1233,0
DA:1234,0
DA:1235,0
DA:1236,0
DA:1237,0
DA:1238,0
DA:1240,0
DA:1255,0
DA:1256,0
DA:1257,0
DA:1258,0
DA:1259,0
DA:1260,0
DA:1261,0
DA:1264,0
DA:1265,0
DA:1266,0
DA:1267,0
DA:1268,0
DA:1269,0
DA:1270,0
DA:1275,0
DA:1276,0
DA:1277,0
DA:1278,0
DA:1279,0
DA:1280,0
DA:1282,0
DA:1283,0
DA:1284,0
DA:1286,0
DA:1287,0
DA:1288,0
DA:1289,0
DA:1290,0
DA:1291,0
DA:1295,0
DA:1296,0
DA:1297,0
DA:1299,0
DA:1300,0
DA:1303,0
DA:1304,0
DA:1305,0
DA:1306,0
DA:1308,0
DA:1309,0
DA:1310,0
DA:1311,0
DA:1312,0
DA:1313,0
DA:1314,0
DA:1316,0
DA:1318,0
DA:1321,0
DA:1322,0
DA:1323,0
DA:1362,0
DA:1363,0
DA:1364,0
DA:1365,0
DA:1366,0
DA:1367,0
DA:1368,0
DA:1369,0
DA:1370,0
DA:1371,0
DA:1372,0
DA:1373,0
DA:1374,0
DA:1375,0
DA:1382,0
DA:1383,0
DA:1384,0
DA:1385,0
DA:1386,0
DA:1387,0
DA:1388,0
DA:1389,0
DA:1390,0
DA:1391,0
DA:1392,0
DA:1393,0
DA:1394,0
DA:1395,0
DA:1396,0
DA:1397,0
DA:1398,0
DA:1399,0
DA:1400,0
DA:1401,0
DA:1402,0
DA:1403,0
DA:1404,0
DA:1405,0
DA:1406,0
DA:1407,0
DA:1408,0
DA:1409,0
DA:1410,0
DA:1411,0
DA:1412,0
DA:1413,0
DA:1415,0
DA:1416,0
DA:1423,0
DA:1424,0
DA:1425,0
DA:1426,0
DA:1427,0
DA:1428,0
DA:1429,0
DA:1433,0
DA:1434,0
DA:1435,0
DA:1437,0
DA:1438,0
DA:1439,0
DA:1441,0
DA:1442,0
DA:1443,0
DA:1444,0
DA:1445,0
DA:1446,0
DA:1447,0
DA:1448,0
BRF:0
BRH:0
LF:781
LH:0
end_of_record
SF:/home/akelbsch/projects/scion/endhost/public/scion-proto/sciparse/src/proto/payload/scmp/types.rs
FN:419,_RNCNvXs3_NtNtNtNtNtCsdVnVozic4xr_8sciparse5proto7payload4scmp5types5ptestNtB9_24ScmpParameterProblemCodeNtNtNtCskZahNybV1yu_8proptest9arbitrary6traits9Arbitrary14arbitrary_with0Bh_
FN:316,_RNCNvXs_NtNtNtNtNtCsdVnVozic4xr_8sciparse5proto7payload4scmp5types5ptestNtB8_15ScmpMessageTypeNtNtNtCskZahNybV1yu_8proptest9arbitrary6traits9Arbitrary14arbitrary_with0Bg_
FN:29,_RNvXNtNtNtNtCsdVnVozic4xr_8sciparse5proto7payload4scmp5typesNtB2_15ScmpMessageTypeINtNtCs4eoa8Adtn6U_4core7convert4FromhE4from
FN:61,_RNvXs0_NtNtNtNtCsdVnVozic4xr_8sciparse5proto7payload4scmp5typesNtB5_15ScmpMessageTypeNtNtNtBd_4core4read17FromUnalignedRead19from_unaligned_read
FN:341,_RNvXs0_NtNtNtNtNtCsdVnVozic4xr_8sciparse5proto7payload4scmp5types5ptestNtB5_45ArbitraryScmpDestinationUnreachableCodeParamsNtNtCs4eoa8Adtn6U_4core7default7Default7default
FN:66,_RNvXs1_NtNtNtNtCsdVnVozic4xr_8sciparse5proto7payload4scmp5typesNtB5_15ScmpMessageTypeNtNtNtBd_4core5write18IntoUnalignedWrite16into_write_value
FN:352,_RNvXs1_NtNtNtNtNtCsdVnVozic4xr_8sciparse5proto7payload4scmp5types5ptestNtB7_30ScmpDestinationUnreachableCodeNtNtNtCskZahNybV1yu_8proptest9arbitrary6traits9Arbitrary14arbitrary_with
FN:93,_RNvXs2_NtNtNtNtCsdVnVozic4xr_8sciparse5proto7payload4scmp5typesNtB5_30ScmpDestinationUnreachableCodeINtNtCs4eoa8Adtn6U_4core7convert4FromhE4from
FN:383,_RNvXs2_NtNtNtNtNtCsdVnVozic4xr_8sciparse5proto7payload4scmp5types5ptestNtB5_39ArbitraryScmpParameterProblemCodeParamsNtNtCs4eoa8Adtn6U_4core7default7Default7default
FN:107,_RNvXs3_NtNtNtNtCsdVnVozic4xr_8sciparse5proto7payload4scmp5typeshINtNtCs4eoa8Adtn6U_4core7convert4FromNtB5_30ScmpDestinationUnreachableCodeE4from
FN:394,_RNvXs3_NtNtNtNtNtCsdVnVozic4xr_8sciparse5proto7payload4scmp5types5ptestNtB7_24ScmpParameterProblemCodeNtNtNtCskZahNybV1yu_8proptest9arbitrary6traits9Arbitrary14arbitrary_with
FN:121,_RNvXs4_NtNtNtNtCsdVnVozic4xr_8sciparse5proto7payload4scmp5typesNtB5_30ScmpDestinationUnreachableCodeNtNtNtBd_4core4read17FromUnalignedRead19from_unaligned_read
FN:126,_RNvXs5_NtNtNtNtCsdVnVozic4xr_8sciparse5proto7payload4scmp5typesNtB5_30ScmpDestinationUnreachableCodeNtNtNtBd_4core5write18IntoUnalignedWrite16into_write_value
FN:181,_RNvXs6_NtNtNtNtCsdVnVozic4xr_8sciparse5proto7payload4scmp5typesNtB5_24ScmpParameterProblemCodeINtNtCs4eoa8Adtn6U_4core7convert4FromhE4from
FN:209,_RNvXs7_NtNtNtNtCsdVnVozic4xr_8sciparse5proto7payload4scmp5typeshINtNtCs4eoa8Adtn6U_4core7convert4FromNtB5_24ScmpParameterProblemCodeE4from
FN:237,_RNvXs8_NtNtNtNtCsdVnVozic4xr_8sciparse5proto7payload4scmp5typesNtB5_24ScmpParameterProblemCodeNtNtNtBd_4core4read17FromUnalignedRead19from_unaligned_read
FN:242,_RNvXs9_NtNtNtNtCsdVnVozic4xr_8sciparse5proto7payload4scmp5typesNtB5_24ScmpParameterProblemCodeNtNtNtBd_4core5write18IntoUnalignedWrite16into_write_value
FN:45,_RNvXs_NtNtNtNtCsdVnVozic4xr_8sciparse5proto7payload4scmp5typeshINtNtCs4eoa8Adtn6U_4core7convert4FromNtB4_15ScmpMessageTypeE4from
FN:305,_RNvXs_NtNtNtNtNtCsdVnVozic4xr_8sciparse5proto7payload4scmp5types5ptestNtB6_15ScmpMessageTypeNtNtNtCskZahNybV1yu_8proptest9arbitrary6traits9Arbitrary14arbitrary_with
FN:286,_RNvXNtNtNtNtNtCsdVnVozic4xr_8sciparse5proto7payload4scmp5types5ptestNtB2_30ArbitraryScmpMessageTypeParamsNtNtCs4eoa8Adtn6U_4core7default7Default7default
FNDA:0,_RNCNvXs3_NtNtNtNtNtCsdVnVozic4xr_8sciparse5proto7payload4scmp5types5ptestNtB9_24ScmpParameterProblemCodeNtNtNtCskZahNybV1yu_8proptest9arbitrary6traits9Arbitrary14arbitrary_with0Bh_
FNDA:0,_RNCNvXs_NtNtNtNtNtCsdVnVozic4xr_8sciparse5proto7payload4scmp5types5ptestNtB8_15ScmpMessageTypeNtNtNtCskZahNybV1yu_8proptest9arbitrary6traits9Arbitrary14arbitrary_with0Bg_
FNDA:3294,_RNvXNtNtNtNtCsdVnVozic4xr_8sciparse5proto7payload4scmp5typesNtB2_15ScmpMessageTypeINtNtCs4eoa8Adtn6U_4core7convert4FromhE4from
FNDA:2019,_RNvXs0_NtNtNtNtCsdVnVozic4xr_8sciparse5proto7payload4scmp5typesNtB5_15ScmpMessageTypeNtNtNtBd_4core4read17FromUnalignedRead19from_unaligned_read
FNDA:0,_RNvXs0_NtNtNtNtNtCsdVnVozic4xr_8sciparse5proto7payload4scmp5types5ptestNtB5_45ArbitraryScmpDestinationUnreachableCodeParamsNtNtCs4eoa8Adtn6U_4core7default7Default7default
FNDA:0,_RNvXs1_NtNtNtNtCsdVnVozic4xr_8sciparse5proto7payload4scmp5typesNtB5_15ScmpMessageTypeNtNtNtBd_4core5write18IntoUnalignedWrite16into_write_value
FNDA:0,_RNvXs1_NtNtNtNtNtCsdVnVozic4xr_8sciparse5proto7payload4scmp5types5ptestNtB7_30ScmpDestinationUnreachableCodeNtNtNtCskZahNybV1yu_8proptest9arbitrary6traits9Arbitrary14arbitrary_with
FNDA:0,_RNvXs2_NtNtNtNtCsdVnVozic4xr_8sciparse5proto7payload4scmp5typesNtB5_30ScmpDestinationUnreachableCodeINtNtCs4eoa8Adtn6U_4core7convert4FromhE4from
FNDA:0,_RNvXs2_NtNtNtNtNtCsdVnVozic4xr_8sciparse5proto7payload4scmp5types5ptestNtB5_39ArbitraryScmpParameterProblemCodeParamsNtNtCs4eoa8Adtn6U_4core7default7Default7default
FNDA:0,_RNvXs3_NtNtNtNtCsdVnVozic4xr_8sciparse5proto7payload4scmp5typeshINtNtCs4eoa8Adtn6U_4core7convert4FromNtB5_30ScmpDestinationUnreachableCodeE4from
FNDA:0,_RNvXs3_NtNtNtNtNtCsdVnVozic4xr_8sciparse5proto7payload4scmp5types5ptestNtB7_24ScmpParameterProblemCodeNtNtNtCskZahNybV1yu_8proptest9arbitrary6traits9Arbitrary14arbitrary_with
FNDA:0,_RNvXs4_NtNtNtNtCsdVnVozic4xr_8sciparse5proto7payload4scmp5typesNtB5_30ScmpDestinationUnreachableCodeNtNtNtBd_4core4read17FromUnalignedRead19from_unaligned_read
FNDA:0,_RNvXs5_NtNtNtNtCsdVnVozic4xr_8sciparse5proto7payload4scmp5typesNtB5_30ScmpDestinationUnreachableCodeNtNtNtBd_4core5write18IntoUnalignedWrite16into_write_value
FNDA:0,_RNvXs6_NtNtNtNtCsdVnVozic4xr_8sciparse5proto7payload4scmp5typesNtB5_24ScmpParameterProblemCodeINtNtCs4eoa8Adtn6U_4core7convert4FromhE4from
FNDA:0,_RNvXs7_NtNtNtNtCsdVnVozic4xr_8sciparse5proto7payload4scmp5typeshINtNtCs4eoa8Adtn6U_4core7convert4FromNtB5_24ScmpParameterProblemCodeE4from
FNDA:0,_RNvXs8_NtNtNtNtCsdVnVozic4xr_8sciparse5proto7payload4scmp5typesNtB5_24ScmpParameterProblemCodeNtNtNtBd_4core4read17FromUnalignedRead19from_unaligned_read
FNDA:0,_RNvXs9_NtNtNtNtCsdVnVozic4xr_8sciparse5proto7payload4scmp5typesNtB5_24ScmpParameterProblemCodeNtNtNtBd_4core5write18IntoUnalignedWrite16into_write_value
FNDA:0,_RNvXs_NtNtNtNtCsdVnVozic4xr_8sciparse5proto7payload4scmp5typeshINtNtCs4eoa8Adtn6U_4core7convert4FromNtB4_15ScmpMessageTypeE4from
FNDA:0,_RNvXs_NtNtNtNtNtCsdVnVozic4xr_8sciparse5proto7payload4scmp5types5ptestNtB6_15ScmpMessageTypeNtNtNtCskZahNybV1yu_8proptest9arbitrary6traits9Arbitrary14arbitrary_with
FNDA:0,_RNvXNtNtNtNtNtCsdVnVozic4xr_8sciparse5proto7payload4scmp5types5ptestNtB2_30ArbitraryScmpMessageTypeParamsNtNtCs4eoa8Adtn6U_4core7default7Default7default
FNF:20
FNH:2
DA:29,3294
DA:30,3294
DA:31,1148
DA:32,441
DA:33,434
DA:34,186
DA:35,59
DA:36,133
DA:37,133
DA:38,76
DA:39,61
DA:40,623
DA:42,3294
DA:45,0
DA:46,0
DA:47,0
DA:48,0
DA:49,0
DA:50,0
DA:51,0
DA:52,0
DA:53,0
DA:54,0
DA:55,0
DA:56,0
DA:58,0
DA:61,2019
DA:62,2019
DA:63,2019
DA:66,0
DA:67,0
DA:68,0
DA:93,0
DA:94,0
DA:95,0
DA:96,0
DA:97,0
DA:98,0
DA:99,0
DA:100,0
DA:101,0
DA:102,0
DA:104,0
DA:107,0
DA:108,0
DA:109,0
DA:110,0
DA:111,0
DA:112,0
DA:113,0
DA:114,0
DA:115,0
DA:116,0
DA:118,0
DA:121,0
DA:122,0
DA:123,0
DA:126,0
DA:127,0
DA:128,0
DA:181,0
DA:182,0
DA:183,0
DA:184,0
DA:185,0
DA:186,0
DA:187,0
DA:188,0
DA:189,0
DA:190,0
DA:191,0
DA:192,0
DA:193,0
DA:194,0
DA:195,0
DA:196,0
DA:197,0
DA:198,0
DA:199,0
DA:200,0
DA:201,0
DA:202,0
DA:203,0
DA:204,0
DA:206,0
DA:209,0
DA:210,0
DA:211,0
DA:212,0
DA:213,0
DA:214,0
DA:215,0
DA:216,0
DA:217,0
DA:218,0
DA:219,0
DA:220,0
DA:221,0
DA:222,0
DA:223,0
DA:224,0
DA:225,0
DA:226,0
DA:227,0
DA:228,0
DA:229,0
DA:230,0
DA:231,0
DA:232,0
DA:234,0
DA:237,0
DA:238,0
DA:239,0
DA:242,0
DA:243,0
DA:244,0
DA:286,0
DA:287,0
DA:288,0
DA:289,0
DA:290,0
DA:291,0
DA:292,0
DA:293,0
DA:294,0
DA:295,0
DA:296,0
DA:297,0
DA:298,0
DA:299,0
DA:305,0
DA:306,0
DA:307,0
DA:308,0
DA:309,0
DA:310,0
DA:311,0
DA:312,0
DA:313,0
DA:314,0
DA:315,0
DA:316,0
DA:317,0
DA:318,0
DA:319,0
DA:320,0
DA:321,0
DA:322,0
DA:324,0
DA:325,0
DA:341,0
DA:342,0
DA:343,0
DA:344,0
DA:345,0
DA:346,0
DA:352,0
DA:353,0
DA:354,0
DA:355,0
DA:356,0
DA:357,0
DA:358,0
DA:359,0
DA:360,0
DA:361,0
DA:363,0
DA:364,0
DA:366,0
DA:367,0
DA:383,0
DA:384,0
DA:385,0
DA:386,0
DA:387,0
DA:388,0
DA:394,0
DA:395,0
DA:396,0
DA:397,0
DA:398,0
DA:399,0
DA:400,0
DA:401,0
DA:402,0
DA:403,0
DA:404,0
DA:405,0
DA:406,0
DA:407,0
DA:408,0
DA:409,0
DA:410,0
DA:411,0
DA:412,0
DA:413,0
DA:414,0
DA:415,0
DA:416,0
DA:417,0
DA:419,0
DA:420,0
DA:421,0
DA:422,0
DA:424,0
DA:425,0
DA:426,0
DA:427,0
DA:428,0
DA:430,0
DA:431,0
BRF:0
BRH:0
LF:213
LH:16
end_of_record
SF:/home/akelbsch/projects/scion/endhost/public/scion-proto/sciparse/src/proto/payload/scmp/view.rs
FN:213,_RNCNvMs_NtNtNtNtCsdVnVozic4xr_8sciparse5proto7payload4scmp4viewNtB6_15ScmpPayloadView8dst_port0Be_
FN:325,_RNvMs0_NtNtNtNtCsdVnVozic4xr_8sciparse5proto7payload4scmp4viewNtB5_37ScmpDestinationUnreachableMessageView16offending_packet
FN:333,_RNvMs0_NtNtNtNtCsdVnVozic4xr_8sciparse5proto7payload4scmp4viewNtB5_37ScmpDestinationUnreachableMessageView20offending_packet_mut
FN:373,_RNvMs1_NtNtNtNtCsdVnVozic4xr_8sciparse5proto7payload4scmp4viewNtB5_27ScmpPacketTooBigMessageView16offending_packet
FN:381,_RNvMs1_NtNtNtNtCsdVnVozic4xr_8sciparse5proto7payload4scmp4viewNtB5_27ScmpPacketTooBigMessageView20offending_packet_mut
FN:431,_RNvMs2_NtNtNtNtCsdVnVozic4xr_8sciparse5proto7payload4scmp4viewNtB5_31ScmpParameterProblemMessageView16offending_packet
FN:439,_RNvMs2_NtNtNtNtCsdVnVozic4xr_8sciparse5proto7payload4scmp4viewNtB5_31ScmpParameterProblemMessageView20offending_packet_mut
FN:492,_RNvMs3_NtNtNtNtCsdVnVozic4xr_8sciparse5proto7payload4scmp4viewNtB5_36ScmpExternalInterfaceDownMessageView16offending_packet
FN:500,_RNvMs3_NtNtNtNtCsdVnVozic4xr_8sciparse5proto7payload4scmp4viewNtB5_36ScmpExternalInterfaceDownMessageView20offending_packet_mut
FN:559,_RNvMs4_NtNtNtNtCsdVnVozic4xr_8sciparse5proto7payload4scmp4viewNtB5_39ScmpInternalConnectivityDownMessageView16offending_packet
FN:567,_RNvMs4_NtNtNtNtCsdVnVozic4xr_8sciparse5proto7payload4scmp4viewNtB5_39ScmpInternalConnectivityDownMessageView20offending_packet_mut
FN:612,_RNvMs5_NtNtNtNtCsdVnVozic4xr_8sciparse5proto7payload4scmp4viewNtB5_26ScmpEchoRequestMessageView4data
FN:620,_RNvMs5_NtNtNtNtCsdVnVozic4xr_8sciparse5proto7payload4scmp4viewNtB5_26ScmpEchoRequestMessageView8data_mut
FN:661,_RNvMs6_NtNtNtNtCsdVnVozic4xr_8sciparse5proto7payload4scmp4viewNtB5_24ScmpEchoReplyMessageView4data
FN:669,_RNvMs6_NtNtNtNtCsdVnVozic4xr_8sciparse5proto7payload4scmp4viewNtB5_24ScmpEchoReplyMessageView8data_mut
FN:800,_RNvMs9_NtNtNtNtCsdVnVozic4xr_8sciparse5proto7payload4scmp4viewNtB5_22ScmpUnknownMessageView21message_specific_data
FN:808,_RNvMs9_NtNtNtNtCsdVnVozic4xr_8sciparse5proto7payload4scmp4viewNtB5_22ScmpUnknownMessageView25message_specific_data_mut
FN:150,_RNvMs_NtNtNtNtCsdVnVozic4xr_8sciparse5proto7payload4scmp4viewNtB4_15ScmpPayloadView11message_mut
FN:115,_RNvMs_NtNtNtNtCsdVnVozic4xr_8sciparse5proto7payload4scmp4viewNtB4_15ScmpPayloadView7message
FN:212,_RNvMs_NtNtNtNtCsdVnVozic4xr_8sciparse5proto7payload4scmp4viewNtB4_15ScmpPayloadView8dst_port
FN:51,_RNvXNtNtNtNtCsdVnVozic4xr_8sciparse5proto7payload4scmp4viewNtB2_15ScmpPayloadViewNtNtCs4eoa8Adtn6U_4core3fmt5Debug3fmt
FNDA:504,_RNCNvMs_NtNtNtNtCsdVnVozic4xr_8sciparse5proto7payload4scmp4viewNtB6_15ScmpPayloadView8dst_port0Be_
FNDA:256,_RNvMs0_NtNtNtNtCsdVnVozic4xr_8sciparse5proto7payload4scmp4viewNtB5_37ScmpDestinationUnreachableMessageView16offending_packet
FNDA:0,_RNvMs0_NtNtNtNtCsdVnVozic4xr_8sciparse5proto7payload4scmp4viewNtB5_37ScmpDestinationUnreachableMessageView20offending_packet_mut
FNDA:104,_RNvMs1_NtNtNtNtCsdVnVozic4xr_8sciparse5proto7payload4scmp4viewNtB5_27ScmpPacketTooBigMessageView16offending_packet
FNDA:0,_RNvMs1_NtNtNtNtCsdVnVozic4xr_8sciparse5proto7payload4scmp4viewNtB5_27ScmpPacketTooBigMessageView20offending_packet_mut
FNDA:98,_RNvMs2_NtNtNtNtCsdVnVozic4xr_8sciparse5proto7payload4scmp4viewNtB5_31ScmpParameterProblemMessageView16offending_packet
FNDA:0,_RNvMs2_NtNtNtNtCsdVnVozic4xr_8sciparse5proto7payload4scmp4viewNtB5_31ScmpParameterProblemMessageView20offending_packet_mut
FNDA:38,_RNvMs3_NtNtNtNtCsdVnVozic4xr_8sciparse5proto7payload4scmp4viewNtB5_36ScmpExternalInterfaceDownMessageView16offending_packet
FNDA:0,_RNvMs3_NtNtNtNtCsdVnVozic4xr_8sciparse5proto7payload4scmp4viewNtB5_36ScmpExternalInterfaceDownMessageView20offending_packet_mut
FNDA:8,_RNvMs4_NtNtNtNtCsdVnVozic4xr_8sciparse5proto7payload4scmp4viewNtB5_39ScmpInternalConnectivityDownMessageView16offending_packet
FNDA:0,_RNvMs4_NtNtNtNtCsdVnVozic4xr_8sciparse5proto7payload4scmp4viewNtB5_39ScmpInternalConnectivityDownMessageView20offending_packet_mut
FNDA:0,_RNvMs5_NtNtNtNtCsdVnVozic4xr_8sciparse5proto7payload4scmp4viewNtB5_26ScmpEchoRequestMessageView4data
FNDA:0,_RNvMs5_NtNtNtNtCsdVnVozic4xr_8sciparse5proto7payload4scmp4viewNtB5_26ScmpEchoRequestMessageView8data_mut
FNDA:0,_RNvMs6_NtNtNtNtCsdVnVozic4xr_8sciparse5proto7payload4scmp4viewNtB5_24ScmpEchoReplyMessageView4data
FNDA:0,_RNvMs6_NtNtNtNtCsdVnVozic4xr_8sciparse5proto7payload4scmp4viewNtB5_24ScmpEchoReplyMessageView8data_mut
FNDA:0,_RNvMs9_NtNtNtNtCsdVnVozic4xr_8sciparse5proto7payload4scmp4viewNtB5_22ScmpUnknownMessageView21message_specific_data
FNDA:0,_RNvMs9_NtNtNtNtCsdVnVozic4xr_8sciparse5proto7payload4scmp4viewNtB5_22ScmpUnknownMessageView25message_specific_data_mut
FNDA:0,_RNvMs_NtNtNtNtCsdVnVozic4xr_8sciparse5proto7payload4scmp4viewNtB4_15ScmpPayloadView11message_mut
FNDA:1371,_RNvMs_NtNtNtNtCsdVnVozic4xr_8sciparse5proto7payload4scmp4viewNtB4_15ScmpPayloadView7message
FNDA:723,_RNvMs_NtNtNtNtCsdVnVozic4xr_8sciparse5proto7payload4scmp4viewNtB4_15ScmpPayloadView8dst_port
FNDA:0,_RNvXNtNtNtNtCsdVnVozic4xr_8sciparse5proto7payload4scmp4viewNtB2_15ScmpPayloadViewNtNtCs4eoa8Adtn6U_4core3fmt5Debug3fmt
FNF:21
FNH:8
DA:51,0
DA:52,0
DA:53,0
DA:54,0
DA:55,0
DA:56,0
DA:115,1371
DA:120,1371
DA:122,492
DA:125,189
DA:128,186
DA:131,69
DA:134,15
DA:136,57
DA:137,57
DA:139,24
DA:142,15
DA:144,267
DA:147,1371
DA:150,0
DA:155,0
DA:157,0
DA:158,0
DA:159,0
DA:162,0
DA:163,0
DA:164,0
DA:167,0
DA:168,0
DA:169,0
DA:172,0
DA:173,0
DA:174,0
DA:177,0
DA:178,0
DA:179,0
DA:182,0
DA:183,0
DA:184,0
DA:187,0
DA:188,0
DA:189,0
DA:192,0
DA:193,0
DA:194,0
DA:197,0
DA:198,0
DA:199,0
DA:202,0
DA:205,0
DA:212,723
DA:213,723
DA:214,504
DA:215,182
DA:216,182
DA:218,43
DA:219,139
DA:220,139
DA:221,91
DA:222,504
DA:223,723
DA:224,31
DA:225,31
DA:226,13
DA:227,8
DA:228,256
DA:229,104
DA:230,98
DA:231,38
DA:232,8
DA:233,136
DA:235,723
DA:325,256
DA:326,256
DA:327,256
DA:328,256
DA:329,256
DA:330,256
DA:333,0
DA:334,0
DA:335,0
DA:336,0
DA:337,0
DA:338,0
DA:373,104
DA:374,104
DA:375,104
DA:376,104
DA:377,104
DA:378,104
DA:381,0
DA:382,0
DA:383,0
DA:384,0
DA:385,0
DA:386,0
DA:431,98
DA:432,98
DA:433,98
DA:434,98
DA:435,98
DA:436,98
DA:439,0
DA:440,0
DA:441,0
DA:442,0
DA:443,0
DA:444,0
DA:492,38
DA:493,38
DA:494,38
DA:495,38
DA:496,38
DA:497,38
DA:500,0
DA:501,0
DA:502,0
DA:503,0
DA:504,0
DA:505,0
DA:559,8
DA:560,8
DA:561,8
DA:562,8
DA:563,8
DA:564,8
DA:567,0
DA:568,0
DA:569,0
DA:570,0
DA:571,0
DA:572,0
DA:612,0
DA:613,0
DA:614,0
DA:615,0
DA:616,0
DA:617,0
DA:620,0
DA:621,0
DA:622,0
DA:623,0
DA:624,0
DA:625,0
DA:661,0
DA:662,0
DA:663,0
DA:664,0
DA:665,0
DA:666,0
DA:669,0
DA:670,0
DA:671,0
DA:672,0
DA:673,0
DA:674,0
DA:800,0
DA:801,0
DA:802,0
DA:803,0
DA:804,0
DA:805,0
DA:808,0
DA:809,0
DA:810,0
DA:811,0
DA:812,0
DA:813,0
BRF:0
BRH:0
LF:169
LH:66
end_of_record
SF:/home/akelbsch/projects/scion/endhost/public/scion-proto/sciparse/src/proto/payload/udp/layout.rs
FN:46,_RNvXs_NtNtNtNtCsdVnVozic4xr_8sciparse5proto7payload3udp6layoutNtB4_17UdpDatagramLayoutNtNtNtBc_4core6layout6Layout10size_bytes
FNDA:0,_RNvXs_NtNtNtNtCsdVnVozic4xr_8sciparse5proto7payload3udp6layoutNtB4_17UdpDatagramLayoutNtNtNtBc_4core6layout6Layout10size_bytes
FNF:1
FNH:0
DA:46,0
DA:47,0
DA:48,0
BRF:0
BRH:0
LF:3
LH:0
end_of_record
SF:/home/akelbsch/projects/scion/endhost/public/scion-proto/sciparse/src/proto/payload/udp/model.rs
FN:147,_RNCNvXNtNtNtNtNtCsdVnVozic4xr_8sciparse5proto7payload3udp5model5ptestNtB6_11UdpDatagramNtNtNtCskZahNybV1yu_8proptest9arbitrary6traits9Arbitrary14arbitrary_with0Be_
FN:60,_RNvMNtNtNtNtCsdVnVozic4xr_8sciparse5proto7payload3udp5modelNtB2_11UdpDatagram10from_slice
FN:46,_RNvMNtNtNtNtCsdVnVozic4xr_8sciparse5proto7payload3udp5modelNtB2_11UdpDatagram3new
FN:66,_RNvMNtNtNtNtCsdVnVozic4xr_8sciparse5proto7payload3udp5modelNtB2_11UdpDatagram9from_view
FN:141,_RNvXNtNtNtNtNtCsdVnVozic4xr_8sciparse5proto7payload3udp5model5ptestNtB4_11UdpDatagramNtNtNtCskZahNybV1yu_8proptest9arbitrary6traits9Arbitrary14arbitrary_with
FN:88,_RNvXs0_NtNtNtNtCsdVnVozic4xr_8sciparse5proto7payload3udp5modelNtB5_11UdpDatagramNtNtB9_6encode13PayloadEncode10wire_valid
FN:84,_RNvXs0_NtNtNtNtCsdVnVozic4xr_8sciparse5proto7payload3udp5modelNtB5_11UdpDatagramNtNtB9_6encode13PayloadEncode13required_size
FN:92,_RNvXs0_NtNtNtNtCsdVnVozic4xr_8sciparse5proto7payload3udp5modelNtB5_11UdpDatagramNtNtB9_6encode13PayloadEncode16encode_unchecked
FN:75,_RNvXs_NtNtNtNtCsdVnVozic4xr_8sciparse5proto7payload3udp5modelNtB4_11UdpDatagramNtNtCs4eoa8Adtn6U_4core3fmt5Debug3fmt
FNDA:0,_RNCNvXNtNtNtNtNtCsdVnVozic4xr_8sciparse5proto7payload3udp5model5ptestNtB6_11UdpDatagramNtNtNtCskZahNybV1yu_8proptest9arbitrary6traits9Arbitrary14arbitrary_with0Be_
FNDA:0,_RNvMNtNtNtNtCsdVnVozic4xr_8sciparse5proto7payload3udp5modelNtB2_11UdpDatagram10from_slice
FNDA:0,_RNvMNtNtNtNtCsdVnVozic4xr_8sciparse5proto7payload3udp5modelNtB2_11UdpDatagram3new
FNDA:0,_RNvMNtNtNtNtCsdVnVozic4xr_8sciparse5proto7payload3udp5modelNtB2_11UdpDatagram9from_view
FNDA:0,_RNvXNtNtNtNtNtCsdVnVozic4xr_8sciparse5proto7payload3udp5model5ptestNtB4_11UdpDatagramNtNtNtCskZahNybV1yu_8proptest9arbitrary6traits9Arbitrary14arbitrary_with
FNDA:0,_RNvXs0_NtNtNtNtCsdVnVozic4xr_8sciparse5proto7payload3udp5modelNtB5_11UdpDatagramNtNtB9_6encode13PayloadEncode10wire_valid
FNDA:0,_RNvXs0_NtNtNtNtCsdVnVozic4xr_8sciparse5proto7payload3udp5modelNtB5_11UdpDatagramNtNtB9_6encode13PayloadEncode13required_size
FNDA:0,_RNvXs0_NtNtNtNtCsdVnVozic4xr_8sciparse5proto7payload3udp5modelNtB5_11UdpDatagramNtNtB9_6encode13PayloadEncode16encode_unchecked
FNDA:0,_RNvXs_NtNtNtNtCsdVnVozic4xr_8sciparse5proto7payload3udp5modelNtB4_11UdpDatagramNtNtCs4eoa8Adtn6U_4core3fmt5Debug3fmt
FNF:9
FNH:0
DA:46,0
DA:47,0
DA:48,0
DA:49,0
DA:50,0
DA:51,0
DA:52,0
DA:60,0
DA:61,0
DA:62,0
DA:63,0
DA:66,0
DA:67,0
DA:68,0
DA:69,0
DA:70,0
DA:71,0
DA:72,0
DA:75,0
DA:76,0
DA:77,0
DA:78,0
DA:79,0
DA:80,0
DA:81,0
DA:84,0
DA:85,0
DA:86,0
DA:88,0
DA:89,0
DA:90,0
DA:92,0
DA:93,0
DA:94,0
DA:95,0
DA:96,0
DA:97,0
DA:99,0
DA:100,0
DA:101,0
DA:102,0
DA:103,0
DA:104,0
DA:105,0
DA:106,0
DA:107,0
DA:108,0
DA:109,0
DA:110,0
DA:111,0
DA:112,0
DA:113,0
DA:114,0
DA:115,0
DA:116,0
DA:117,0
DA:118,0
DA:119,0
DA:120,0
DA:121,0
DA:122,0
DA:123,0
DA:124,0
DA:125,0
DA:127,0
DA:128,0
DA:141,0
DA:142,0
DA:143,0
DA:144,0
DA:145,0
DA:146,0
DA:147,0
DA:148,0
DA:149,0
DA:150,0
DA:151,0
DA:152,0
DA:153,0
DA:154,0
DA:155,0
BRF:0
BRH:0
LF:82
LH:0
end_of_record
SF:/home/akelbsch/projects/scion/endhost/public/scion-proto/sciparse/src/proto/payload/udp/view.rs
FN:130,_RNvMs0_NtNtNtNtCsdVnVozic4xr_8sciparse5proto7payload3udp4viewNtB5_15UdpDatagramView11payload_mut
FN:119,_RNvMs0_NtNtNtNtCsdVnVozic4xr_8sciparse5proto7payload3udp4viewNtB5_15UdpDatagramView7payload
FN:36,_RNvXNtNtNtNtCsdVnVozic4xr_8sciparse5proto7payload3udp4viewNtB2_15UdpDatagramViewNtNtNtBa_4core4view4View17has_required_size
FN:59,_RNvXNtNtNtNtCsdVnVozic4xr_8sciparse5proto7payload3udp4viewNtB2_15UdpDatagramViewNtNtNtBa_4core4view4View20from_slice_unchecked
FN:88,_RNvXNtNtNtNtCsdVnVozic4xr_8sciparse5proto7payload3udp4viewNtB2_15UdpDatagramViewNtNtNtBa_4core4view4View8as_bytes
FN:93,_RNvXs_NtNtNtNtCsdVnVozic4xr_8sciparse5proto7payload3udp4viewNtB4_15UdpDatagramViewNtNtCs4eoa8Adtn6U_4core3fmt5Debug3fmt
FN:77,_RNvXNtNtNtNtCsdVnVozic4xr_8sciparse5proto7payload3udp4viewNtB2_15UdpDatagramViewNtNtNtBa_4core4view4View12as_bytes_mut
FN:82,_RNvXNtNtNtNtCsdVnVozic4xr_8sciparse5proto7payload3udp4viewNtB2_15UdpDatagramViewNtNtNtBa_4core4view4View14as_bytes_boxed
FN:71,_RNvXNtNtNtNtCsdVnVozic4xr_8sciparse5proto7payload3udp4viewNtB2_15UdpDatagramViewNtNtNtBa_4core4view4View20from_boxed_unchecked
FN:65,_RNvXNtNtNtNtCsdVnVozic4xr_8sciparse5proto7payload3udp4viewNtB2_15UdpDatagramViewNtNtNtBa_4core4view4View24from_mut_slice_unchecked
FNDA:0,_RNvMs0_NtNtNtNtCsdVnVozic4xr_8sciparse5proto7payload3udp4viewNtB5_15UdpDatagramView11payload_mut
FNDA:455,_RNvMs0_NtNtNtNtCsdVnVozic4xr_8sciparse5proto7payload3udp4viewNtB5_15UdpDatagramView7payload
FNDA:1217,_RNvXNtNtNtNtCsdVnVozic4xr_8sciparse5proto7payload3udp4viewNtB2_15UdpDatagramViewNtNtNtBa_4core4view4View17has_required_size
FNDA:557,_RNvXNtNtNtNtCsdVnVozic4xr_8sciparse5proto7payload3udp4viewNtB2_15UdpDatagramViewNtNtNtBa_4core4view4View20from_slice_unchecked
FNDA:455,_RNvXNtNtNtNtCsdVnVozic4xr_8sciparse5proto7payload3udp4viewNtB2_15UdpDatagramViewNtNtNtBa_4core4view4View8as_bytes
FNDA:0,_RNvXs_NtNtNtNtCsdVnVozic4xr_8sciparse5proto7payload3udp4viewNtB4_15UdpDatagramViewNtNtCs4eoa8Adtn6U_4core3fmt5Debug3fmt
FNDA:0,_RNvXNtNtNtNtCsdVnVozic4xr_8sciparse5proto7payload3udp4viewNtB2_15UdpDatagramViewNtNtNtBa_4core4view4View12as_bytes_mut
FNDA:0,_RNvXNtNtNtNtCsdVnVozic4xr_8sciparse5proto7payload3udp4viewNtB2_15UdpDatagramViewNtNtNtBa_4core4view4View14as_bytes_boxed
FNDA:0,_RNvXNtNtNtNtCsdVnVozic4xr_8sciparse5proto7payload3udp4viewNtB2_15UdpDatagramViewNtNtNtBa_4core4view4View20from_boxed_unchecked
FNDA:0,_RNvXNtNtNtNtCsdVnVozic4xr_8sciparse5proto7payload3udp4viewNtB2_15UdpDatagramViewNtNtNtBa_4core4view4View24from_mut_slice_unchecked
FNF:10
FNH:4
DA:36,1217
DA:37,1217
DA:38,190
DA:39,190
DA:40,190
DA:41,190
DA:42,190
DA:43,1027
DA:44,1027
DA:45,1027
DA:49,1027
DA:50,163
DA:51,163
DA:52,163
DA:53,864
DA:55,864
DA:56,1217
DA:59,557
DA:61,557
DA:62,557
DA:65,0
DA:67,0
DA:68,0
DA:71,0
DA:73,0
DA:74,0
DA:77,0
DA:78,0
DA:79,0
DA:82,0
DA:84,0
DA:85,0
DA:88,455
DA:89,455
DA:90,455
DA:93,0
DA:94,0
DA:95,0
DA:96,0
DA:97,0
DA:98,0
DA:99,0
DA:100,0
DA:101,0
DA:119,455
DA:122,455
DA:123,455
DA:130,0
DA:133,0
DA:134,0
DA:135,0
DA:136,0
DA:137,0
BRF:0
BRH:0
LF:53
LH:26
end_of_record
SF:/home/akelbsch/projects/scion/endhost/public/scion-proto/sciparse/src/scion/address/addr.rs
FN:309,_RINvNtNtNtCsdVnVozic4xr_8sciparse5scion7address4addr16parse_scion_addrNtNtB4_9host_addr11ServiceAddrEB8_
FN:309,_RINvNtNtNtCsdVnVozic4xr_8sciparse5scion7address4addr16parse_scion_addrNtNtNtCs4eoa8Adtn6U_4core3net7ip_addr8Ipv4AddrEB8_
FN:309,_RINvNtNtNtCsdVnVozic4xr_8sciparse5scion7address4addr16parse_scion_addrNtNtNtCs4eoa8Adtn6U_4core3net7ip_addr8Ipv6AddrEB8_
FN:301,_RINvNtNtNtCsdVnVozic4xr_8sciparse5scion7address4addr17format_scion_addrNtNtB4_9host_addr11ServiceAddrEB8_
FN:301,_RINvNtNtNtCsdVnVozic4xr_8sciparse5scion7address4addr17format_scion_addrNtNtNtCs4eoa8Adtn6U_4core3net7ip_addr8Ipv4AddrEB8_
FN:301,_RINvNtNtNtCsdVnVozic4xr_8sciparse5scion7address4addr17format_scion_addrNtNtNtCs4eoa8Adtn6U_4core3net7ip_addr8Ipv6AddrEB8_
FN:85,_RNvMNtNtNtCsdVnVozic4xr_8sciparse5scion7address4addrNtB2_9ScionAddr4host
FN:67,_RNvMNtNtNtCsdVnVozic4xr_8sciparse5scion7address4addrNtB2_9ScionAddr7isd_asn
FN:166,_RNvMs3_NtNtNtCsdVnVozic4xr_8sciparse5scion7address4addrNtB5_11ScionAddrV43new
FN:216,_RNvMs9_NtNtNtCsdVnVozic4xr_8sciparse5scion7address4addrNtB5_11ScionAddrV63new
FN:266,_RNvMsf_NtNtNtCsdVnVozic4xr_8sciparse5scion7address4addrNtB5_12ScionAddrSvc3new
FN:122,_RNvXs0_NtNtNtCsdVnVozic4xr_8sciparse5scion7address4addrNtB5_9ScionAddrNtNtCs4eoa8Adtn6U_4core3fmt7Display3fmt
FN:138,_RNvXs1_NtNtNtCsdVnVozic4xr_8sciparse5scion7address4addrNtB5_9ScionAddrNtCs763I3Ci3PrZ_6utoipa13PartialSchema6schema
FN:172,_RNvXs4_NtNtNtCsdVnVozic4xr_8sciparse5scion7address4addrNtB5_11ScionAddrV4NtNtNtCs4eoa8Adtn6U_4core3str6traits7FromStr8from_str
FN:178,_RNvXs5_NtNtNtCsdVnVozic4xr_8sciparse5scion7address4addrNtB5_11ScionAddrV4NtNtCs4eoa8Adtn6U_4core3fmt7Display3fmt
FN:192,_RNvXs7_NtNtNtCsdVnVozic4xr_8sciparse5scion7address4addrNtB5_11ScionAddrV4NtCs763I3Ci3PrZ_6utoipa13PartialSchema6schema
FN:109,_RNvXs_NtNtNtCsdVnVozic4xr_8sciparse5scion7address4addrNtB4_9ScionAddrNtNtNtCs4eoa8Adtn6U_4core3str6traits7FromStr8from_str
FN:222,_RNvXsa_NtNtNtCsdVnVozic4xr_8sciparse5scion7address4addrNtB5_11ScionAddrV6NtNtNtCs4eoa8Adtn6U_4core3str6traits7FromStr8from_str
FN:228,_RNvXsb_NtNtNtCsdVnVozic4xr_8sciparse5scion7address4addrNtB5_11ScionAddrV6NtNtCs4eoa8Adtn6U_4core3fmt7Display3fmt
FN:242,_RNvXsd_NtNtNtCsdVnVozic4xr_8sciparse5scion7address4addrNtB5_11ScionAddrV6NtCs763I3Ci3PrZ_6utoipa13PartialSchema6schema
FN:272,_RNvXsg_NtNtNtCsdVnVozic4xr_8sciparse5scion7address4addrNtB5_12ScionAddrSvcNtNtNtCs4eoa8Adtn6U_4core3str6traits7FromStr8from_str
FN:278,_RNvXsh_NtNtNtCsdVnVozic4xr_8sciparse5scion7address4addrNtB5_12ScionAddrSvcNtNtCs4eoa8Adtn6U_4core3fmt7Display3fmt
FN:292,_RNvXsj_NtNtNtCsdVnVozic4xr_8sciparse5scion7address4addrNtB5_12ScionAddrSvcNtCs763I3Ci3PrZ_6utoipa13PartialSchema6schema
FN:76,_RNvMNtNtNtCsdVnVozic4xr_8sciparse5scion7address4addrNtB2_9ScionAddr11set_isd_asn
FN:99,_RNvMNtNtNtCsdVnVozic4xr_8sciparse5scion7address4addrNtB2_9ScionAddr2ip
FN:58,_RNvMNtNtNtCsdVnVozic4xr_8sciparse5scion7address4addrNtB2_9ScionAddr3new
FN:94,_RNvMNtNtNtCsdVnVozic4xr_8sciparse5scion7address4addrNtB2_9ScionAddr8set_host
FN:184,_RNvXs6_NtNtNtCsdVnVozic4xr_8sciparse5scion7address4addrNtB5_11ScionAddrV4INtNtCs4eoa8Adtn6U_4core7convert7TryFromNtB5_9ScionAddrE8try_from
FN:234,_RNvXsc_NtNtNtCsdVnVozic4xr_8sciparse5scion7address4addrNtB5_11ScionAddrV6INtNtCs4eoa8Adtn6U_4core7convert7TryFromNtB5_9ScionAddrE8try_from
FN:284,_RNvXsi_NtNtNtCsdVnVozic4xr_8sciparse5scion7address4addrNtB5_12ScionAddrSvcINtNtCs4eoa8Adtn6U_4core7convert7TryFromNtB5_9ScionAddrE8try_from
FNDA:0,_RINvNtNtNtCsdVnVozic4xr_8sciparse5scion7address4addr16parse_scion_addrNtNtB4_9host_addr11ServiceAddrEB8_
FNDA:0,_RINvNtNtNtCsdVnVozic4xr_8sciparse5scion7address4addr16parse_scion_addrNtNtNtCs4eoa8Adtn6U_4core3net7ip_addr8Ipv4AddrEB8_
FNDA:0,_RINvNtNtNtCsdVnVozic4xr_8sciparse5scion7address4addr16parse_scion_addrNtNtNtCs4eoa8Adtn6U_4core3net7ip_addr8Ipv6AddrEB8_
FNDA:0,_RINvNtNtNtCsdVnVozic4xr_8sciparse5scion7address4addr17format_scion_addrNtNtB4_9host_addr11ServiceAddrEB8_
FNDA:0,_RINvNtNtNtCsdVnVozic4xr_8sciparse5scion7address4addr17format_scion_addrNtNtNtCs4eoa8Adtn6U_4core3net7ip_addr8Ipv4AddrEB8_
FNDA:0,_RINvNtNtNtCsdVnVozic4xr_8sciparse5scion7address4addr17format_scion_addrNtNtNtCs4eoa8Adtn6U_4core3net7ip_addr8Ipv6AddrEB8_
FNDA:0,_RNvMNtNtNtCsdVnVozic4xr_8sciparse5scion7address4addrNtB2_9ScionAddr4host
FNDA:0,_RNvMNtNtNtCsdVnVozic4xr_8sciparse5scion7address4addrNtB2_9ScionAddr7isd_asn
FNDA:0,_RNvMs3_NtNtNtCsdVnVozic4xr_8sciparse5scion7address4addrNtB5_11ScionAddrV43new
FNDA:0,_RNvMs9_NtNtNtCsdVnVozic4xr_8sciparse5scion7address4addrNtB5_11ScionAddrV63new
FNDA:0,_RNvMsf_NtNtNtCsdVnVozic4xr_8sciparse5scion7address4addrNtB5_12ScionAddrSvc3new
FNDA:0,_RNvXs0_NtNtNtCsdVnVozic4xr_8sciparse5scion7address4addrNtB5_9ScionAddrNtNtCs4eoa8Adtn6U_4core3fmt7Display3fmt
FNDA:0,_RNvXs1_NtNtNtCsdVnVozic4xr_8sciparse5scion7address4addrNtB5_9ScionAddrNtCs763I3Ci3PrZ_6utoipa13PartialSchema6schema
FNDA:0,_RNvXs4_NtNtNtCsdVnVozic4xr_8sciparse5scion7address4addrNtB5_11ScionAddrV4NtNtNtCs4eoa8Adtn6U_4core3str6traits7FromStr8from_str
FNDA:0,_RNvXs5_NtNtNtCsdVnVozic4xr_8sciparse5scion7address4addrNtB5_11ScionAddrV4NtNtCs4eoa8Adtn6U_4core3fmt7Display3fmt
FNDA:0,_RNvXs7_NtNtNtCsdVnVozic4xr_8sciparse5scion7address4addrNtB5_11ScionAddrV4NtCs763I3Ci3PrZ_6utoipa13PartialSchema6schema
FNDA:0,_RNvXs_NtNtNtCsdVnVozic4xr_8sciparse5scion7address4addrNtB4_9ScionAddrNtNtNtCs4eoa8Adtn6U_4core3str6traits7FromStr8from_str
FNDA:0,_RNvXsa_NtNtNtCsdVnVozic4xr_8sciparse5scion7address4addrNtB5_11ScionAddrV6NtNtNtCs4eoa8Adtn6U_4core3str6traits7FromStr8from_str
FNDA:0,_RNvXsb_NtNtNtCsdVnVozic4xr_8sciparse5scion7address4addrNtB5_11ScionAddrV6NtNtCs4eoa8Adtn6U_4core3fmt7Display3fmt
FNDA:0,_RNvXsd_NtNtNtCsdVnVozic4xr_8sciparse5scion7address4addrNtB5_11ScionAddrV6NtCs763I3Ci3PrZ_6utoipa13PartialSchema6schema
FNDA:0,_RNvXsg_NtNtNtCsdVnVozic4xr_8sciparse5scion7address4addrNtB5_12ScionAddrSvcNtNtNtCs4eoa8Adtn6U_4core3str6traits7FromStr8from_str
FNDA:0,_RNvXsh_NtNtNtCsdVnVozic4xr_8sciparse5scion7address4addrNtB5_12ScionAddrSvcNtNtCs4eoa8Adtn6U_4core3fmt7Display3fmt
FNDA:0,_RNvXsj_NtNtNtCsdVnVozic4xr_8sciparse5scion7address4addrNtB5_12ScionAddrSvcNtCs763I3Ci3PrZ_6utoipa13PartialSchema6schema
FNDA:0,_RNvMNtNtNtCsdVnVozic4xr_8sciparse5scion7address4addrNtB2_9ScionAddr11set_isd_asn
FNDA:0,_RNvMNtNtNtCsdVnVozic4xr_8sciparse5scion7address4addrNtB2_9ScionAddr2ip
FNDA:0,_RNvMNtNtNtCsdVnVozic4xr_8sciparse5scion7address4addrNtB2_9ScionAddr3new
FNDA:0,_RNvMNtNtNtCsdVnVozic4xr_8sciparse5scion7address4addrNtB2_9ScionAddr8set_host
FNDA:0,_RNvXs6_NtNtNtCsdVnVozic4xr_8sciparse5scion7address4addrNtB5_11ScionAddrV4INtNtCs4eoa8Adtn6U_4core7convert7TryFromNtB5_9ScionAddrE8try_from
FNDA:0,_RNvXsc_NtNtNtCsdVnVozic4xr_8sciparse5scion7address4addrNtB5_11ScionAddrV6INtNtCs4eoa8Adtn6U_4core7convert7TryFromNtB5_9ScionAddrE8try_from
FNDA:0,_RNvXsi_NtNtNtCsdVnVozic4xr_8sciparse5scion7address4addrNtB5_12ScionAddrSvcINtNtCs4eoa8Adtn6U_4core7convert7TryFromNtB5_9ScionAddrE8try_from
FNF:26
FNH:0
DA:58,0
DA:59,0
DA:60,0
DA:61,0
DA:62,0
DA:64,0
DA:67,0
DA:68,0
DA:69,0
DA:70,0
DA:71,0
DA:73,0
DA:76,0
DA:77,0
DA:78,0
DA:79,0
DA:80,0
DA:82,0
DA:85,0
DA:86,0
DA:87,0
DA:88,0
DA:89,0
DA:91,0
DA:94,0
DA:95,0
DA:96,0
DA:99,0
DA:100,0
DA:101,0
DA:102,0
DA:103,0
DA:105,0
DA:109,0
DA:110,0
DA:111,0
DA:112,0
DA:113,0
DA:114,0
DA:115,0
DA:117,0
DA:119,0
DA:122,0
DA:123,0
DA:124,0
DA:125,0
DA:126,0
DA:128,0
DA:138,0
DA:139,0
DA:140,0
DA:141,0
DA:142,0
DA:143,0
DA:144,0
DA:145,0
DA:146,0
DA:147,0
DA:166,0
DA:167,0
DA:168,0
DA:172,0
DA:173,0
DA:174,0
DA:175,0
DA:178,0
DA:179,0
DA:180,0
DA:184,0
DA:185,0
DA:186,0
DA:187,0
DA:189,0
DA:192,0
DA:193,0
DA:194,0
DA:195,0
DA:196,0
DA:197,0
DA:216,0
DA:217,0
DA:218,0
DA:222,0
DA:223,0
DA:224,0
DA:225,0
DA:228,0
DA:229,0
DA:230,0
DA:234,0
DA:235,0
DA:236,0
DA:237,0
DA:239,0
DA:242,0
DA:243,0
DA:244,0
DA:245,0
DA:246,0
DA:247,0
DA:266,0
DA:267,0
DA:268,0
DA:272,0
DA:273,0
DA:274,0
DA:275,0
DA:278,0
DA:279,0
DA:280,0
DA:284,0
DA:285,0
DA:286,0
DA:287,0
DA:289,0
DA:292,0
DA:293,0
DA:294,0
DA:295,0
DA:296,0
DA:297,0
DA:301,0
DA:302,0
DA:303,0
DA:304,0
DA:305,0
DA:306,0
DA:307,0
DA:309,0
DA:310,0
DA:311,0
DA:312,0
DA:313,0
DA:314,0
DA:315,0
DA:316,0
DA:317,0
DA:318,0
DA:319,0
BRF:0
BRH:0
LF:139
LH:0
end_of_record
SF:/home/akelbsch/projects/scion/endhost/public/scion-proto/sciparse/src/scion/address/host_addr.rs
FN:285,_RNCNvMs8_NtNtNtCsdVnVozic4xr_8sciparse5scion7address9host_addrNtB7_12WireHostAddr10from_parts0Bd_
FN:305,_RNCNvMs8_NtNtNtCsdVnVozic4xr_8sciparse5scion7address9host_addrNtB7_12WireHostAddr10from_partss0_0Bd_
FN:318,_RNCNvMs8_NtNtNtCsdVnVozic4xr_8sciparse5scion7address9host_addrNtB7_12WireHostAddr10from_partss1_0Bd_
FN:295,_RNCNvMs8_NtNtNtCsdVnVozic4xr_8sciparse5scion7address9host_addrNtB7_12WireHostAddr10from_partss_0Bd_
FN:572,_RNCNvNtNtNtNtCsdVnVozic4xr_8sciparse5scion7address9host_addr5ptest32arbitrary_unknown_wire_host_addr0Bb_
FN:628,_RNCNvNtNtNtNtCsdVnVozic4xr_8sciparse5scion7address9host_addr5ptest37arbitrary_unknown_wire_host_addr_type0Bb_
FN:629,_RNCNvNtNtNtNtCsdVnVozic4xr_8sciparse5scion7address9host_addr5ptest37arbitrary_unknown_wire_host_addr_types_0Bb_
FN:189,_RNvMs4_NtNtNtCsdVnVozic4xr_8sciparse5scion7address9host_addrNtB5_11ServiceAddr10to_anycast
FN:179,_RNvMs4_NtNtNtCsdVnVozic4xr_8sciparse5scion7address9host_addrNtB5_11ServiceAddr12is_multicast
FN:184,_RNvMs4_NtNtNtCsdVnVozic4xr_8sciparse5scion7address9host_addrNtB5_11ServiceAddr12to_multicast
FN:174,_RNvMs4_NtNtNtCsdVnVozic4xr_8sciparse5scion7address9host_addrNtB5_11ServiceAddr6to_u16
FN:277,_RNvMs8_NtNtNtCsdVnVozic4xr_8sciparse5scion7address9host_addrNtB5_12WireHostAddr10from_parts
FN:352,_RNvMs8_NtNtNtCsdVnVozic4xr_8sciparse5scion7address9host_addrNtB5_12WireHostAddr15scion_host_addr
FN:362,_RNvMs8_NtNtNtCsdVnVozic4xr_8sciparse5scion7address9host_addrNtB5_12WireHostAddr9addr_type
FN:466,_RNvMsa_NtNtNtCsdVnVozic4xr_8sciparse5scion7address9host_addrNtB5_16WireHostAddrType4size
FN:567,_RNvNtNtNtNtCsdVnVozic4xr_8sciparse5scion7address9host_addr5ptest32arbitrary_unknown_wire_host_addr
FN:627,_RNvNtNtNtNtCsdVnVozic4xr_8sciparse5scion7address9host_addr5ptest37arbitrary_unknown_wire_host_addr_type
FN:109,_RNvXs0_NtNtNtCsdVnVozic4xr_8sciparse5scion7address9host_addrNtB5_13ScionHostAddrNtNtCs4eoa8Adtn6U_4core3fmt7Display3fmt
FN:616,_RNvXs1_NtNtNtNtCsdVnVozic4xr_8sciparse5scion7address9host_addr5ptestNtB7_16WireHostAddrTypeNtNtNtCskZahNybV1yu_8proptest9arbitrary6traits9Arbitrary14arbitrary_with
FN:199,_RNvXs5_NtNtNtCsdVnVozic4xr_8sciparse5scion7address9host_addrNtB5_11ServiceAddrNtNtCs4eoa8Adtn6U_4core3fmt7Display3fmt
FN:217,_RNvXs6_NtNtNtCsdVnVozic4xr_8sciparse5scion7address9host_addrNtB5_11ServiceAddrNtNtNtCs4eoa8Adtn6U_4core3str6traits7FromStr8from_str
FN:386,_RNvXs9_NtNtNtCsdVnVozic4xr_8sciparse5scion7address9host_addrNtB5_12WireHostAddrNtNtNtBb_4core6encode10WireEncode10wire_valid
FN:377,_RNvXs9_NtNtNtCsdVnVozic4xr_8sciparse5scion7address9host_addrNtB5_12WireHostAddrNtNtNtBb_4core6encode10WireEncode13required_size
FN:403,_RNvXs9_NtNtNtCsdVnVozic4xr_8sciparse5scion7address9host_addrNtB5_12WireHostAddrNtNtNtBb_4core6encode10WireEncode16encode_unchecked
FN:96,_RNvXs_NtNtNtCsdVnVozic4xr_8sciparse5scion7address9host_addrNtB4_13ScionHostAddrNtNtNtCs4eoa8Adtn6U_4core3str6traits7FromStr8from_str
FN:556,_RNvXs_NtNtNtNtCsdVnVozic4xr_8sciparse5scion7address9host_addr5ptestNtB6_12WireHostAddrNtNtNtCskZahNybV1yu_8proptest9arbitrary6traits9Arbitrary14arbitrary_with
FN:476,_RNvXsb_NtNtNtCsdVnVozic4xr_8sciparse5scion7address9host_addrNtB5_16WireHostAddrTypeINtNtCs4eoa8Adtn6U_4core7convert4FromhE4from
FN:490,_RNvXsc_NtNtNtCsdVnVozic4xr_8sciparse5scion7address9host_addrhINtNtCs4eoa8Adtn6U_4core7convert4FromNtB5_16WireHostAddrTypeE4from
FN:90,_RNvMNtNtNtCsdVnVozic4xr_8sciparse5scion7address9host_addrNtB2_13ScionHostAddr10is_service
FN:75,_RNvMNtNtNtCsdVnVozic4xr_8sciparse5scion7address9host_addrNtB2_13ScionHostAddr17to_wire_host_addr
FN:58,_RNvMNtNtNtCsdVnVozic4xr_8sciparse5scion7address9host_addrNtB2_13ScionHostAddr2ip
FN:50,_RNvMNtNtNtCsdVnVozic4xr_8sciparse5scion7address9host_addrNtB2_13ScionHostAddr7from_ip
FN:80,_RNvMNtNtNtCsdVnVozic4xr_8sciparse5scion7address9host_addrNtB2_13ScionHostAddr7is_ipv4
FN:85,_RNvMNtNtNtCsdVnVozic4xr_8sciparse5scion7address9host_addrNtB2_13ScionHostAddr7is_ipv6
FN:67,_RNvMNtNtNtCsdVnVozic4xr_8sciparse5scion7address9host_addrNtB2_13ScionHostAddr7service
FN:194,_RNvMs4_NtNtNtCsdVnVozic4xr_8sciparse5scion7address9host_addrNtB5_11ServiceAddr10is_anycast
FN:334,_RNvMs8_NtNtNtCsdVnVozic4xr_8sciparse5scion7address9host_addrNtB5_12WireHostAddr2ip
FN:343,_RNvMs8_NtNtNtCsdVnVozic4xr_8sciparse5scion7address9host_addrNtB5_12WireHostAddr7service
FN:542,_RNvXNtNtNtNtCsdVnVozic4xr_8sciparse5scion7address9host_addr5ptestNtB2_27ArbitraryWireHostAddrParamsNtNtCs4eoa8Adtn6U_4core7default7Default7default
FN:602,_RNvXs0_NtNtNtNtCsdVnVozic4xr_8sciparse5scion7address9host_addr5ptestNtB5_31ArbitraryWireHostAddrTypeParamsNtNtCs4eoa8Adtn6U_4core7default7Default7default
FN:120,_RNvXs1_NtNtNtCsdVnVozic4xr_8sciparse5scion7address9host_addrNtNtNtCs4eoa8Adtn6U_4core3net7ip_addr8Ipv4AddrINtNtB12_7convert7TryFromNtB5_13ScionHostAddrE8try_from
FN:129,_RNvXs2_NtNtNtCsdVnVozic4xr_8sciparse5scion7address9host_addrNtNtNtCs4eoa8Adtn6U_4core3net7ip_addr8Ipv6AddrINtNtB12_7convert7TryFromNtB5_13ScionHostAddrE8try_from
FN:138,_RNvXs3_NtNtNtCsdVnVozic4xr_8sciparse5scion7address9host_addrNtB5_13ScionHostAddrINtNtCs4eoa8Adtn6U_4core7convert7TryFromNtB5_12WireHostAddrE8try_from
FN:237,_RNvXs7_NtNtNtCsdVnVozic4xr_8sciparse5scion7address9host_addrNtB5_11ServiceAddrINtNtCs4eoa8Adtn6U_4core7convert7TryFromNtB5_13ScionHostAddrE8try_from
FNDA:0,_RNCNvMs8_NtNtNtCsdVnVozic4xr_8sciparse5scion7address9host_addrNtB7_12WireHostAddr10from_parts0Bd_
FNDA:0,_RNCNvMs8_NtNtNtCsdVnVozic4xr_8sciparse5scion7address9host_addrNtB7_12WireHostAddr10from_partss0_0Bd_
FNDA:0,_RNCNvMs8_NtNtNtCsdVnVozic4xr_8sciparse5scion7address9host_addrNtB7_12WireHostAddr10from_partss1_0Bd_
FNDA:0,_RNCNvMs8_NtNtNtCsdVnVozic4xr_8sciparse5scion7address9host_addrNtB7_12WireHostAddr10from_partss_0Bd_
FNDA:0,_RNCNvNtNtNtNtCsdVnVozic4xr_8sciparse5scion7address9host_addr5ptest32arbitrary_unknown_wire_host_addr0Bb_
FNDA:0,_RNCNvNtNtNtNtCsdVnVozic4xr_8sciparse5scion7address9host_addr5ptest37arbitrary_unknown_wire_host_addr_type0Bb_
FNDA:0,_RNCNvNtNtNtNtCsdVnVozic4xr_8sciparse5scion7address9host_addr5ptest37arbitrary_unknown_wire_host_addr_types_0Bb_
FNDA:0,_RNvMs4_NtNtNtCsdVnVozic4xr_8sciparse5scion7address9host_addrNtB5_11ServiceAddr10to_anycast
FNDA:0,_RNvMs4_NtNtNtCsdVnVozic4xr_8sciparse5scion7address9host_addrNtB5_11ServiceAddr12is_multicast
FNDA:0,_RNvMs4_NtNtNtCsdVnVozic4xr_8sciparse5scion7address9host_addrNtB5_11ServiceAddr12to_multicast
FNDA:0,_RNvMs4_NtNtNtCsdVnVozic4xr_8sciparse5scion7address9host_addrNtB5_11ServiceAddr6to_u16
FNDA:1288,_RNvMs8_NtNtNtCsdVnVozic4xr_8sciparse5scion7address9host_addrNtB5_12WireHostAddr10from_parts
FNDA:32,_RNvMs8_NtNtNtCsdVnVozic4xr_8sciparse5scion7address9host_addrNtB5_12WireHostAddr15scion_host_addr
FNDA:0,_RNvMs8_NtNtNtCsdVnVozic4xr_8sciparse5scion7address9host_addrNtB5_12WireHostAddr9addr_type
FNDA:10246,_RNvMsa_NtNtNtCsdVnVozic4xr_8sciparse5scion7address9host_addrNtB5_16WireHostAddrType4size
FNDA:0,_RNvNtNtNtNtCsdVnVozic4xr_8sciparse5scion7address9host_addr5ptest32arbitrary_unknown_wire_host_addr
FNDA:0,_RNvNtNtNtNtCsdVnVozic4xr_8sciparse5scion7address9host_addr5ptest37arbitrary_unknown_wire_host_addr_type
FNDA:0,_RNvXs0_NtNtNtCsdVnVozic4xr_8sciparse5scion7address9host_addrNtB5_13ScionHostAddrNtNtCs4eoa8Adtn6U_4core3fmt7Display3fmt
FNDA:0,_RNvXs1_NtNtNtNtCsdVnVozic4xr_8sciparse5scion7address9host_addr5ptestNtB7_16WireHostAddrTypeNtNtNtCskZahNybV1yu_8proptest9arbitrary6traits9Arbitrary14arbitrary_with
FNDA:0,_RNvXs5_NtNtNtCsdVnVozic4xr_8sciparse5scion7address9host_addrNtB5_11ServiceAddrNtNtCs4eoa8Adtn6U_4core3fmt7Display3fmt
FNDA:0,_RNvXs6_NtNtNtCsdVnVozic4xr_8sciparse5scion7address9host_addrNtB5_11ServiceAddrNtNtNtCs4eoa8Adtn6U_4core3str6traits7FromStr8from_str
FNDA:0,_RNvXs9_NtNtNtCsdVnVozic4xr_8sciparse5scion7address9host_addrNtB5_12WireHostAddrNtNtNtBb_4core6encode10WireEncode10wire_valid
FNDA:0,_RNvXs9_NtNtNtCsdVnVozic4xr_8sciparse5scion7address9host_addrNtB5_12WireHostAddrNtNtNtBb_4core6encode10WireEncode13required_size
FNDA:0,_RNvXs9_NtNtNtCsdVnVozic4xr_8sciparse5scion7address9host_addrNtB5_12WireHostAddrNtNtNtBb_4core6encode10WireEncode16encode_unchecked
FNDA:0,_RNvXs_NtNtNtCsdVnVozic4xr_8sciparse5scion7address9host_addrNtB4_13ScionHostAddrNtNtNtCs4eoa8Adtn6U_4core3str6traits7FromStr8from_str
FNDA:0,_RNvXs_NtNtNtNtCsdVnVozic4xr_8sciparse5scion7address9host_addr5ptestNtB6_12WireHostAddrNtNtNtCskZahNybV1yu_8proptest9arbitrary6traits9Arbitrary14arbitrary_with
FNDA:14046,_RNvXsb_NtNtNtCsdVnVozic4xr_8sciparse5scion7address9host_addrNtB5_16WireHostAddrTypeINtNtCs4eoa8Adtn6U_4core7convert4FromhE4from
FNDA:1256,_RNvXsc_NtNtNtCsdVnVozic4xr_8sciparse5scion7address9host_addrhINtNtCs4eoa8Adtn6U_4core7convert4FromNtB5_16WireHostAddrTypeE4from
FNDA:0,_RNvMNtNtNtCsdVnVozic4xr_8sciparse5scion7address9host_addrNtB2_13ScionHostAddr10is_service
FNDA:0,_RNvMNtNtNtCsdVnVozic4xr_8sciparse5scion7address9host_addrNtB2_13ScionHostAddr17to_wire_host_addr
FNDA:0,_RNvMNtNtNtCsdVnVozic4xr_8sciparse5scion7address9host_addrNtB2_13ScionHostAddr2ip
FNDA:0,_RNvMNtNtNtCsdVnVozic4xr_8sciparse5scion7address9host_addrNtB2_13ScionHostAddr7from_ip
FNDA:0,_RNvMNtNtNtCsdVnVozic4xr_8sciparse5scion7address9host_addrNtB2_13ScionHostAddr7is_ipv4
FNDA:0,_RNvMNtNtNtCsdVnVozic4xr_8sciparse5scion7address9host_addrNtB2_13ScionHostAddr7is_ipv6
FNDA:0,_RNvMNtNtNtCsdVnVozic4xr_8sciparse5scion7address9host_addrNtB2_13ScionHostAddr7service
FNDA:0,_RNvMs4_NtNtNtCsdVnVozic4xr_8sciparse5scion7address9host_addrNtB5_11ServiceAddr10is_anycast
FNDA:0,_RNvMs8_NtNtNtCsdVnVozic4xr_8sciparse5scion7address9host_addrNtB5_12WireHostAddr2ip
FNDA:0,_RNvMs8_NtNtNtCsdVnVozic4xr_8sciparse5scion7address9host_addrNtB5_12WireHostAddr7service
FNDA:0,_RNvXNtNtNtNtCsdVnVozic4xr_8sciparse5scion7address9host_addr5ptestNtB2_27ArbitraryWireHostAddrParamsNtNtCs4eoa8Adtn6U_4core7default7Default7default
FNDA:0,_RNvXs0_NtNtNtNtCsdVnVozic4xr_8sciparse5scion7address9host_addr5ptestNtB5_31ArbitraryWireHostAddrTypeParamsNtNtCs4eoa8Adtn6U_4core7default7Default7default
FNDA:0,_RNvXs1_NtNtNtCsdVnVozic4xr_8sciparse5scion7address9host_addrNtNtNtCs4eoa8Adtn6U_4core3net7ip_addr8Ipv4AddrINtNtB12_7convert7TryFromNtB5_13ScionHostAddrE8try_from
FNDA:0,_RNvXs2_NtNtNtCsdVnVozic4xr_8sciparse5scion7address9host_addrNtNtNtCs4eoa8Adtn6U_4core3net7ip_addr8Ipv6AddrINtNtB12_7convert7TryFromNtB5_13ScionHostAddrE8try_from
FNDA:0,_RNvXs3_NtNtNtCsdVnVozic4xr_8sciparse5scion7address9host_addrNtB5_13ScionHostAddrINtNtCs4eoa8Adtn6U_4core7convert7TryFromNtB5_12WireHostAddrE8try_from
FNDA:0,_RNvXs7_NtNtNtCsdVnVozic4xr_8sciparse5scion7address9host_addrNtB5_11ServiceAddrINtNtCs4eoa8Adtn6U_4core7convert7TryFromNtB5_13ScionHostAddrE8try_from
FNF:44
FNH:5
DA:50,0
DA:51,0
DA:52,0
DA:53,0
DA:55,0
DA:58,0
DA:59,0
DA:60,0
DA:61,0
DA:62,0
DA:64,0
DA:67,0
DA:68,0
DA:69,0
DA:70,0
DA:72,0
DA:75,0
DA:76,0
DA:77,0
DA:80,0
DA:81,0
DA:82,0
DA:85,0
DA:86,0
DA:87,0
DA:90,0
DA:91,0
DA:92,0
DA:96,0
DA:97,0
DA:98,0
DA:99,0
DA:100,0
DA:101,0
DA:102,0
DA:104,0
DA:106,0
DA:109,0
DA:110,0
DA:111,0
DA:112,0
DA:113,0
DA:115,0
DA:116,0
DA:120,0
DA:121,0
DA:122,0
DA:123,0
DA:125,0
DA:129,0
DA:130,0
DA:131,0
DA:132,0
DA:134,0
DA:138,0
DA:139,0
DA:140,0
DA:141,0
DA:142,0
DA:174,0
DA:175,0
DA:176,0
DA:179,0
DA:180,0
DA:181,0
DA:184,0
DA:185,0
DA:186,0
DA:189,0
DA:190,0
DA:191,0
DA:194,0
DA:195,0
DA:196,0
DA:199,0
DA:200,0
DA:201,0
DA:202,0
DA:203,0
DA:204,0
DA:207,0
DA:208,0
DA:209,0
DA:211,0
DA:212,0
DA:217,0
DA:219,0
DA:221,0
DA:222,0
DA:223,0
DA:224,0
DA:225,0
DA:228,0
DA:229,0
DA:230,0
DA:231,0
DA:233,0
DA:237,0
DA:238,0
DA:239,0
DA:240,0
DA:242,0
DA:277,1288
DA:278,1288
DA:279,1288
DA:280,1288
DA:283,1288
DA:285,429
DA:286,0
DA:287,0
DA:288,0
DA:289,0
DA:290,0
DA:291,0
DA:292,429
DA:295,252
DA:296,0
DA:297,0
DA:298,0
DA:299,0
DA:300,0
DA:301,0
DA:302,252
DA:305,163
DA:306,0
DA:307,0
DA:308,0
DA:309,0
DA:310,0
DA:311,0
DA:313,163
DA:314,163
DA:315,163
DA:317,444
DA:318,444
DA:319,0
DA:320,0
DA:321,0
DA:322,0
DA:323,0
DA:324,0
DA:326,444
DA:330,1288
DA:331,1288
DA:334,0
DA:335,0
DA:336,0
DA:337,0
DA:338,0
DA:340,0
DA:343,0
DA:344,0
DA:345,0
DA:346,0
DA:348,0
DA:352,32
DA:353,32
DA:354,8
DA:355,21
DA:356,2
DA:357,1
DA:359,32
DA:362,0
DA:363,0
DA:364,0
DA:365,0
DA:366,0
DA:367,0
DA:368,0
DA:369,0
DA:370,0
DA:371,0
DA:374,0
DA:377,0
DA:378,0
DA:379,0
DA:380,0
DA:381,0
DA:382,0
DA:384,0
DA:386,0
DA:387,0
DA:388,0
DA:389,0
DA:390,0
DA:391,0
DA:392,0
DA:393,0
DA:394,0
DA:395,0
DA:397,0
DA:401,0
DA:403,0
DA:404,0
DA:405,0
DA:406,0
DA:407,0
DA:408,0
DA:409,0
DA:410,0
DA:412,0
DA:413,0
DA:414,0
DA:415,0
DA:416,0
DA:417,0
DA:419,0
DA:420,0
DA:421,0
DA:422,0
DA:423,0
DA:424,0
DA:425,0
DA:427,0
DA:428,0
DA:429,0
DA:430,0
DA:431,0
DA:432,0
DA:435,0
DA:466,10246
DA:467,10246
DA:468,3514
DA:469,1807
DA:470,1251
DA:471,3674
DA:473,10246
DA:476,14046
DA:477,14046
DA:478,4785
DA:479,2521
DA:480,1736
DA:481,5004
DA:482,5004
DA:483,5004
DA:484,5004
DA:487,14046
DA:490,1256
DA:491,1256
DA:492,421
DA:493,231
DA:494,161
DA:495,443
DA:496,443
DA:499,1256
DA:542,0
DA:543,0
DA:544,0
DA:545,0
DA:546,0
DA:547,0
DA:548,0
DA:549,0
DA:556,0
DA:557,0
DA:558,0
DA:559,0
DA:560,0
DA:561,0
DA:563,0
DA:564,0
DA:567,0
DA:568,0
DA:569,0
DA:570,0
DA:571,0
DA:572,0
DA:574,0
DA:575,0
DA:576,0
DA:577,0
DA:578,0
DA:579,0
DA:581,0
DA:582,0
DA:583,0
DA:602,0
DA:603,0
DA:604,0
DA:605,0
DA:606,0
DA:607,0
DA:608,0
DA:609,0
DA:616,0
DA:617,0
DA:618,0
DA:619,0
DA:620,0
DA:621,0
DA:623,0
DA:624,0
DA:627,0
DA:628,0
DA:629,0
DA:630,0
BRF:0
BRH:0
LF:307
LH:50
end_of_record
SF:/home/akelbsch/projects/scion/endhost/public/scion-proto/sciparse/src/scion/address/ip_addr.rs
FN:129,_RNvXs0_NtNtNtCsdVnVozic4xr_8sciparse5scion7address7ip_addrNtB5_11ScionIpAddrNtNtCs4eoa8Adtn6U_4core3fmt7Display3fmt
FN:142,_RNvXs1_NtNtNtCsdVnVozic4xr_8sciparse5scion7address7ip_addrNtB5_11ScionIpAddrNtCs763I3Ci3PrZ_6utoipa13PartialSchema6schema
FN:118,_RNvXs_NtNtNtCsdVnVozic4xr_8sciparse5scion7address7ip_addrNtB4_11ScionIpAddrNtNtNtCs4eoa8Adtn6U_4core3str6traits7FromStr8from_str
FN:71,_RNvMNtNtNtCsdVnVozic4xr_8sciparse5scion7address7ip_addrNtB2_11ScionIpAddr11set_isd_asn
FN:109,_RNvMNtNtNtCsdVnVozic4xr_8sciparse5scion7address7ip_addrNtB2_11ScionIpAddr15into_scion_addr
FN:92,_RNvMNtNtNtCsdVnVozic4xr_8sciparse5scion7address7ip_addrNtB2_11ScionIpAddr2ip
FN:55,_RNvMNtNtNtCsdVnVozic4xr_8sciparse5scion7address7ip_addrNtB2_11ScionIpAddr3new
FN:79,_RNvMNtNtNtCsdVnVozic4xr_8sciparse5scion7address7ip_addrNtB2_11ScionIpAddr4host
FN:99,_RNvMNtNtNtCsdVnVozic4xr_8sciparse5scion7address7ip_addrNtB2_11ScionIpAddr7is_ipv4
FN:104,_RNvMNtNtNtCsdVnVozic4xr_8sciparse5scion7address7ip_addrNtB2_11ScionIpAddr7is_ipv6
FN:63,_RNvMNtNtNtCsdVnVozic4xr_8sciparse5scion7address7ip_addrNtB2_11ScionIpAddr7isd_asn
FN:87,_RNvMNtNtNtCsdVnVozic4xr_8sciparse5scion7address7ip_addrNtB2_11ScionIpAddr8set_host
FNDA:0,_RNvXs0_NtNtNtCsdVnVozic4xr_8sciparse5scion7address7ip_addrNtB5_11ScionIpAddrNtNtCs4eoa8Adtn6U_4core3fmt7Display3fmt
FNDA:0,_RNvXs1_NtNtNtCsdVnVozic4xr_8sciparse5scion7address7ip_addrNtB5_11ScionIpAddrNtCs763I3Ci3PrZ_6utoipa13PartialSchema6schema
FNDA:0,_RNvXs_NtNtNtCsdVnVozic4xr_8sciparse5scion7address7ip_addrNtB4_11ScionIpAddrNtNtNtCs4eoa8Adtn6U_4core3str6traits7FromStr8from_str
FNDA:0,_RNvMNtNtNtCsdVnVozic4xr_8sciparse5scion7address7ip_addrNtB2_11ScionIpAddr11set_isd_asn
FNDA:0,_RNvMNtNtNtCsdVnVozic4xr_8sciparse5scion7address7ip_addrNtB2_11ScionIpAddr15into_scion_addr
FNDA:0,_RNvMNtNtNtCsdVnVozic4xr_8sciparse5scion7address7ip_addrNtB2_11ScionIpAddr2ip
FNDA:0,_RNvMNtNtNtCsdVnVozic4xr_8sciparse5scion7address7ip_addrNtB2_11ScionIpAddr3new
FNDA:0,_RNvMNtNtNtCsdVnVozic4xr_8sciparse5scion7address7ip_addrNtB2_11ScionIpAddr4host
FNDA:0,_RNvMNtNtNtCsdVnVozic4xr_8sciparse5scion7address7ip_addrNtB2_11ScionIpAddr7is_ipv4
FNDA:0,_RNvMNtNtNtCsdVnVozic4xr_8sciparse5scion7address7ip_addrNtB2_11ScionIpAddr7is_ipv6
FNDA:0,_RNvMNtNtNtCsdVnVozic4xr_8sciparse5scion7address7ip_addrNtB2_11ScionIpAddr7isd_asn
FNDA:0,_RNvMNtNtNtCsdVnVozic4xr_8sciparse5scion7address7ip_addrNtB2_11ScionIpAddr8set_host
FNF:12
FNH:0
DA:55,0
DA:56,0
DA:57,0
DA:58,0
DA:60,0
DA:63,0
DA:64,0
DA:65,0
DA:66,0
DA:68,0
DA:71,0
DA:72,0
DA:73,0
DA:74,0
DA:76,0
DA:79,0
DA:80,0
DA:81,0
DA:82,0
DA:84,0
DA:87,0
DA:88,0
DA:89,0
DA:92,0
DA:93,0
DA:94,0
DA:95,0
DA:97,0
DA:99,0
DA:100,0
DA:101,0
DA:104,0
DA:105,0
DA:106,0
DA:109,0
DA:110,0
DA:111,0
DA:112,0
DA:114,0
DA:118,0
DA:119,0
DA:120,0
DA:121,0
DA:122,0
DA:124,0
DA:126,0
DA:129,0
DA:130,0
DA:131,0
DA:132,0
DA:134,0
DA:142,0
DA:143,0
DA:144,0
DA:145,0
DA:146,0
DA:147,0
BRF:0
BRH:0
LF:57
LH:0
end_of_record
SF:/home/akelbsch/projects/scion/endhost/public/scion-proto/sciparse/src/scion/address/ip_socket_addr.rs
FN:257,_RNCNvXs0_NtNtNtCsdVnVozic4xr_8sciparse5scion7address14ip_socket_addrNtB7_17ScionSocketIpAddrNtNtNtCs4eoa8Adtn6U_4core3str6traits7FromStr8from_str0Bd_
FN:254,_RNvXs0_NtNtNtCsdVnVozic4xr_8sciparse5scion7address14ip_socket_addrNtB5_17ScionSocketIpAddrNtNtNtCs4eoa8Adtn6U_4core3str6traits7FromStr8from_str
FN:244,_RNvXs_NtNtNtCsdVnVozic4xr_8sciparse5scion7address14ip_socket_addrNtB4_17ScionSocketIpAddrNtNtCs4eoa8Adtn6U_4core3fmt7Display3fmt
FN:174,_RNvMNtNtNtCsdVnVozic4xr_8sciparse5scion7address14ip_socket_addrNtB2_17ScionSocketIpAddr10scion_addr
FN:236,_RNvMNtNtNtCsdVnVozic4xr_8sciparse5scion7address14ip_socket_addrNtB2_17ScionSocketIpAddr11set_isd_asn
FN:126,_RNvMNtNtNtCsdVnVozic4xr_8sciparse5scion7address14ip_socket_addrNtB2_17ScionSocketIpAddr11socket_addr
FN:82,_RNvMNtNtNtCsdVnVozic4xr_8sciparse5scion7address14ip_socket_addrNtB2_17ScionSocketIpAddr16from_socket_addr
FN:104,_RNvMNtNtNtCsdVnVozic4xr_8sciparse5scion7address14ip_socket_addrNtB2_17ScionSocketIpAddr19try_from_scion_addr
FN:142,_RNvMNtNtNtCsdVnVozic4xr_8sciparse5scion7address14ip_socket_addrNtB2_17ScionSocketIpAddr20into_scion_sock_addr
FN:151,_RNvMNtNtNtCsdVnVozic4xr_8sciparse5scion7address14ip_socket_addrNtB2_17ScionSocketIpAddr2ip
FN:62,_RNvMNtNtNtCsdVnVozic4xr_8sciparse5scion7address14ip_socket_addrNtB2_17ScionSocketIpAddr3new
FN:205,_RNvMNtNtNtCsdVnVozic4xr_8sciparse5scion7address14ip_socket_addrNtB2_17ScionSocketIpAddr4host
FN:192,_RNvMNtNtNtCsdVnVozic4xr_8sciparse5scion7address14ip_socket_addrNtB2_17ScionSocketIpAddr4port
FN:169,_RNvMNtNtNtCsdVnVozic4xr_8sciparse5scion7address14ip_socket_addrNtB2_17ScionSocketIpAddr6set_ip
FN:159,_RNvMNtNtNtCsdVnVozic4xr_8sciparse5scion7address14ip_socket_addrNtB2_17ScionSocketIpAddr7is_ipv4
FN:164,_RNvMNtNtNtCsdVnVozic4xr_8sciparse5scion7address14ip_socket_addrNtB2_17ScionSocketIpAddr7is_ipv6
FN:228,_RNvMNtNtNtCsdVnVozic4xr_8sciparse5scion7address14ip_socket_addrNtB2_17ScionSocketIpAddr7isd_asn
FN:223,_RNvMNtNtNtCsdVnVozic4xr_8sciparse5scion7address14ip_socket_addrNtB2_17ScionSocketIpAddr8set_host
FN:200,_RNvMNtNtNtCsdVnVozic4xr_8sciparse5scion7address14ip_socket_addrNtB2_17ScionSocketIpAddr8set_port
FN:266,_RNvXs1_NtNtNtCsdVnVozic4xr_8sciparse5scion7address14ip_socket_addrNtB5_17ScionSocketIpAddrINtNtCs4eoa8Adtn6U_4core7convert7TryFromNtNtB7_4addr9ScionAddrE8try_from
FNDA:0,_RNCNvXs0_NtNtNtCsdVnVozic4xr_8sciparse5scion7address14ip_socket_addrNtB7_17ScionSocketIpAddrNtNtNtCs4eoa8Adtn6U_4core3str6traits7FromStr8from_str0Bd_
FNDA:0,_RNvXs0_NtNtNtCsdVnVozic4xr_8sciparse5scion7address14ip_socket_addrNtB5_17ScionSocketIpAddrNtNtNtCs4eoa8Adtn6U_4core3str6traits7FromStr8from_str
FNDA:0,_RNvXs_NtNtNtCsdVnVozic4xr_8sciparse5scion7address14ip_socket_addrNtB4_17ScionSocketIpAddrNtNtCs4eoa8Adtn6U_4core3fmt7Display3fmt
FNDA:0,_RNvMNtNtNtCsdVnVozic4xr_8sciparse5scion7address14ip_socket_addrNtB2_17ScionSocketIpAddr10scion_addr
FNDA:0,_RNvMNtNtNtCsdVnVozic4xr_8sciparse5scion7address14ip_socket_addrNtB2_17ScionSocketIpAddr11set_isd_asn
FNDA:0,_RNvMNtNtNtCsdVnVozic4xr_8sciparse5scion7address14ip_socket_addrNtB2_17ScionSocketIpAddr11socket_addr
FNDA:0,_RNvMNtNtNtCsdVnVozic4xr_8sciparse5scion7address14ip_socket_addrNtB2_17ScionSocketIpAddr16from_socket_addr
FNDA:0,_RNvMNtNtNtCsdVnVozic4xr_8sciparse5scion7address14ip_socket_addrNtB2_17ScionSocketIpAddr19try_from_scion_addr
FNDA:0,_RNvMNtNtNtCsdVnVozic4xr_8sciparse5scion7address14ip_socket_addrNtB2_17ScionSocketIpAddr20into_scion_sock_addr
FNDA:0,_RNvMNtNtNtCsdVnVozic4xr_8sciparse5scion7address14ip_socket_addrNtB2_17ScionSocketIpAddr2ip
FNDA:0,_RNvMNtNtNtCsdVnVozic4xr_8sciparse5scion7address14ip_socket_addrNtB2_17ScionSocketIpAddr3new
FNDA:0,_RNvMNtNtNtCsdVnVozic4xr_8sciparse5scion7address14ip_socket_addrNtB2_17ScionSocketIpAddr4host
FNDA:0,_RNvMNtNtNtCsdVnVozic4xr_8sciparse5scion7address14ip_socket_addrNtB2_17ScionSocketIpAddr4port
FNDA:0,_RNvMNtNtNtCsdVnVozic4xr_8sciparse5scion7address14ip_socket_addrNtB2_17ScionSocketIpAddr6set_ip
FNDA:0,_RNvMNtNtNtCsdVnVozic4xr_8sciparse5scion7address14ip_socket_addrNtB2_17ScionSocketIpAddr7is_ipv4
FNDA:0,_RNvMNtNtNtCsdVnVozic4xr_8sciparse5scion7address14ip_socket_addrNtB2_17ScionSocketIpAddr7is_ipv6
FNDA:0,_RNvMNtNtNtCsdVnVozic4xr_8sciparse5scion7address14ip_socket_addrNtB2_17ScionSocketIpAddr7isd_asn
FNDA:0,_RNvMNtNtNtCsdVnVozic4xr_8sciparse5scion7address14ip_socket_addrNtB2_17ScionSocketIpAddr8set_host
FNDA:0,_RNvMNtNtNtCsdVnVozic4xr_8sciparse5scion7address14ip_socket_addrNtB2_17ScionSocketIpAddr8set_port
FNDA:0,_RNvXs1_NtNtNtCsdVnVozic4xr_8sciparse5scion7address14ip_socket_addrNtB5_17ScionSocketIpAddrINtNtCs4eoa8Adtn6U_4core7convert7TryFromNtNtB7_4addr9ScionAddrE8try_from
FNF:20
FNH:0
DA:62,0
DA:63,0
DA:64,0
DA:65,0
DA:66,0
DA:67,0
DA:68,0
DA:69,0
DA:71,0
DA:72,0
DA:73,0
DA:74,0
DA:75,0
DA:76,0
DA:79,0
DA:82,0
DA:83,0
DA:84,0
DA:85,0
DA:86,0
DA:87,0
DA:88,0
DA:89,0
DA:91,0
DA:92,0
DA:93,0
DA:94,0
DA:95,0
DA:96,0
DA:99,0
DA:104,0
DA:105,0
DA:106,0
DA:107,0
DA:108,0
DA:109,0
DA:110,0
DA:111,0
DA:113,0
DA:114,0
DA:115,0
DA:116,0
DA:117,0
DA:118,0
DA:120,0
DA:122,0
DA:126,0
DA:127,0
DA:128,0
DA:129,0
DA:130,0
DA:131,0
DA:133,0
DA:134,0
DA:135,0
DA:136,0
DA:139,0
DA:142,0
DA:143,0
DA:144,0
DA:145,0
DA:147,0
DA:151,0
DA:152,0
DA:153,0
DA:154,0
DA:156,0
DA:159,0
DA:160,0
DA:161,0
DA:164,0
DA:165,0
DA:166,0
DA:169,0
DA:170,0
DA:171,0
DA:174,0
DA:175,0
DA:176,0
DA:177,0
DA:178,0
DA:179,0
DA:180,0
DA:182,0
DA:183,0
DA:184,0
DA:185,0
DA:186,0
DA:189,0
DA:192,0
DA:193,0
DA:194,0
DA:195,0
DA:197,0
DA:200,0
DA:201,0
DA:202,0
DA:205,0
DA:206,0
DA:207,0
DA:208,0
DA:209,0
DA:210,0
DA:211,0
DA:213,0
DA:214,0
DA:215,0
DA:216,0
DA:217,0
DA:220,0
DA:223,0
DA:224,0
DA:225,0
DA:228,0
DA:229,0
DA:230,0
DA:231,0
DA:233,0
DA:236,0
DA:237,0
DA:238,0
DA:239,0
DA:241,0
DA:244,0
DA:245,0
DA:246,0
DA:247,0
DA:249,0
DA:254,0
DA:255,0
DA:256,0
DA:257,0
DA:258,0
DA:259,0
DA:266,0
DA:267,0
DA:268,0
BRF:0
BRH:0
LF:138
LH:0
end_of_record
SF:/home/akelbsch/projects/scion/endhost/public/scion-proto/sciparse/src/scion/address/socket_addr.rs
FN:424,_RINvNtNtNtCsdVnVozic4xr_8sciparse5scion7address11socket_addr17parse_socket_addrNtNtB4_4addr11ScionAddrV4EB8_
FN:424,_RINvNtNtNtCsdVnVozic4xr_8sciparse5scion7address11socket_addr17parse_socket_addrNtNtB4_4addr11ScionAddrV6EB8_
FN:424,_RINvNtNtNtCsdVnVozic4xr_8sciparse5scion7address11socket_addr17parse_socket_addrNtNtB4_4addr12ScionAddrSvcEB8_
FN:266,_RNCNvXs0_NtNtNtCsdVnVozic4xr_8sciparse5scion7address11socket_addrNtB7_15ScionSocketAddrNtNtNtCs4eoa8Adtn6U_4core3str6traits7FromStr8from_str0Bd_
FN:267,_RNCNvXs0_NtNtNtCsdVnVozic4xr_8sciparse5scion7address11socket_addrNtB7_15ScionSocketAddrNtNtNtCs4eoa8Adtn6U_4core3str6traits7FromStr8from_strs_0Bd_
FN:158,_RNvMNtNtNtCsdVnVozic4xr_8sciparse5scion7address11socket_addrNtB2_15ScionSocketAddr10scion_addr
FN:56,_RNvMNtNtNtCsdVnVozic4xr_8sciparse5scion7address11socket_addrNtB2_15ScionSocketAddr3new
FN:182,_RNvMNtNtNtCsdVnVozic4xr_8sciparse5scion7address11socket_addrNtB2_15ScionSocketAddr4port
FN:415,_RNvNtNtNtCsdVnVozic4xr_8sciparse5scion7address11socket_addr18format_socket_addr
FN:263,_RNvXs0_NtNtNtCsdVnVozic4xr_8sciparse5scion7address11socket_addrNtB5_15ScionSocketAddrNtNtNtCs4eoa8Adtn6U_4core3str6traits7FromStr8from_str
FN:314,_RNvXs2_NtNtNtCsdVnVozic4xr_8sciparse5scion7address11socket_addrNtB5_17ScionSocketAddrV4NtNtNtCs4eoa8Adtn6U_4core3str6traits7FromStr8from_str
FN:326,_RNvXs3_NtNtNtCsdVnVozic4xr_8sciparse5scion7address11socket_addrNtB5_17ScionSocketAddrV4NtNtCs4eoa8Adtn6U_4core3fmt7Display3fmt
FN:357,_RNvXs5_NtNtNtCsdVnVozic4xr_8sciparse5scion7address11socket_addrNtB5_17ScionSocketAddrV6NtNtNtCs4eoa8Adtn6U_4core3str6traits7FromStr8from_str
FN:368,_RNvXs6_NtNtNtCsdVnVozic4xr_8sciparse5scion7address11socket_addrNtB5_17ScionSocketAddrV6NtNtCs4eoa8Adtn6U_4core3fmt7Display3fmt
FN:399,_RNvXs8_NtNtNtCsdVnVozic4xr_8sciparse5scion7address11socket_addrNtB5_18ScionSocketAddrSvcNtNtNtCs4eoa8Adtn6U_4core3str6traits7FromStr8from_str
FN:410,_RNvXs9_NtNtNtCsdVnVozic4xr_8sciparse5scion7address11socket_addrNtB5_18ScionSocketAddrSvcNtNtCs4eoa8Adtn6U_4core3fmt7Display3fmt
FN:252,_RNvXs_NtNtNtCsdVnVozic4xr_8sciparse5scion7address11socket_addrNtB4_15ScionSocketAddrNtNtCs4eoa8Adtn6U_4core3fmt7Display3fmt
FN:247,_RNvMNtNtNtCsdVnVozic4xr_8sciparse5scion7address11socket_addrNtB2_15ScionSocketAddr10is_service
FN:223,_RNvMNtNtNtCsdVnVozic4xr_8sciparse5scion7address11socket_addrNtB2_15ScionSocketAddr11set_isd_asn
FN:131,_RNvMNtNtNtCsdVnVozic4xr_8sciparse5scion7address11socket_addrNtB2_15ScionSocketAddr11socket_addr
FN:103,_RNvMNtNtNtCsdVnVozic4xr_8sciparse5scion7address11socket_addrNtB2_15ScionSocketAddr15from_scion_addr
FN:149,_RNvMNtNtNtCsdVnVozic4xr_8sciparse5scion7address11socket_addrNtB2_15ScionSocketAddr2ip
FN:200,_RNvMNtNtNtCsdVnVozic4xr_8sciparse5scion7address11socket_addrNtB2_15ScionSocketAddr4host
FN:232,_RNvMNtNtNtCsdVnVozic4xr_8sciparse5scion7address11socket_addrNtB2_15ScionSocketAddr5is_ip
FN:237,_RNvMNtNtNtCsdVnVozic4xr_8sciparse5scion7address11socket_addrNtB2_15ScionSocketAddr7is_ipv4
FN:242,_RNvMNtNtNtCsdVnVozic4xr_8sciparse5scion7address11socket_addrNtB2_15ScionSocketAddr7is_ipv6
FN:214,_RNvMNtNtNtCsdVnVozic4xr_8sciparse5scion7address11socket_addrNtB2_15ScionSocketAddr7isd_asn
FN:83,_RNvMNtNtNtCsdVnVozic4xr_8sciparse5scion7address11socket_addrNtB2_15ScionSocketAddr8from_std
FN:209,_RNvMNtNtNtCsdVnVozic4xr_8sciparse5scion7address11socket_addrNtB2_15ScionSocketAddr8set_host
FN:191,_RNvMNtNtNtCsdVnVozic4xr_8sciparse5scion7address11socket_addrNtB2_15ScionSocketAddr8set_port
FN:304,_RNvMs1_NtNtNtCsdVnVozic4xr_8sciparse5scion7address11socket_addrNtB5_17ScionSocketAddrV413to_scion_addr
FN:293,_RNvMs1_NtNtNtCsdVnVozic4xr_8sciparse5scion7address11socket_addrNtB5_17ScionSocketAddrV43new
FN:346,_RNvMs4_NtNtNtCsdVnVozic4xr_8sciparse5scion7address11socket_addrNtB5_17ScionSocketAddrV63new
FN:388,_RNvMs7_NtNtNtCsdVnVozic4xr_8sciparse5scion7address11socket_addrNtB5_18ScionSocketAddrSvc3new
FNDA:0,_RINvNtNtNtCsdVnVozic4xr_8sciparse5scion7address11socket_addr17parse_socket_addrNtNtB4_4addr11ScionAddrV4EB8_
FNDA:0,_RINvNtNtNtCsdVnVozic4xr_8sciparse5scion7address11socket_addr17parse_socket_addrNtNtB4_4addr11ScionAddrV6EB8_
FNDA:0,_RINvNtNtNtCsdVnVozic4xr_8sciparse5scion7address11socket_addr17parse_socket_addrNtNtB4_4addr12ScionAddrSvcEB8_
FNDA:0,_RNCNvXs0_NtNtNtCsdVnVozic4xr_8sciparse5scion7address11socket_addrNtB7_15ScionSocketAddrNtNtNtCs4eoa8Adtn6U_4core3str6traits7FromStr8from_str0Bd_
FNDA:0,_RNCNvXs0_NtNtNtCsdVnVozic4xr_8sciparse5scion7address11socket_addrNtB7_15ScionSocketAddrNtNtNtCs4eoa8Adtn6U_4core3str6traits7FromStr8from_strs_0Bd_
FNDA:0,_RNvMNtNtNtCsdVnVozic4xr_8sciparse5scion7address11socket_addrNtB2_15ScionSocketAddr10scion_addr
FNDA:31,_RNvMNtNtNtCsdVnVozic4xr_8sciparse5scion7address11socket_addrNtB2_15ScionSocketAddr3new
FNDA:0,_RNvMNtNtNtCsdVnVozic4xr_8sciparse5scion7address11socket_addrNtB2_15ScionSocketAddr4port
FNDA:0,_RNvNtNtNtCsdVnVozic4xr_8sciparse5scion7address11socket_addr18format_socket_addr
FNDA:0,_RNvXs0_NtNtNtCsdVnVozic4xr_8sciparse5scion7address11socket_addrNtB5_15ScionSocketAddrNtNtNtCs4eoa8Adtn6U_4core3str6traits7FromStr8from_str
FNDA:0,_RNvXs2_NtNtNtCsdVnVozic4xr_8sciparse5scion7address11socket_addrNtB5_17ScionSocketAddrV4NtNtNtCs4eoa8Adtn6U_4core3str6traits7FromStr8from_str
FNDA:0,_RNvXs3_NtNtNtCsdVnVozic4xr_8sciparse5scion7address11socket_addrNtB5_17ScionSocketAddrV4NtNtCs4eoa8Adtn6U_4core3fmt7Display3fmt
FNDA:0,_RNvXs5_NtNtNtCsdVnVozic4xr_8sciparse5scion7address11socket_addrNtB5_17ScionSocketAddrV6NtNtNtCs4eoa8Adtn6U_4core3str6traits7FromStr8from_str
FNDA:0,_RNvXs6_NtNtNtCsdVnVozic4xr_8sciparse5scion7address11socket_addrNtB5_17ScionSocketAddrV6NtNtCs4eoa8Adtn6U_4core3fmt7Display3fmt
FNDA:0,_RNvXs8_NtNtNtCsdVnVozic4xr_8sciparse5scion7address11socket_addrNtB5_18ScionSocketAddrSvcNtNtNtCs4eoa8Adtn6U_4core3str6traits7FromStr8from_str
FNDA:0,_RNvXs9_NtNtNtCsdVnVozic4xr_8sciparse5scion7address11socket_addrNtB5_18ScionSocketAddrSvcNtNtCs4eoa8Adtn6U_4core3fmt7Display3fmt
FNDA:0,_RNvXs_NtNtNtCsdVnVozic4xr_8sciparse5scion7address11socket_addrNtB4_15ScionSocketAddrNtNtCs4eoa8Adtn6U_4core3fmt7Display3fmt
FNDA:0,_RNvMNtNtNtCsdVnVozic4xr_8sciparse5scion7address11socket_addrNtB2_15ScionSocketAddr10is_service
FNDA:0,_RNvMNtNtNtCsdVnVozic4xr_8sciparse5scion7address11socket_addrNtB2_15ScionSocketAddr11set_isd_asn
FNDA:0,_RNvMNtNtNtCsdVnVozic4xr_8sciparse5scion7address11socket_addrNtB2_15ScionSocketAddr11socket_addr
FNDA:0,_RNvMNtNtNtCsdVnVozic4xr_8sciparse5scion7address11socket_addrNtB2_15ScionSocketAddr15from_scion_addr
FNDA:0,_RNvMNtNtNtCsdVnVozic4xr_8sciparse5scion7address11socket_addrNtB2_15ScionSocketAddr2ip
FNDA:0,_RNvMNtNtNtCsdVnVozic4xr_8sciparse5scion7address11socket_addrNtB2_15ScionSocketAddr4host
FNDA:0,_RNvMNtNtNtCsdVnVozic4xr_8sciparse5scion7address11socket_addrNtB2_15ScionSocketAddr5is_ip
FNDA:0,_RNvMNtNtNtCsdVnVozic4xr_8sciparse5scion7address11socket_addrNtB2_15ScionSocketAddr7is_ipv4
FNDA:0,_RNvMNtNtNtCsdVnVozic4xr_8sciparse5scion7address11socket_addrNtB2_15ScionSocketAddr7is_ipv6
FNDA:0,_RNvMNtNtNtCsdVnVozic4xr_8sciparse5scion7address11socket_addrNtB2_15ScionSocketAddr7isd_asn
FNDA:0,_RNvMNtNtNtCsdVnVozic4xr_8sciparse5scion7address11socket_addrNtB2_15ScionSocketAddr8from_std
FNDA:0,_RNvMNtNtNtCsdVnVozic4xr_8sciparse5scion7address11socket_addrNtB2_15ScionSocketAddr8set_host
FNDA:0,_RNvMNtNtNtCsdVnVozic4xr_8sciparse5scion7address11socket_addrNtB2_15ScionSocketAddr8set_port
FNDA:0,_RNvMs1_NtNtNtCsdVnVozic4xr_8sciparse5scion7address11socket_addrNtB5_17ScionSocketAddrV413to_scion_addr
FNDA:0,_RNvMs1_NtNtNtCsdVnVozic4xr_8sciparse5scion7address11socket_addrNtB5_17ScionSocketAddrV43new
FNDA:0,_RNvMs4_NtNtNtCsdVnVozic4xr_8sciparse5scion7address11socket_addrNtB5_17ScionSocketAddrV63new
